ARM GAS  C:\Users\OLEKSA~1\AppData\Local\Temp\ccMpakNx.s 			page 1


   1              		.syntax unified
   2              		.cpu cortex-m3
   3              		.fpu softvfp
   4              		.eabi_attribute 20, 1
   5              		.eabi_attribute 21, 1
   6              		.eabi_attribute 23, 3
   7              		.eabi_attribute 24, 1
   8              		.eabi_attribute 25, 1
   9              		.eabi_attribute 26, 1
  10              		.eabi_attribute 30, 1
  11              		.eabi_attribute 34, 1
  12              		.eabi_attribute 18, 4
  13              		.thumb
  14              		.syntax unified
  15              		.file	"main.c"
  16              		.text
  17              	.Ltext0:
  18              		.cfi_sections	.debug_frame
  19              		.global	__aeabi_ui2f
  20              		.global	__aeabi_fdiv
  21              		.global	__aeabi_fmul
  22              		.global	__aeabi_fadd
  23              		.global	__aeabi_fsub
  24              		.global	__aeabi_f2iz
  25              		.section	.text.main,"ax",%progbits
  26              		.align	2
  27              		.global	main
  28              		.thumb
  29              		.thumb_func
  30              		.type	main, %function
  31              	main:
  32              	.LFB64:
  33              		.file 1 "main.c"
   1:main.c        **** /* ========================================
   2:main.c        ****  *
   3:main.c        ****  * Copyright YOUR COMPANY, THE YEAR
   4:main.c        ****  * All Rights Reserved
   5:main.c        ****  * UNPUBLISHED, LICENSED SOFTWARE.
   6:main.c        ****  *
   7:main.c        ****  * CONFIDENTIAL AND PROPRIETARY INFORMATION
   8:main.c        ****  * WHICH IS THE PROPERTY OF your company.
   9:main.c        ****  *
  10:main.c        ****  * ========================================
  11:main.c        **** */
  12:main.c        **** #include "project.h"
  13:main.c        **** #include "timing.h"
  14:main.c        **** #include "myDAC.h"
  15:main.c        **** #include "sin_tab.h"
  16:main.c        **** #include "tty_utils.h"
  17:main.c        **** 
  18:main.c        **** #include <stdio.h>
  19:main.c        **** #include <stdlib.h>
  20:main.c        **** #include <string.h>
  21:main.c        **** 
  22:main.c        **** const float PI = 3.1415926;
  23:main.c        **** uint16 F0 = 1000;               // частота вхідного сигналу
  24:main.c        **** const uint16 Fo = 500;          // частота зрізу фільтра, Гц
ARM GAS  C:\Users\OLEKSA~1\AppData\Local\Temp\ccMpakNx.s 			page 2


  25:main.c        **** uint32 Fs = 2500;        // частота дискретизації, Гц
  26:main.c        **** const uint32 Fcl = 24000000;     // частота тактування таймера
  27:main.c        **** const float M = 0.25;       // коефіцієнт пропорційності
  28:main.c        **** const float Q = 0.5;        // добротність
  29:main.c        **** 
  30:main.c        **** /* масиви відліків вхідного та вихідного сигналів */
  31:main.c        **** float x[4] = {0,0,0,0};
  32:main.c        **** float y[4] = {0,0,0,0};
  33:main.c        **** float a0,a1,a2,b1,b2;  // коефіцієнти фільтра
  34:main.c        **** 
  35:main.c        **** /* sample_flag встановлюється в 1 кожний інтервал дискретиза
  36:main.c        **** і обнуляється 0 вкінці обробки кожного відліку*/
  37:main.c        **** uint8 sample_flag = 0;
  38:main.c        **** 
  39:main.c        **** void CalculateFilterCoefficients(uint8 f_type);
  40:main.c        **** 
  41:main.c        **** int main(void)
  42:main.c        **** {
  34              		.loc 1 42 0
  35              		.cfi_startproc
  36              		@ args = 0, pretend = 0, frame = 16
  37              		@ frame_needed = 0, uses_anonymous_args = 0
  38 0000 2DE9F043 		push	{r4, r5, r6, r7, r8, r9, lr}
  39              		.cfi_def_cfa_offset 28
  40              		.cfi_offset 4, -28
  41              		.cfi_offset 5, -24
  42              		.cfi_offset 6, -20
  43              		.cfi_offset 7, -16
  44              		.cfi_offset 8, -12
  45              		.cfi_offset 9, -8
  46              		.cfi_offset 14, -4
  47 0004 85B0     		sub	sp, sp, #20
  48              		.cfi_def_cfa_offset 48
  43:main.c        ****     Fs = F0 * 16;
  49              		.loc 1 43 0
  50 0006 6D4B     		ldr	r3, .L6
  51 0008 1C88     		ldrh	r4, [r3]
  52 000a 2401     		lsls	r4, r4, #4
  53 000c 5C60     		str	r4, [r3, #4]
  54              	.LVL0:
  44:main.c        ****     int j = 0;                // лічильник   
  45:main.c        ****    
  46:main.c        ****     
  47:main.c        ****     /* розрахувати коефіцієнти фільтра */
  48:main.c        ****     float dT = 1/((float)Fs);       // інтервал дискретизації, с
  55              		.loc 1 48 0
  56 000e 2046     		mov	r0, r4
  57 0010 FFF7FEFF 		bl	__aeabi_ui2f
  58              	.LVL1:
  59 0014 0146     		mov	r1, r0
  60 0016 4FF07E50 		mov	r0, #1065353216
  61 001a FFF7FEFF 		bl	__aeabi_fdiv
  62              	.LVL2:
  63 001e 0546     		mov	r5, r0
  64              	.LVL3:
  49:main.c        ****     float D = 1/Q;                  // коефіцієнт затухання
  50:main.c        ****     
ARM GAS  C:\Users\OLEKSA~1\AppData\Local\Temp\ccMpakNx.s 			page 3


  51:main.c        ****     a0 = (PI*PI*Fo*Fo*dT*dT) / (1 + PI*Fo*D*dT + PI*PI*Fo*Fo*dT*dT);
  65              		.loc 1 51 0
  66 0020 6749     		ldr	r1, .L6+4
  67 0022 FFF7FEFF 		bl	__aeabi_fmul
  68              	.LVL4:
  69 0026 0746     		mov	r7, r0
  70 0028 6649     		ldr	r1, .L6+8
  71 002a 2846     		mov	r0, r5
  72 002c FFF7FEFF 		bl	__aeabi_fmul
  73              	.LVL5:
  74 0030 8046     		mov	r8, r0
  75 0032 4FF07E51 		mov	r1, #1065353216
  76 0036 FFF7FEFF 		bl	__aeabi_fadd
  77              	.LVL6:
  78 003a 0646     		mov	r6, r0
  79 003c 3946     		mov	r1, r7
  80 003e 2846     		mov	r0, r5
  81 0040 FFF7FEFF 		bl	__aeabi_fmul
  82              	.LVL7:
  83 0044 0546     		mov	r5, r0
  84              	.LVL8:
  85 0046 0146     		mov	r1, r0
  86 0048 3046     		mov	r0, r6
  87 004a FFF7FEFF 		bl	__aeabi_fadd
  88              	.LVL9:
  89 004e 0646     		mov	r6, r0
  90 0050 0146     		mov	r1, r0
  91 0052 2846     		mov	r0, r5
  92 0054 FFF7FEFF 		bl	__aeabi_fdiv
  93              	.LVL10:
  94 0058 0746     		mov	r7, r0
  95 005a 5B4B     		ldr	r3, .L6+12
  96 005c 1860     		str	r0, [r3]	@ float
  52:main.c        ****     a1 = 2*a0;
  97              		.loc 1 52 0
  98 005e 0146     		mov	r1, r0
  99 0060 FFF7FEFF 		bl	__aeabi_fadd
 100              	.LVL11:
 101 0064 594B     		ldr	r3, .L6+16
 102 0066 1860     		str	r0, [r3]	@ float
  53:main.c        ****     a2 = a0;
 103              		.loc 1 53 0
 104 0068 594B     		ldr	r3, .L6+20
 105 006a 1F60     		str	r7, [r3]	@ float
  54:main.c        ****     b1 = 2 * (1 - PI*PI*Fo*Fo*dT*dT) / (1 + PI*Fo*D*dT + PI*PI*Fo*Fo*dT*dT);
 106              		.loc 1 54 0
 107 006c 2946     		mov	r1, r5
 108 006e 4FF07E50 		mov	r0, #1065353216
 109 0072 FFF7FEFF 		bl	__aeabi_fsub
 110              	.LVL12:
 111 0076 0146     		mov	r1, r0
 112 0078 FFF7FEFF 		bl	__aeabi_fadd
 113              	.LVL13:
 114 007c 3146     		mov	r1, r6
 115 007e FFF7FEFF 		bl	__aeabi_fdiv
 116              	.LVL14:
 117 0082 544B     		ldr	r3, .L6+24
ARM GAS  C:\Users\OLEKSA~1\AppData\Local\Temp\ccMpakNx.s 			page 4


 118 0084 1860     		str	r0, [r3]	@ float
  55:main.c        ****     b2 = -(1 - PI*Fo*D*dT + PI*PI*Fo*Fo*dT*dT) / (1 + PI*Fo*D*dT + PI*PI*Fo*Fo*dT*dT);
 119              		.loc 1 55 0
 120 0086 4146     		mov	r1, r8
 121 0088 4FF07E50 		mov	r0, #1065353216
 122 008c FFF7FEFF 		bl	__aeabi_fsub
 123              	.LVL15:
 124 0090 0146     		mov	r1, r0
 125 0092 2846     		mov	r0, r5
 126 0094 FFF7FEFF 		bl	__aeabi_fadd
 127              	.LVL16:
 128 0098 00F10040 		add	r0, r0, #-2147483648
 129 009c 3146     		mov	r1, r6
 130 009e FFF7FEFF 		bl	__aeabi_fdiv
 131              	.LVL17:
 132 00a2 4D4B     		ldr	r3, .L6+28
 133 00a4 1860     		str	r0, [r3]	@ float
  56:main.c        **** 
  57:main.c        ****     char number[10];            // число як "стрічка"
  58:main.c        ****     uint16 dac_out;
  59:main.c        ****     uint16 sample_period_in_clocks = Fcl/Fs;  
 134              		.loc 1 59 0
 135 00a6 4D48     		ldr	r0, .L6+32
 136 00a8 B0FBF4F0 		udiv	r0, r0, r4
 137              	.LVL18:
  60:main.c        ****     InitTiming(sample_period_in_clocks); 
 138              		.loc 1 60 0
 139 00ac 80B2     		uxth	r0, r0
 140 00ae FFF7FEFF 		bl	InitTiming
 141              	.LVL19:
  61:main.c        ****     InitDac();
 142              		.loc 1 61 0
 143 00b2 FFF7FEFF 		bl	InitDac
 144              	.LVL20:
  62:main.c        ****     UART_Start();
 145              		.loc 1 62 0
 146 00b6 FFF7FEFF 		bl	UART_Start
 147              	.LVL21:
  63:main.c        ****     
  64:main.c        ****     CyGlobalIntEnable; /* Enable global interrupts. */
 148              		.loc 1 64 0
 149              		.syntax unified
 150              	@ 64 "main.c" 1
 151 00ba 62B6     		CPSIE   i
 152              	@ 0 "" 2
  44:main.c        ****    
 153              		.loc 1 44 0
 154              		.thumb
 155              		.syntax unified
 156 00bc 0025     		movs	r5, #0
 157              	.LVL22:
 158              	.L2:
  65:main.c        ****     
  66:main.c        ****     for(;;)
  67:main.c        ****     {
  68:main.c        ****         if (sample_flag == 1)           // Момент виводу нового відліку н
 159              		.loc 1 68 0
ARM GAS  C:\Users\OLEKSA~1\AppData\Local\Temp\ccMpakNx.s 			page 5


 160 00be 484B     		ldr	r3, .L6+36
 161 00c0 1B78     		ldrb	r3, [r3]	@ zero_extendqisi2
 162 00c2 012B     		cmp	r3, #1
 163 00c4 FBD1     		bne	.L2
  69:main.c        ****         {
  70:main.c        ****             /* Читати значення відліку вхідного сигналу */
  71:main.c        ****             x[j & 0x03] = (float)input_signal[j & (INPUT_SIGNAL_SIZE-1)] - 2040;     
 164              		.loc 1 71 0
 165 00c6 05F00307 		and	r7, r5, #3
 166 00ca 05F00F03 		and	r3, r5, #15
 167 00ce 3B4A     		ldr	r2, .L6
 168 00d0 02EB4303 		add	r3, r2, r3, lsl #1
 169 00d4 1889     		ldrh	r0, [r3, #8]
 170 00d6 FFF7FEFF 		bl	__aeabi_ui2f
 171              	.LVL23:
 172 00da 4249     		ldr	r1, .L6+40
 173 00dc FFF7FEFF 		bl	__aeabi_fsub
 174              	.LVL24:
 175 00e0 3F4C     		ldr	r4, .L6+36
 176 00e2 04EB8708 		add	r8, r4, r7, lsl #2
 177 00e6 C8F80400 		str	r0, [r8, #4]	@ float
  72:main.c        **** 
  73:main.c        ****             /* Aлгоритм обробки для фільтра 2-го порядку */
  74:main.c        ****             y[j&0x03] = a0*x[j&0x03]+a1*x[(j-1)&0x03]+a2*x[(j-2)&0x03]+b1*y[(j-1)&0x03]+b2*y[(j-2)&
 178              		.loc 1 74 0
 179 00ea 374B     		ldr	r3, .L6+12
 180 00ec 1968     		ldr	r1, [r3]	@ float
 181 00ee FFF7FEFF 		bl	__aeabi_fmul
 182              	.LVL25:
 183 00f2 8146     		mov	r9, r0
 184 00f4 6E1E     		subs	r6, r5, #1
 185 00f6 06F00306 		and	r6, r6, #3
 186 00fa 04EB8606 		add	r6, r4, r6, lsl #2
 187 00fe 334B     		ldr	r3, .L6+16
 188 0100 1968     		ldr	r1, [r3]	@ float
 189 0102 7068     		ldr	r0, [r6, #4]	@ float
 190 0104 FFF7FEFF 		bl	__aeabi_fmul
 191              	.LVL26:
 192 0108 0146     		mov	r1, r0
 193 010a 4846     		mov	r0, r9
 194 010c FFF7FEFF 		bl	__aeabi_fadd
 195              	.LVL27:
 196 0110 8146     		mov	r9, r0
 197 0112 AB1E     		subs	r3, r5, #2
 198 0114 03F00303 		and	r3, r3, #3
 199 0118 04EB8304 		add	r4, r4, r3, lsl #2
 200 011c 2C4B     		ldr	r3, .L6+20
 201 011e 1968     		ldr	r1, [r3]	@ float
 202 0120 6068     		ldr	r0, [r4, #4]	@ float
 203 0122 FFF7FEFF 		bl	__aeabi_fmul
 204              	.LVL28:
 205 0126 0146     		mov	r1, r0
 206 0128 4846     		mov	r0, r9
 207 012a FFF7FEFF 		bl	__aeabi_fadd
 208              	.LVL29:
 209 012e 8146     		mov	r9, r0
 210 0130 284B     		ldr	r3, .L6+24
ARM GAS  C:\Users\OLEKSA~1\AppData\Local\Temp\ccMpakNx.s 			page 6


 211 0132 1968     		ldr	r1, [r3]	@ float
 212 0134 7069     		ldr	r0, [r6, #20]	@ float
 213 0136 FFF7FEFF 		bl	__aeabi_fmul
 214              	.LVL30:
 215 013a 0146     		mov	r1, r0
 216 013c 4846     		mov	r0, r9
 217 013e FFF7FEFF 		bl	__aeabi_fadd
 218              	.LVL31:
 219 0142 0646     		mov	r6, r0
 220 0144 244B     		ldr	r3, .L6+28
 221 0146 1968     		ldr	r1, [r3]	@ float
 222 0148 6069     		ldr	r0, [r4, #20]	@ float
 223 014a FFF7FEFF 		bl	__aeabi_fmul
 224              	.LVL32:
 225 014e 0146     		mov	r1, r0
 226 0150 3046     		mov	r0, r6
 227 0152 FFF7FEFF 		bl	__aeabi_fadd
 228              	.LVL33:
 229 0156 C8F81400 		str	r0, [r8, #20]	@ float
  75:main.c        ****             
  76:main.c        ****             /*Вивести значення вихідного відліку ЦФ на ЦАП */
  77:main.c        ****             dac_out = (int16)y[j & 0x03] + 2040;
 230              		.loc 1 77 0
 231 015a FFF7FEFF 		bl	__aeabi_f2iz
 232              	.LVL34:
 233 015e 00B2     		sxth	r0, r0
 234 0160 00F5FF60 		add	r0, r0, #2040
 235              	.LVL35:
  78:main.c        ****             UpdateDac(dac_out);
 236              		.loc 1 78 0
 237 0164 80B2     		uxth	r0, r0
 238 0166 FFF7FEFF 		bl	UpdateDac
 239              	.LVL36:
  79:main.c        ****             
  80:main.c        ****             /*Передати значення вхідного та вихідного відлі
  81:main.c        ****             if(j < 300){
 240              		.loc 1 81 0
 241 016a B5F5967F 		cmp	r5, #300
 242 016e 20DA     		bge	.L3
  82:main.c        ****                 sprintf(number, "%d", (int16)x[j & 0x03]); 
 243              		.loc 1 82 0
 244 0170 D8F80400 		ldr	r0, [r8, #4]	@ float
 245 0174 FFF7FEFF 		bl	__aeabi_f2iz
 246              	.LVL37:
 247 0178 1B4E     		ldr	r6, .L6+44
 248 017a 02B2     		sxth	r2, r0
 249 017c 3146     		mov	r1, r6
 250 017e 01A8     		add	r0, sp, #4
 251 0180 FFF7FEFF 		bl	sprintf
 252              	.LVL38:
  83:main.c        ****                 UART_PutString(number);                       
 253              		.loc 1 83 0
 254 0184 01A8     		add	r0, sp, #4
 255 0186 FFF7FEFF 		bl	UART_PutString
 256              	.LVL39:
  84:main.c        ****                 UART_PutString("\r\n");
 257              		.loc 1 84 0
ARM GAS  C:\Users\OLEKSA~1\AppData\Local\Temp\ccMpakNx.s 			page 7


 258 018a 184C     		ldr	r4, .L6+48
 259 018c 2046     		mov	r0, r4
 260 018e FFF7FEFF 		bl	UART_PutString
 261              	.LVL40:
  85:main.c        ****                 sprintf(number, "%d", (int16)y[j & 0x03]); 
 262              		.loc 1 85 0
 263 0192 D8F81400 		ldr	r0, [r8, #20]	@ float
 264 0196 FFF7FEFF 		bl	__aeabi_f2iz
 265              	.LVL41:
 266 019a 02B2     		sxth	r2, r0
 267 019c 3146     		mov	r1, r6
 268 019e 01A8     		add	r0, sp, #4
 269 01a0 FFF7FEFF 		bl	sprintf
 270              	.LVL42:
  86:main.c        ****                 UART_PutString(number);                       
 271              		.loc 1 86 0
 272 01a4 01A8     		add	r0, sp, #4
 273 01a6 FFF7FEFF 		bl	UART_PutString
 274              	.LVL43:
  87:main.c        ****                 UART_PutString("\r\n");
 275              		.loc 1 87 0
 276 01aa 2046     		mov	r0, r4
 277 01ac FFF7FEFF 		bl	UART_PutString
 278              	.LVL44:
  88:main.c        ****                 j++;
 279              		.loc 1 88 0
 280 01b0 0135     		adds	r5, r5, #1
 281              	.LVL45:
 282              	.L3:
  89:main.c        ****             }
  90:main.c        ****             
  91:main.c        ****             /* Oчистити прапорець */
  92:main.c        ****             sample_flag = 0;                                
 283              		.loc 1 92 0
 284 01b2 0022     		movs	r2, #0
 285 01b4 0A4B     		ldr	r3, .L6+36
 286 01b6 1A70     		strb	r2, [r3]
 287 01b8 81E7     		b	.L2
 288              	.L7:
 289 01ba 00BF     		.align	2
 290              	.L6:
 291 01bc 00000000 		.word	.LANCHOR0
 292 01c0 2499164A 		.word	1242994980
 293 01c4 7B594445 		.word	1162107259
 294 01c8 00000000 		.word	a0
 295 01cc 00000000 		.word	a1
 296 01d0 00000000 		.word	a2
 297 01d4 00000000 		.word	b1
 298 01d8 00000000 		.word	b2
 299 01dc 00366E01 		.word	24000000
 300 01e0 00000000 		.word	.LANCHOR1
 301 01e4 0000FF44 		.word	1157562368
 302 01e8 00000000 		.word	.LC0
 303 01ec 04000000 		.word	.LC1
 304              		.cfi_endproc
 305              	.LFE64:
 306              		.size	main, .-main
ARM GAS  C:\Users\OLEKSA~1\AppData\Local\Temp\ccMpakNx.s 			page 8


 307              		.global	sample_flag
 308              		.comm	b2,4,4
 309              		.comm	b1,4,4
 310              		.comm	a2,4,4
 311              		.comm	a1,4,4
 312              		.comm	a0,4,4
 313              		.global	y
 314              		.global	x
 315              		.global	Q
 316              		.global	M
 317              		.global	Fcl
 318              		.global	Fs
 319              		.global	Fo
 320              		.global	F0
 321              		.global	PI
 322              		.global	input_signal
 323              		.global	INPUT_SIGNAL_SIZE
 324              		.section	.rodata
 325              		.align	2
 326              		.type	Q, %object
 327              		.size	Q, 4
 328              	Q:
 329 0000 0000003F 		.word	1056964608
 330              		.type	M, %object
 331              		.size	M, 4
 332              	M:
 333 0004 0000803E 		.word	1048576000
 334              		.type	Fcl, %object
 335              		.size	Fcl, 4
 336              	Fcl:
 337 0008 00366E01 		.word	24000000
 338              		.type	Fo, %object
 339              		.size	Fo, 2
 340              	Fo:
 341 000c F401     		.short	500
 342 000e 0000     		.space	2
 343              		.type	PI, %object
 344              		.size	PI, 4
 345              	PI:
 346 0010 DA0F4940 		.word	1078530010
 347              		.type	INPUT_SIGNAL_SIZE, %object
 348              		.size	INPUT_SIGNAL_SIZE, 2
 349              	INPUT_SIGNAL_SIZE:
 350 0014 1000     		.short	16
 351              		.data
 352              		.align	2
 353              		.set	.LANCHOR0,. + 0
 354              		.type	F0, %object
 355              		.size	F0, 2
 356              	F0:
 357 0000 E803     		.short	1000
 358 0002 0000     		.space	2
 359              		.type	Fs, %object
 360              		.size	Fs, 4
 361              	Fs:
 362 0004 C4090000 		.word	2500
 363              		.type	input_signal, %object
ARM GAS  C:\Users\OLEKSA~1\AppData\Local\Temp\ccMpakNx.s 			page 9


 364              		.size	input_signal, 32
 365              	input_signal:
 366 0008 F807     		.short	2040
 367 000a 040B     		.short	2820
 368 000c 9A0D     		.short	3482
 369 000e 540F     		.short	3924
 370 0010 F00F     		.short	4080
 371 0012 540F     		.short	3924
 372 0014 9A0D     		.short	3482
 373 0016 040B     		.short	2820
 374 0018 F807     		.short	2040
 375 001a EB04     		.short	1259
 376 001c 5502     		.short	597
 377 001e 9B00     		.short	155
 378 0020 0000     		.short	0
 379 0022 9B00     		.short	155
 380 0024 5502     		.short	597
 381 0026 EB04     		.short	1259
 382              		.section	.rodata.str1.4,"aMS",%progbits,1
 383              		.align	2
 384              	.LC0:
 385 0000 256400   		.ascii	"%d\000"
 386 0003 00       		.space	1
 387              	.LC1:
 388 0004 0D0A00   		.ascii	"\015\012\000"
 389              		.bss
 390              		.align	2
 391              		.set	.LANCHOR1,. + 0
 392              		.type	sample_flag, %object
 393              		.size	sample_flag, 1
 394              	sample_flag:
 395 0000 00       		.space	1
 396 0001 000000   		.space	3
 397              		.type	x, %object
 398              		.size	x, 16
 399              	x:
 400 0004 00000000 		.space	16
 400      00000000 
 400      00000000 
 400      00000000 
 401              		.type	y, %object
 402              		.size	y, 16
 403              	y:
 404 0014 00000000 		.space	16
 404      00000000 
 404      00000000 
 404      00000000 
 405              		.text
 406              	.Letext0:
 407              		.file 2 "c:\\program files (x86)\\cypress\\psoc creator\\4.4\\psoc creator\\import\\gnu\\arm\\5.4.
 408              		.file 3 "c:\\program files (x86)\\cypress\\psoc creator\\4.4\\psoc creator\\import\\gnu\\arm\\5.4.
 409              		.file 4 "Generated_Source\\PSoC5/cytypes.h"
 410              		.file 5 "Generated_Source\\PSoC5/core_cm3.h"
 411              		.file 6 "sin_tab.h"
 412              		.file 7 "timing.h"
 413              		.file 8 "myDAC.h"
 414              		.file 9 "Generated_Source\\PSoC5/UART.h"
ARM GAS  C:\Users\OLEKSA~1\AppData\Local\Temp\ccMpakNx.s 			page 10


 415              		.file 10 "c:\\program files (x86)\\cypress\\psoc creator\\4.4\\psoc creator\\import\\gnu\\arm\\5.4