ARM GAS  C:\Users\cojid\AppData\Local\Temp\ccUN3fWj.s 			page 1


   1              		.syntax unified
   2              		.cpu cortex-m3
   3              		.fpu softvfp
   4              		.eabi_attribute 20, 1
   5              		.eabi_attribute 21, 1
   6              		.eabi_attribute 23, 3
   7              		.eabi_attribute 24, 1
   8              		.eabi_attribute 25, 1
   9              		.eabi_attribute 26, 1
  10              		.eabi_attribute 30, 1
  11              		.eabi_attribute 34, 1
  12              		.eabi_attribute 18, 4
  13              		.thumb
  14              		.syntax unified
  15              		.file	"main.c"
  16              		.text
  17              	.Ltext0:
  18              		.cfi_sections	.debug_frame
  19              		.section	.text.DHTread,"ax",%progbits
  20              		.align	2
  21              		.global	DHTread
  22              		.thumb
  23              		.thumb_func
  24              		.type	DHTread, %function
  25              	DHTread:
  26              	.LFB64:
  27              		.file 1 "main.c"
   1:main.c        **** /* ========================================
   2:main.c        ****  *
   3:main.c        ****  * Copyright YOUR COMPANY, THE YEAR
   4:main.c        ****  * All Rights Reserved
   5:main.c        ****  * UNPUBLISHED, LICENSED SOFTWARE.
   6:main.c        ****  *
   7:main.c        ****  * CONFIDENTIAL AND PROPRIETARY INFORMATION
   8:main.c        ****  * WHICH IS THE PROPERTY OF your company.
   9:main.c        ****  *
  10:main.c        ****  * ========================================
  11:main.c        **** */
  12:main.c        **** #include "project.h"
  13:main.c        **** #include "stdio.h"
  14:main.c        **** 
  15:main.c        **** static int temperature=99;
  16:main.c        **** static int humidity=99;
  17:main.c        **** static uint8 IState,i;
  18:main.c        **** 
  19:main.c        **** int DHTread() 
  20:main.c        **** {     
  28              		.loc 1 20 0
  29              		.cfi_startproc
  30              		@ args = 0, pretend = 0, frame = 8
  31              		@ frame_needed = 0, uses_anonymous_args = 0
  32 0000 F0B5     		push	{r4, r5, r6, r7, lr}
  33              		.cfi_def_cfa_offset 20
  34              		.cfi_offset 4, -20
  35              		.cfi_offset 5, -16
  36              		.cfi_offset 6, -12
  37              		.cfi_offset 7, -8
ARM GAS  C:\Users\cojid\AppData\Local\Temp\ccUN3fWj.s 			page 2


  38              		.cfi_offset 14, -4
  39 0002 83B0     		sub	sp, sp, #12
  40              		.cfi_def_cfa_offset 32
  21:main.c        ****    IState=CyEnterCriticalSection();  
  41              		.loc 1 21 0
  42 0004 FFF7FEFF 		bl	CyEnterCriticalSection
  43              	.LVL0:
  44 0008 3C4B     		ldr	r3, .L19
  45 000a 1870     		strb	r0, [r3]
  46              	.LVL1:
  22:main.c        ****    uint8 bits[5]; 
  23:main.c        **** 	uint8 cnt = 7; 
  24:main.c        **** 	uint8 idx = 0; 
  25:main.c        ****    int   calc=0; 
  26:main.c        ****    int   timeout=0; 
  27:main.c        ****    for (i=0; i< 5; i++)  
  47              		.loc 1 27 0
  48 000c 0022     		movs	r2, #0
  49 000e 5A70     		strb	r2, [r3, #1]
  50 0010 07E0     		b	.L2
  51              	.L3:
  28:main.c        ****        bits[i] = 0; 
  52              		.loc 1 28 0 discriminator 3
  53 0012 02AA     		add	r2, sp, #8
  54 0014 1A44     		add	r2, r2, r3
  55 0016 0021     		movs	r1, #0
  56 0018 02F8081C 		strb	r1, [r2, #-8]
  27:main.c        ****        bits[i] = 0; 
  57              		.loc 1 27 0 discriminator 3
  58 001c 0133     		adds	r3, r3, #1
  59 001e 374A     		ldr	r2, .L19
  60 0020 5370     		strb	r3, [r2, #1]
  61              	.L2:
  27:main.c        ****        bits[i] = 0; 
  62              		.loc 1 27 0 is_stmt 0 discriminator 1
  63 0022 364B     		ldr	r3, .L19
  64 0024 5B78     		ldrb	r3, [r3, #1]	@ zero_extendqisi2
  65 0026 042B     		cmp	r3, #4
  66 0028 F3D9     		bls	.L3
  29:main.c        ****    DHT_Write(0u); 
  67              		.loc 1 29 0 is_stmt 1
  68 002a 0020     		movs	r0, #0
  69 002c FFF7FEFF 		bl	DHT_Write
  70              	.LVL2:
  30:main.c        ****    CyDelay(19); 
  71              		.loc 1 30 0
  72 0030 1320     		movs	r0, #19
  73 0032 FFF7FEFF 		bl	CyDelay
  74              	.LVL3:
  31:main.c        ****    DHT_Write(1u); 
  75              		.loc 1 31 0
  76 0036 0120     		movs	r0, #1
  77 0038 FFF7FEFF 		bl	DHT_Write
  78              	.LVL4:
  26:main.c        ****    for (i=0; i< 5; i++)  
  79              		.loc 1 26 0
  80 003c 0025     		movs	r5, #0
ARM GAS  C:\Users\cojid\AppData\Local\Temp\ccUN3fWj.s 			page 3


  32:main.c        ****    while(DHT_Read()==1) 
  81              		.loc 1 32 0
  82 003e 03E0     		b	.L4
  83              	.LVL5:
  84              	.L6:
  33:main.c        ****    { 
  34:main.c        ****        timeout++; 
  85              		.loc 1 34 0
  86 0040 0135     		adds	r5, r5, #1
  87              	.LVL6:
  35:main.c        ****        if(timeout>500) 
  88              		.loc 1 35 0
  89 0042 B5F5FA7F 		cmp	r5, #500
  90 0046 4DDC     		bgt	.L5
  91              	.LVL7:
  92              	.L4:
  32:main.c        ****    while(DHT_Read()==1) 
  93              		.loc 1 32 0
  94 0048 FFF7FEFF 		bl	DHT_Read
  95              	.LVL8:
  96 004c 0128     		cmp	r0, #1
  97 004e F7D0     		beq	.L6
  98 0050 03E0     		b	.L7
  99              	.L8:
  36:main.c        ****            goto r99;  //DHT error function 
  37:main.c        ****    } 
  38:main.c        ****    while(DHT_Read()==0) 
  39:main.c        ****    {         
  40:main.c        ****        timeout++; 
 100              		.loc 1 40 0
 101 0052 0135     		adds	r5, r5, #1
 102              	.LVL9:
  41:main.c        ****        if(timeout>500) 
 103              		.loc 1 41 0
 104 0054 B5F5FA7F 		cmp	r5, #500
 105 0058 44DC     		bgt	.L5
 106              	.L7:
  38:main.c        ****    {         
 107              		.loc 1 38 0
 108 005a FFF7FEFF 		bl	DHT_Read
 109              	.LVL10:
 110 005e 0028     		cmp	r0, #0
 111 0060 F7D0     		beq	.L8
 112              	.L9:
  42:main.c        ****            goto r99; //DHT error function 
  43:main.c        ****    } 
  44:main.c        ****    calc=timeout; 
  45:main.c        ****    timeout=0; 
  46:main.c        ****    while(DHT_Read()==1); 
 113              		.loc 1 46 0 discriminator 1
 114 0062 FFF7FEFF 		bl	DHT_Read
 115              	.LVL11:
 116 0066 0128     		cmp	r0, #1
 117 0068 FBD0     		beq	.L9
  47:main.c        ****    for (i=0; i<40; i++) 
 118              		.loc 1 47 0
 119 006a 0027     		movs	r7, #0
ARM GAS  C:\Users\cojid\AppData\Local\Temp\ccUN3fWj.s 			page 4


 120 006c 234B     		ldr	r3, .L19
 121 006e 5F70     		strb	r7, [r3, #1]
  23:main.c        **** 	uint8 idx = 0; 
 122              		.loc 1 23 0
 123 0070 0726     		movs	r6, #7
 124              		.loc 1 47 0
 125 0072 23E0     		b	.L10
 126              	.LVL12:
 127              	.L11:
  48:main.c        **** 	{ 
  49:main.c        ****        timeout=0; 
  50:main.c        ****        while(DHT_Read()==0); 
 128              		.loc 1 50 0 discriminator 1
 129 0074 FFF7FEFF 		bl	DHT_Read
 130              	.LVL13:
 131 0078 0028     		cmp	r0, #0
 132 007a FBD0     		beq	.L11
 133 007c 0024     		movs	r4, #0
 134 007e 00E0     		b	.L12
 135              	.LVL14:
 136              	.L13:
  51:main.c        ****        while(DHT_Read()==1) 
  52:main.c        ****            timeout++; 
 137              		.loc 1 52 0
 138 0080 0134     		adds	r4, r4, #1
 139              	.LVL15:
 140              	.L12:
  51:main.c        ****        while(DHT_Read()==1) 
 141              		.loc 1 51 0
 142 0082 FFF7FEFF 		bl	DHT_Read
 143              	.LVL16:
 144 0086 0128     		cmp	r0, #1
 145 0088 FAD0     		beq	.L13
  53:main.c        ****        //Data acquiring point 
  54:main.c        ****        if ((timeout) > (calc/2)) 
 146              		.loc 1 54 0
 147 008a 05EBD573 		add	r3, r5, r5, lsr #31
 148 008e B4EB630F 		cmp	r4, r3, asr #1
 149 0092 08DD     		ble	.L14
  55:main.c        ****            bits[idx] |= (1 << cnt); 
 150              		.loc 1 55 0
 151 0094 0123     		movs	r3, #1
 152 0096 B340     		lsls	r3, r3, r6
 153 0098 02AA     		add	r2, sp, #8
 154 009a 3A44     		add	r2, r2, r7
 155 009c 12F8081C 		ldrb	r1, [r2, #-8]	@ zero_extendqisi2
 156 00a0 0B43     		orrs	r3, r3, r1
 157 00a2 02F8083C 		strb	r3, [r2, #-8]
 158              	.L14:
  56:main.c        ****        if (cnt == 0)   // next byte? 
 159              		.loc 1 56 0
 160 00a6 1EB9     		cbnz	r6, .L15
 161              	.LVL17:
  57:main.c        ****    	{ 
  58:main.c        ****    		cnt = 7;    // restart at MSB 
  59:main.c        ****    		idx++;      // next byte! 
 162              		.loc 1 59 0
ARM GAS  C:\Users\cojid\AppData\Local\Temp\ccUN3fWj.s 			page 5


 163 00a8 0137     		adds	r7, r7, #1
 164              	.LVL18:
 165 00aa FFB2     		uxtb	r7, r7
 166              	.LVL19:
  58:main.c        ****    		idx++;      // next byte! 
 167              		.loc 1 58 0
 168 00ac 0726     		movs	r6, #7
 169 00ae 01E0     		b	.L16
 170              	.LVL20:
 171              	.L15:
  60:main.c        ****    	} 
  61:main.c        ****    	else cnt--; 
 172              		.loc 1 61 0
 173 00b0 013E     		subs	r6, r6, #1
 174              	.LVL21:
 175 00b2 F6B2     		uxtb	r6, r6
 176              	.LVL22:
 177              	.L16:
  47:main.c        **** 	{ 
 178              		.loc 1 47 0 discriminator 2
 179 00b4 114A     		ldr	r2, .L19
 180 00b6 5378     		ldrb	r3, [r2, #1]	@ zero_extendqisi2
 181 00b8 0133     		adds	r3, r3, #1
 182 00ba 5370     		strb	r3, [r2, #1]
 183              	.LVL23:
 184              	.L10:
  47:main.c        **** 	{ 
 185              		.loc 1 47 0 is_stmt 0 discriminator 1
 186 00bc 0F4B     		ldr	r3, .L19
 187 00be 5B78     		ldrb	r3, [r3, #1]	@ zero_extendqisi2
 188 00c0 272B     		cmp	r3, #39
 189 00c2 D7D9     		bls	.L11
  62:main.c        ****    } 
  63:main.c        ****    humidity    = bits[0];  
 190              		.loc 1 63 0 is_stmt 1
 191 00c4 9DF80020 		ldrb	r2, [sp]	@ zero_extendqisi2
 192 00c8 0D4B     		ldr	r3, .L19+4
 193 00ca 1A60     		str	r2, [r3]
  64:main.c        ****    temperature = bits[2];  
 194              		.loc 1 64 0
 195 00cc 9DF80220 		ldrb	r2, [sp, #2]	@ zero_extendqisi2
 196 00d0 5A60     		str	r2, [r3, #4]
  65:main.c        ****    CyExitCriticalSection(IState); 
 197              		.loc 1 65 0
 198 00d2 0A4B     		ldr	r3, .L19
 199 00d4 1878     		ldrb	r0, [r3]	@ zero_extendqisi2
 200 00d6 FFF7FEFF 		bl	CyExitCriticalSection
 201              	.LVL24:
  66:main.c        ****    CyDelay(1); 
 202              		.loc 1 66 0
 203 00da 0120     		movs	r0, #1
 204 00dc FFF7FEFF 		bl	CyDelay
 205              	.LVL25:
  67:main.c        ****    return 0; 
 206              		.loc 1 67 0
 207 00e0 0020     		movs	r0, #0
 208 00e2 09E0     		b	.L17
ARM GAS  C:\Users\cojid\AppData\Local\Temp\ccUN3fWj.s 			page 6


 209              	.LVL26:
 210              	.L5:
  68:main.c        ****    r99:    //Goto label for error in DHT reading 
  69:main.c        ****        humidity    = 70;  
 211              		.loc 1 69 0
 212 00e4 064B     		ldr	r3, .L19+4
 213 00e6 4622     		movs	r2, #70
 214 00e8 1A60     		str	r2, [r3]
  70:main.c        ****        temperature = 24;  
 215              		.loc 1 70 0
 216 00ea 1822     		movs	r2, #24
 217 00ec 5A60     		str	r2, [r3, #4]
  71:main.c        ****        CyExitCriticalSection(IState); 
 218              		.loc 1 71 0
 219 00ee 034B     		ldr	r3, .L19
 220 00f0 1878     		ldrb	r0, [r3]	@ zero_extendqisi2
 221 00f2 FFF7FEFF 		bl	CyExitCriticalSection
 222              	.LVL27:
  72:main.c        ****        return 99; 
 223              		.loc 1 72 0
 224 00f6 6320     		movs	r0, #99
 225              	.LVL28:
 226              	.L17:
  73:main.c        **** }
 227              		.loc 1 73 0
 228 00f8 03B0     		add	sp, sp, #12
 229              		.cfi_def_cfa_offset 20
 230              		@ sp needed
 231 00fa F0BD     		pop	{r4, r5, r6, r7, pc}
 232              	.L20:
 233              		.align	2
 234              	.L19:
 235 00fc 00000000 		.word	.LANCHOR0
 236 0100 00000000 		.word	.LANCHOR1
 237              		.cfi_endproc
 238              	.LFE64:
 239              		.size	DHTread, .-DHTread
 240              		.section	.text.main,"ax",%progbits
 241              		.align	2
 242              		.global	main
 243              		.thumb
 244              		.thumb_func
 245              		.type	main, %function
 246              	main:
 247              	.LFB65:
  74:main.c        **** 
  75:main.c        **** 
  76:main.c        **** int main(void)
  77:main.c        **** {
 248              		.loc 1 77 0
 249              		.cfi_startproc
 250              		@ args = 0, pretend = 0, frame = 40
 251              		@ frame_needed = 0, uses_anonymous_args = 0
 252 0000 00B5     		push	{lr}
 253              		.cfi_def_cfa_offset 4
 254              		.cfi_offset 14, -4
 255 0002 8BB0     		sub	sp, sp, #44
ARM GAS  C:\Users\cojid\AppData\Local\Temp\ccUN3fWj.s 			page 7


 256              		.cfi_def_cfa_offset 48
  78:main.c        ****     CyGlobalIntEnable; /* Enable global interrupts. */
 257              		.loc 1 78 0
 258              		.syntax unified
 259              	@ 78 "main.c" 1
 260 0004 62B6     		CPSIE   i
 261              	@ 0 "" 2
  79:main.c        **** 
  80:main.c        ****     char outputstring[40];
  81:main.c        ****     UART_Start();
 262              		.loc 1 81 0
 263              		.thumb
 264              		.syntax unified
 265 0006 FFF7FEFF 		bl	UART_Start
 266              	.LVL29:
 267              	.L24:
  82:main.c        **** 
  83:main.c        ****     for(;;)
  84:main.c        ****     {
  85:main.c        ****         if(PhotoSen_Read() == 1)
 268              		.loc 1 85 0
 269 000a FFF7FEFF 		bl	PhotoSen_Read
 270              	.LVL30:
 271 000e 0128     		cmp	r0, #1
 272 0010 0BD1     		bne	.L22
  86:main.c        ****         {
  87:main.c        ****             DHTread();
 273              		.loc 1 87 0
 274 0012 FFF7FEFF 		bl	DHTread
 275              	.LVL31:
  88:main.c        ****             sprintf(outputstring,"Night: Temperature=%i Humidity= %i \r\n",temperature,humidity);
 276              		.loc 1 88 0
 277 0016 0F4A     		ldr	r2, .L26
 278 0018 1368     		ldr	r3, [r2]
 279 001a 5268     		ldr	r2, [r2, #4]
 280 001c 0E49     		ldr	r1, .L26+4
 281 001e 6846     		mov	r0, sp
 282 0020 FFF7FEFF 		bl	sprintf
 283              	.LVL32:
  89:main.c        ****             UART_PutString(outputstring);
 284              		.loc 1 89 0
 285 0024 6846     		mov	r0, sp
 286 0026 FFF7FEFF 		bl	UART_PutString
 287              	.LVL33:
 288              	.L22:
  90:main.c        ****         }
  91:main.c        ****         if(PhotoSen_Read() == 0)
 289              		.loc 1 91 0
 290 002a FFF7FEFF 		bl	PhotoSen_Read
 291              	.LVL34:
 292 002e 58B9     		cbnz	r0, .L23
  92:main.c        ****         {
  93:main.c        ****             DHTread();
 293              		.loc 1 93 0
 294 0030 FFF7FEFF 		bl	DHTread
 295              	.LVL35:
  94:main.c        ****             sprintf(outputstring,"Day: Temperature=%i Humidity= %i \r\n",temperature,humidity);
ARM GAS  C:\Users\cojid\AppData\Local\Temp\ccUN3fWj.s 			page 8


 296              		.loc 1 94 0
 297 0034 074A     		ldr	r2, .L26
 298 0036 1368     		ldr	r3, [r2]
 299 0038 5268     		ldr	r2, [r2, #4]
 300 003a 0849     		ldr	r1, .L26+8
 301 003c 6846     		mov	r0, sp
 302 003e FFF7FEFF 		bl	sprintf
 303              	.LVL36:
  95:main.c        ****             UART_PutString(outputstring);
 304              		.loc 1 95 0
 305 0042 6846     		mov	r0, sp
 306 0044 FFF7FEFF 		bl	UART_PutString
 307              	.LVL37:
 308              	.L23:
  96:main.c        ****         }
  97:main.c        ****         CyDelay(5000);  //Delay in milli seconds. 
 309              		.loc 1 97 0
 310 0048 41F28830 		movw	r0, #5000
 311 004c FFF7FEFF 		bl	CyDelay
 312              	.LVL38:
  98:main.c        ****     }
 313              		.loc 1 98 0
 314 0050 DBE7     		b	.L24
 315              	.L27:
 316 0052 00BF     		.align	2
 317              	.L26:
 318 0054 00000000 		.word	.LANCHOR1
 319 0058 00000000 		.word	.LC0
 320 005c 28000000 		.word	.LC1
 321              		.cfi_endproc
 322              	.LFE65:
 323              		.size	main, .-main
 324              		.data
 325              		.align	2
 326              		.set	.LANCHOR1,. + 0
 327              		.type	humidity, %object
 328              		.size	humidity, 4
 329              	humidity:
 330 0000 63000000 		.word	99
 331              		.type	temperature, %object
 332              		.size	temperature, 4
 333              	temperature:
 334 0004 63000000 		.word	99
 335              		.section	.rodata.str1.4,"aMS",%progbits,1
 336              		.align	2
 337              	.LC0:
 338 0000 4E696768 		.ascii	"Night: Temperature=%i Humidity= %i \015\012\000"
 338      743A2054 
 338      656D7065 
 338      72617475 
 338      72653D25 
 339 0026 0000     		.space	2
 340              	.LC1:
 341 0028 4461793A 		.ascii	"Day: Temperature=%i Humidity= %i \015\012\000"
 341      2054656D 
 341      70657261 
 341      74757265 
ARM GAS  C:\Users\cojid\AppData\Local\Temp\ccUN3fWj.s 			page 9


 341      3D256920 
 342              		.bss
 343              		.set	.LANCHOR0,. + 0
 344              		.type	IState, %object
 345              		.size	IState, 1
 346              	IState:
 347 0000 00       		.space	1
 348              		.type	i, %object
 349              		.size	i, 1
 350              	i:
 351 0001 00       		.space	1
 352              		.text
 353              	.Letext0:
 354              		.file 2 "c:\\program files (x86)\\cypress\\psoc creator\\4.2\\psoc creator\\import\\gnu\\arm\\5.4.
 355              		.file 3 "c:\\program files (x86)\\cypress\\psoc creator\\4.2\\psoc creator\\import\\gnu\\arm\\5.4.
 356              		.file 4 "Generated_Source\\PSoC5/cytypes.h"
 357              		.file 5 "Generated_Source\\PSoC5/CyLib.h"
 358              		.file 6 "Generated_Source\\PSoC5/DHT.h"
 359              		.file 7 "Generated_Source\\PSoC5/UART.h"
 360              		.file 8 "Generated_Source\\PSoC5/PhotoSen.h"
 361              		.file 9 "c:\\program files (x86)\\cypress\\psoc creator\\4.2\\psoc creator\\import\\gnu\\arm\\5.4.
 362              		.file 10 "Generated_Source\\PSoC5/core_cm3.h"