ARM GAS  C:\Users\Admin\AppData\Local\Temp\ccY68vTi.s 			page 1


   1              		.syntax unified
   2              		.cpu cortex-m3
   3              		.fpu softvfp
   4              		.eabi_attribute 20, 1
   5              		.eabi_attribute 21, 1
   6              		.eabi_attribute 23, 3
   7              		.eabi_attribute 24, 1
   8              		.eabi_attribute 25, 1
   9              		.eabi_attribute 26, 1
  10              		.eabi_attribute 30, 6
  11              		.eabi_attribute 34, 1
  12              		.eabi_attribute 18, 4
  13              		.thumb
  14              		.syntax unified
  15              		.file	"cyfitter_cfg.c"
  16              		.text
  17              	.Ltext0:
  18              		.cfi_sections	.debug_frame
  19              		.bss
  20              	temp:
  21 0000 00       		.space	1
  22              		.section	.text.CYMEMZERO,"ax",%progbits
  23              		.align	2
  24              		.thumb
  25              		.thumb_func
  26              		.type	CYMEMZERO, %function
  27              	CYMEMZERO:
  28              	.LFB0:
  29              		.file 1 "Generated_Source\\PSoC5\\cyfitter_cfg.c"
   1:Generated_Source\PSoC5/cyfitter_cfg.c **** 
   2:Generated_Source\PSoC5/cyfitter_cfg.c **** /*******************************************************************************
   3:Generated_Source\PSoC5/cyfitter_cfg.c **** * File Name: cyfitter_cfg.c
   4:Generated_Source\PSoC5/cyfitter_cfg.c **** * 
   5:Generated_Source\PSoC5/cyfitter_cfg.c **** * PSoC Creator  4.3
   6:Generated_Source\PSoC5/cyfitter_cfg.c **** *
   7:Generated_Source\PSoC5/cyfitter_cfg.c **** * Description:
   8:Generated_Source\PSoC5/cyfitter_cfg.c **** * This file contains device initialization code.
   9:Generated_Source\PSoC5/cyfitter_cfg.c **** * Except for the user defined sections in CyClockStartupError(), this file should not be modified.
  10:Generated_Source\PSoC5/cyfitter_cfg.c **** * This file is automatically generated by PSoC Creator.
  11:Generated_Source\PSoC5/cyfitter_cfg.c **** *
  12:Generated_Source\PSoC5/cyfitter_cfg.c **** ********************************************************************************
  13:Generated_Source\PSoC5/cyfitter_cfg.c **** * Copyright (c) 2007-2019 Cypress Semiconductor.  All rights reserved.
  14:Generated_Source\PSoC5/cyfitter_cfg.c **** * You may use this file only in accordance with the license, terms, conditions, 
  15:Generated_Source\PSoC5/cyfitter_cfg.c **** * disclaimers, and limitations in the end user license agreement accompanying 
  16:Generated_Source\PSoC5/cyfitter_cfg.c **** * the software package with which this file was provided.
  17:Generated_Source\PSoC5/cyfitter_cfg.c **** ********************************************************************************/
  18:Generated_Source\PSoC5/cyfitter_cfg.c **** 
  19:Generated_Source\PSoC5/cyfitter_cfg.c **** #include <string.h>
  20:Generated_Source\PSoC5/cyfitter_cfg.c **** #include "cytypes.h"
  21:Generated_Source\PSoC5/cyfitter_cfg.c **** #include "cydevice_trm.h"
  22:Generated_Source\PSoC5/cyfitter_cfg.c **** #include "cyfitter.h"
  23:Generated_Source\PSoC5/cyfitter_cfg.c **** #include "CyLib.h"
  24:Generated_Source\PSoC5/cyfitter_cfg.c **** #include "cyfitter_cfg.h"
  25:Generated_Source\PSoC5/cyfitter_cfg.c **** #include "cyapicallbacks.h"
  26:Generated_Source\PSoC5/cyfitter_cfg.c **** 
  27:Generated_Source\PSoC5/cyfitter_cfg.c **** #define CY_NEED_CYCLOCKSTARTUPERROR 1
  28:Generated_Source\PSoC5/cyfitter_cfg.c **** 
ARM GAS  C:\Users\Admin\AppData\Local\Temp\ccY68vTi.s 			page 2


  29:Generated_Source\PSoC5/cyfitter_cfg.c **** 
  30:Generated_Source\PSoC5/cyfitter_cfg.c **** #if defined(__GNUC__) || defined(__ARMCC_VERSION)
  31:Generated_Source\PSoC5/cyfitter_cfg.c ****     #define CYPACKED 
  32:Generated_Source\PSoC5/cyfitter_cfg.c ****     #define CYPACKED_ATTR __attribute__ ((packed))
  33:Generated_Source\PSoC5/cyfitter_cfg.c ****     #define CYALIGNED __attribute__ ((aligned))
  34:Generated_Source\PSoC5/cyfitter_cfg.c ****     #define CY_CFG_UNUSED __attribute__ ((unused))
  35:Generated_Source\PSoC5/cyfitter_cfg.c ****     #ifndef CY_CFG_SECTION
  36:Generated_Source\PSoC5/cyfitter_cfg.c ****         #define CY_CFG_SECTION __attribute__ ((section(".psocinit")))
  37:Generated_Source\PSoC5/cyfitter_cfg.c ****     #endif
  38:Generated_Source\PSoC5/cyfitter_cfg.c ****     
  39:Generated_Source\PSoC5/cyfitter_cfg.c ****     #if defined(__ARMCC_VERSION)
  40:Generated_Source\PSoC5/cyfitter_cfg.c ****         #define CY_CFG_MEMORY_BARRIER() __memory_changed()
  41:Generated_Source\PSoC5/cyfitter_cfg.c ****     #else
  42:Generated_Source\PSoC5/cyfitter_cfg.c ****         #define CY_CFG_MEMORY_BARRIER() __sync_synchronize()
  43:Generated_Source\PSoC5/cyfitter_cfg.c ****     #endif
  44:Generated_Source\PSoC5/cyfitter_cfg.c ****     
  45:Generated_Source\PSoC5/cyfitter_cfg.c **** #elif defined(__ICCARM__)
  46:Generated_Source\PSoC5/cyfitter_cfg.c ****     #include <intrinsics.h>
  47:Generated_Source\PSoC5/cyfitter_cfg.c **** 
  48:Generated_Source\PSoC5/cyfitter_cfg.c ****     #define CYPACKED __packed
  49:Generated_Source\PSoC5/cyfitter_cfg.c ****     #define CYPACKED_ATTR 
  50:Generated_Source\PSoC5/cyfitter_cfg.c ****     #define CYALIGNED _Pragma("data_alignment=4")
  51:Generated_Source\PSoC5/cyfitter_cfg.c ****     #define CY_CFG_UNUSED _Pragma("diag_suppress=Pe177")
  52:Generated_Source\PSoC5/cyfitter_cfg.c ****     #define CY_CFG_SECTION _Pragma("location=\".psocinit\"")
  53:Generated_Source\PSoC5/cyfitter_cfg.c ****     
  54:Generated_Source\PSoC5/cyfitter_cfg.c ****     #define CY_CFG_MEMORY_BARRIER() __DMB()
  55:Generated_Source\PSoC5/cyfitter_cfg.c ****     
  56:Generated_Source\PSoC5/cyfitter_cfg.c **** #else
  57:Generated_Source\PSoC5/cyfitter_cfg.c ****     #error Unsupported toolchain
  58:Generated_Source\PSoC5/cyfitter_cfg.c **** #endif
  59:Generated_Source\PSoC5/cyfitter_cfg.c **** 
  60:Generated_Source\PSoC5/cyfitter_cfg.c **** #ifndef CYCODE
  61:Generated_Source\PSoC5/cyfitter_cfg.c ****     #define CYCODE
  62:Generated_Source\PSoC5/cyfitter_cfg.c **** #endif
  63:Generated_Source\PSoC5/cyfitter_cfg.c **** #ifndef CYDATA
  64:Generated_Source\PSoC5/cyfitter_cfg.c ****     #define CYDATA
  65:Generated_Source\PSoC5/cyfitter_cfg.c **** #endif
  66:Generated_Source\PSoC5/cyfitter_cfg.c **** #ifndef CYFAR
  67:Generated_Source\PSoC5/cyfitter_cfg.c ****     #define CYFAR
  68:Generated_Source\PSoC5/cyfitter_cfg.c **** #endif
  69:Generated_Source\PSoC5/cyfitter_cfg.c **** #ifndef CYXDATA
  70:Generated_Source\PSoC5/cyfitter_cfg.c ****     #define CYXDATA
  71:Generated_Source\PSoC5/cyfitter_cfg.c **** #endif
  72:Generated_Source\PSoC5/cyfitter_cfg.c **** 
  73:Generated_Source\PSoC5/cyfitter_cfg.c **** 
  74:Generated_Source\PSoC5/cyfitter_cfg.c **** CY_CFG_UNUSED
  75:Generated_Source\PSoC5/cyfitter_cfg.c **** static void CYMEMZERO(void *s, size_t n);
  76:Generated_Source\PSoC5/cyfitter_cfg.c **** CY_CFG_UNUSED
  77:Generated_Source\PSoC5/cyfitter_cfg.c **** static void CYMEMZERO(void *s, size_t n)
  78:Generated_Source\PSoC5/cyfitter_cfg.c **** {
  30              		.loc 1 78 0
  31              		.cfi_startproc
  32              		@ args = 0, pretend = 0, frame = 8
  33              		@ frame_needed = 1, uses_anonymous_args = 0
  34 0000 80B5     		push	{r7, lr}
  35              		.cfi_def_cfa_offset 8
  36              		.cfi_offset 7, -8
ARM GAS  C:\Users\Admin\AppData\Local\Temp\ccY68vTi.s 			page 3


  37              		.cfi_offset 14, -4
  38 0002 82B0     		sub	sp, sp, #8
  39              		.cfi_def_cfa_offset 16
  40 0004 00AF     		add	r7, sp, #0
  41              		.cfi_def_cfa_register 7
  42 0006 7860     		str	r0, [r7, #4]
  43 0008 3960     		str	r1, [r7]
  79:Generated_Source\PSoC5/cyfitter_cfg.c **** 	(void)memset(s, 0, n);
  44              		.loc 1 79 0
  45 000a 3A68     		ldr	r2, [r7]
  46 000c 0021     		movs	r1, #0
  47 000e 7868     		ldr	r0, [r7, #4]
  48 0010 FFF7FEFF 		bl	memset
  80:Generated_Source\PSoC5/cyfitter_cfg.c **** }
  49              		.loc 1 80 0
  50 0014 00BF     		nop
  51 0016 0837     		adds	r7, r7, #8
  52              		.cfi_def_cfa_offset 8
  53 0018 BD46     		mov	sp, r7
  54              		.cfi_def_cfa_register 13
  55              		@ sp needed
  56 001a 80BD     		pop	{r7, pc}
  57              		.cfi_endproc
  58              	.LFE0:
  59              		.size	CYMEMZERO, .-CYMEMZERO
  60              		.section	.text.CYCONFIGCPY,"ax",%progbits
  61              		.align	2
  62              		.thumb
  63              		.thumb_func
  64              		.type	CYCONFIGCPY, %function
  65              	CYCONFIGCPY:
  66              	.LFB1:
  81:Generated_Source\PSoC5/cyfitter_cfg.c **** CY_CFG_UNUSED
  82:Generated_Source\PSoC5/cyfitter_cfg.c **** static void CYCONFIGCPY(void *dest, const void *src, size_t n);
  83:Generated_Source\PSoC5/cyfitter_cfg.c **** CY_CFG_UNUSED
  84:Generated_Source\PSoC5/cyfitter_cfg.c **** static void CYCONFIGCPY(void *dest, const void *src, size_t n)
  85:Generated_Source\PSoC5/cyfitter_cfg.c **** {
  67              		.loc 1 85 0
  68              		.cfi_startproc
  69              		@ args = 0, pretend = 0, frame = 16
  70              		@ frame_needed = 1, uses_anonymous_args = 0
  71 0000 80B5     		push	{r7, lr}
  72              		.cfi_def_cfa_offset 8
  73              		.cfi_offset 7, -8
  74              		.cfi_offset 14, -4
  75 0002 84B0     		sub	sp, sp, #16
  76              		.cfi_def_cfa_offset 24
  77 0004 00AF     		add	r7, sp, #0
  78              		.cfi_def_cfa_register 7
  79 0006 F860     		str	r0, [r7, #12]
  80 0008 B960     		str	r1, [r7, #8]
  81 000a 7A60     		str	r2, [r7, #4]
  86:Generated_Source\PSoC5/cyfitter_cfg.c **** 	(void)memcpy(dest, src, n);
  82              		.loc 1 86 0
  83 000c 7A68     		ldr	r2, [r7, #4]
  84 000e B968     		ldr	r1, [r7, #8]
  85 0010 F868     		ldr	r0, [r7, #12]
ARM GAS  C:\Users\Admin\AppData\Local\Temp\ccY68vTi.s 			page 4


  86 0012 FFF7FEFF 		bl	memcpy
  87:Generated_Source\PSoC5/cyfitter_cfg.c **** }
  87              		.loc 1 87 0
  88 0016 00BF     		nop
  89 0018 1037     		adds	r7, r7, #16
  90              		.cfi_def_cfa_offset 8
  91 001a BD46     		mov	sp, r7
  92              		.cfi_def_cfa_register 13
  93              		@ sp needed
  94 001c 80BD     		pop	{r7, pc}
  95              		.cfi_endproc
  96              	.LFE1:
  97              		.size	CYCONFIGCPY, .-CYCONFIGCPY
  98 001e 00BF     		.section	.text.CYCONFIGCPYCODE,"ax",%progbits
  99              		.align	2
 100              		.thumb
 101              		.thumb_func
 102              		.type	CYCONFIGCPYCODE, %function
 103              	CYCONFIGCPYCODE:
 104              	.LFB2:
  88:Generated_Source\PSoC5/cyfitter_cfg.c **** CY_CFG_UNUSED
  89:Generated_Source\PSoC5/cyfitter_cfg.c **** static void CYCONFIGCPYCODE(void *dest, const void *src, size_t n);
  90:Generated_Source\PSoC5/cyfitter_cfg.c **** CY_CFG_UNUSED
  91:Generated_Source\PSoC5/cyfitter_cfg.c **** static void CYCONFIGCPYCODE(void *dest, const void *src, size_t n)
  92:Generated_Source\PSoC5/cyfitter_cfg.c **** {
 105              		.loc 1 92 0
 106              		.cfi_startproc
 107              		@ args = 0, pretend = 0, frame = 16
 108              		@ frame_needed = 1, uses_anonymous_args = 0
 109 0000 80B5     		push	{r7, lr}
 110              		.cfi_def_cfa_offset 8
 111              		.cfi_offset 7, -8
 112              		.cfi_offset 14, -4
 113 0002 84B0     		sub	sp, sp, #16
 114              		.cfi_def_cfa_offset 24
 115 0004 00AF     		add	r7, sp, #0
 116              		.cfi_def_cfa_register 7
 117 0006 F860     		str	r0, [r7, #12]
 118 0008 B960     		str	r1, [r7, #8]
 119 000a 7A60     		str	r2, [r7, #4]
  93:Generated_Source\PSoC5/cyfitter_cfg.c **** 	(void)memcpy(dest, src, n);
 120              		.loc 1 93 0
 121 000c 7A68     		ldr	r2, [r7, #4]
 122 000e B968     		ldr	r1, [r7, #8]
 123 0010 F868     		ldr	r0, [r7, #12]
 124 0012 FFF7FEFF 		bl	memcpy
  94:Generated_Source\PSoC5/cyfitter_cfg.c **** }
 125              		.loc 1 94 0
 126 0016 00BF     		nop
 127 0018 1037     		adds	r7, r7, #16
 128              		.cfi_def_cfa_offset 8
 129 001a BD46     		mov	sp, r7
 130              		.cfi_def_cfa_register 13
 131              		@ sp needed
 132 001c 80BD     		pop	{r7, pc}
 133              		.cfi_endproc
 134              	.LFE2:
ARM GAS  C:\Users\Admin\AppData\Local\Temp\ccY68vTi.s 			page 5


 135              		.size	CYCONFIGCPYCODE, .-CYCONFIGCPYCODE
 136 001e 00BF     		.section	.text.CyClockStartupError,"ax",%progbits
 137              		.align	2
 138              		.thumb
 139              		.thumb_func
 140              		.type	CyClockStartupError, %function
 141              	CyClockStartupError:
 142              	.LFB3:
  95:Generated_Source\PSoC5/cyfitter_cfg.c **** 
  96:Generated_Source\PSoC5/cyfitter_cfg.c **** 
  97:Generated_Source\PSoC5/cyfitter_cfg.c **** 
  98:Generated_Source\PSoC5/cyfitter_cfg.c **** 
  99:Generated_Source\PSoC5/cyfitter_cfg.c **** /* Clock startup error codes                                                   */
 100:Generated_Source\PSoC5/cyfitter_cfg.c **** #define CYCLOCKSTART_NO_ERROR    0u
 101:Generated_Source\PSoC5/cyfitter_cfg.c **** #define CYCLOCKSTART_XTAL_ERROR  1u
 102:Generated_Source\PSoC5/cyfitter_cfg.c **** #define CYCLOCKSTART_32KHZ_ERROR 2u
 103:Generated_Source\PSoC5/cyfitter_cfg.c **** #define CYCLOCKSTART_PLL_ERROR   3u
 104:Generated_Source\PSoC5/cyfitter_cfg.c **** #define CYCLOCKSTART_FLL_ERROR   4u
 105:Generated_Source\PSoC5/cyfitter_cfg.c **** #define CYCLOCKSTART_WCO_ERROR   5u
 106:Generated_Source\PSoC5/cyfitter_cfg.c **** 
 107:Generated_Source\PSoC5/cyfitter_cfg.c **** 
 108:Generated_Source\PSoC5/cyfitter_cfg.c **** #ifdef CY_NEED_CYCLOCKSTARTUPERROR
 109:Generated_Source\PSoC5/cyfitter_cfg.c **** /*******************************************************************************
 110:Generated_Source\PSoC5/cyfitter_cfg.c **** * Function Name: CyClockStartupError
 111:Generated_Source\PSoC5/cyfitter_cfg.c **** ********************************************************************************
 112:Generated_Source\PSoC5/cyfitter_cfg.c **** * Summary:
 113:Generated_Source\PSoC5/cyfitter_cfg.c **** *  If an error is encountered during clock configuration (crystal startup error,
 114:Generated_Source\PSoC5/cyfitter_cfg.c **** *  PLL lock error, etc.), the system will end up here.  Unless reimplemented by
 115:Generated_Source\PSoC5/cyfitter_cfg.c **** *  the customer, this function will stop in an infinite loop.
 116:Generated_Source\PSoC5/cyfitter_cfg.c **** *
 117:Generated_Source\PSoC5/cyfitter_cfg.c **** * Parameters:
 118:Generated_Source\PSoC5/cyfitter_cfg.c **** *   void
 119:Generated_Source\PSoC5/cyfitter_cfg.c **** *
 120:Generated_Source\PSoC5/cyfitter_cfg.c **** * Return:
 121:Generated_Source\PSoC5/cyfitter_cfg.c **** *   void
 122:Generated_Source\PSoC5/cyfitter_cfg.c **** *
 123:Generated_Source\PSoC5/cyfitter_cfg.c **** *******************************************************************************/
 124:Generated_Source\PSoC5/cyfitter_cfg.c **** CY_CFG_UNUSED
 125:Generated_Source\PSoC5/cyfitter_cfg.c **** static void CyClockStartupError(uint8 errorCode);
 126:Generated_Source\PSoC5/cyfitter_cfg.c **** CY_CFG_UNUSED
 127:Generated_Source\PSoC5/cyfitter_cfg.c **** static void CyClockStartupError(uint8 errorCode)
 128:Generated_Source\PSoC5/cyfitter_cfg.c **** {
 143              		.loc 1 128 0
 144              		.cfi_startproc
 145              		@ args = 0, pretend = 0, frame = 8
 146              		@ frame_needed = 1, uses_anonymous_args = 0
 147              		@ link register save eliminated.
 148 0000 80B4     		push	{r7}
 149              		.cfi_def_cfa_offset 4
 150              		.cfi_offset 7, -4
 151 0002 83B0     		sub	sp, sp, #12
 152              		.cfi_def_cfa_offset 16
 153 0004 00AF     		add	r7, sp, #0
 154              		.cfi_def_cfa_register 7
 155 0006 0346     		mov	r3, r0
 156 0008 FB71     		strb	r3, [r7, #7]
 157              	.L5:
ARM GAS  C:\Users\Admin\AppData\Local\Temp\ccY68vTi.s 			page 6


 129:Generated_Source\PSoC5/cyfitter_cfg.c ****     /* To remove the compiler warning if errorCode not used.                */
 130:Generated_Source\PSoC5/cyfitter_cfg.c ****     errorCode = errorCode;
 131:Generated_Source\PSoC5/cyfitter_cfg.c **** 
 132:Generated_Source\PSoC5/cyfitter_cfg.c ****     /* If we have a clock startup error (bad MHz crystal, PLL lock, etc.),  */
 133:Generated_Source\PSoC5/cyfitter_cfg.c ****     /* we will end up here to allow the customer to implement something to  */
 134:Generated_Source\PSoC5/cyfitter_cfg.c ****     /* deal with the clock condition.                                       */
 135:Generated_Source\PSoC5/cyfitter_cfg.c **** 
 136:Generated_Source\PSoC5/cyfitter_cfg.c **** #ifdef CY_CFG_CLOCK_STARTUP_ERROR_CALLBACK
 137:Generated_Source\PSoC5/cyfitter_cfg.c ****     CY_CFG_Clock_Startup_ErrorCallback();
 138:Generated_Source\PSoC5/cyfitter_cfg.c **** #else
 139:Generated_Source\PSoC5/cyfitter_cfg.c ****     /*  If not using CY_CFG_CLOCK_STARTUP_ERROR_CALLBACK, place your clock startup code here. */
 140:Generated_Source\PSoC5/cyfitter_cfg.c ****     /* `#START CyClockStartupError` */
 141:Generated_Source\PSoC5/cyfitter_cfg.c **** 
 142:Generated_Source\PSoC5/cyfitter_cfg.c **** 
 143:Generated_Source\PSoC5/cyfitter_cfg.c **** 
 144:Generated_Source\PSoC5/cyfitter_cfg.c ****     /* `#END` */
 145:Generated_Source\PSoC5/cyfitter_cfg.c **** 
 146:Generated_Source\PSoC5/cyfitter_cfg.c ****     while(1) {}
 158              		.loc 1 146 0 discriminator 1
 159 000a FEE7     		b	.L5
 160              		.cfi_endproc
 161              	.LFE3:
 162              		.size	CyClockStartupError, .-CyClockStartupError
 163              		.section	.text.cfg_write_bytes32,"ax",%progbits
 164              		.align	2
 165              		.thumb
 166              		.thumb_func
 167              		.type	cfg_write_bytes32, %function
 168              	cfg_write_bytes32:
 169              	.LFB4:
 147:Generated_Source\PSoC5/cyfitter_cfg.c **** #endif /* CY_CFG_CLOCK_STARTUP_ERROR_CALLBACK */
 148:Generated_Source\PSoC5/cyfitter_cfg.c **** }
 149:Generated_Source\PSoC5/cyfitter_cfg.c **** #endif
 150:Generated_Source\PSoC5/cyfitter_cfg.c **** 
 151:Generated_Source\PSoC5/cyfitter_cfg.c **** #define CY_CFG_BASE_ADDR_COUNT 16u
 152:Generated_Source\PSoC5/cyfitter_cfg.c **** CYPACKED typedef struct
 153:Generated_Source\PSoC5/cyfitter_cfg.c **** {
 154:Generated_Source\PSoC5/cyfitter_cfg.c **** 	uint8 offset;
 155:Generated_Source\PSoC5/cyfitter_cfg.c **** 	uint8 value;
 156:Generated_Source\PSoC5/cyfitter_cfg.c **** } CYPACKED_ATTR cy_cfg_addrvalue_t;
 157:Generated_Source\PSoC5/cyfitter_cfg.c **** 
 158:Generated_Source\PSoC5/cyfitter_cfg.c **** 
 159:Generated_Source\PSoC5/cyfitter_cfg.c **** 
 160:Generated_Source\PSoC5/cyfitter_cfg.c **** /*******************************************************************************
 161:Generated_Source\PSoC5/cyfitter_cfg.c **** * Function Name: cfg_write_bytes32
 162:Generated_Source\PSoC5/cyfitter_cfg.c **** ********************************************************************************
 163:Generated_Source\PSoC5/cyfitter_cfg.c **** * Summary:
 164:Generated_Source\PSoC5/cyfitter_cfg.c **** *  This function is used for setting up the chip configuration areas that
 165:Generated_Source\PSoC5/cyfitter_cfg.c **** *  contain relatively sparse data.
 166:Generated_Source\PSoC5/cyfitter_cfg.c **** *
 167:Generated_Source\PSoC5/cyfitter_cfg.c **** * Parameters:
 168:Generated_Source\PSoC5/cyfitter_cfg.c **** *   void
 169:Generated_Source\PSoC5/cyfitter_cfg.c **** *
 170:Generated_Source\PSoC5/cyfitter_cfg.c **** * Return:
 171:Generated_Source\PSoC5/cyfitter_cfg.c **** *   void
 172:Generated_Source\PSoC5/cyfitter_cfg.c **** *
 173:Generated_Source\PSoC5/cyfitter_cfg.c **** *******************************************************************************/
ARM GAS  C:\Users\Admin\AppData\Local\Temp\ccY68vTi.s 			page 7


 174:Generated_Source\PSoC5/cyfitter_cfg.c **** static void cfg_write_bytes32(const uint32 addr_table[], const cy_cfg_addrvalue_t data_table[]);
 175:Generated_Source\PSoC5/cyfitter_cfg.c **** static void cfg_write_bytes32(const uint32 addr_table[], const cy_cfg_addrvalue_t data_table[])
 176:Generated_Source\PSoC5/cyfitter_cfg.c **** {
 170              		.loc 1 176 0
 171              		.cfi_startproc
 172              		@ args = 0, pretend = 0, frame = 24
 173              		@ frame_needed = 1, uses_anonymous_args = 0
 174              		@ link register save eliminated.
 175 0000 80B4     		push	{r7}
 176              		.cfi_def_cfa_offset 4
 177              		.cfi_offset 7, -4
 178 0002 87B0     		sub	sp, sp, #28
 179              		.cfi_def_cfa_offset 32
 180 0004 00AF     		add	r7, sp, #0
 181              		.cfi_def_cfa_register 7
 182 0006 7860     		str	r0, [r7, #4]
 183 0008 3960     		str	r1, [r7]
 177:Generated_Source\PSoC5/cyfitter_cfg.c **** 	/* For 32-bit little-endian architectures */
 178:Generated_Source\PSoC5/cyfitter_cfg.c **** 	uint32 i, j = 0u;
 184              		.loc 1 178 0
 185 000a 0023     		movs	r3, #0
 186 000c 3B61     		str	r3, [r7, #16]
 179:Generated_Source\PSoC5/cyfitter_cfg.c **** 	for (i = 0u; i < CY_CFG_BASE_ADDR_COUNT; i++)
 187              		.loc 1 179 0
 188 000e 0023     		movs	r3, #0
 189 0010 7B61     		str	r3, [r7, #20]
 190 0012 27E0     		b	.L7
 191              	.L10:
 192              	.LBB2:
 180:Generated_Source\PSoC5/cyfitter_cfg.c **** 	{
 181:Generated_Source\PSoC5/cyfitter_cfg.c **** 		uint32 baseAddr = addr_table[i];
 193              		.loc 1 181 0
 194 0014 7B69     		ldr	r3, [r7, #20]
 195 0016 9B00     		lsls	r3, r3, #2
 196 0018 7A68     		ldr	r2, [r7, #4]
 197 001a 1344     		add	r3, r3, r2
 198 001c 1B68     		ldr	r3, [r3]
 199 001e BB60     		str	r3, [r7, #8]
 182:Generated_Source\PSoC5/cyfitter_cfg.c **** 		uint8 count = (uint8)baseAddr;
 200              		.loc 1 182 0
 201 0020 BB68     		ldr	r3, [r7, #8]
 202 0022 FB73     		strb	r3, [r7, #15]
 183:Generated_Source\PSoC5/cyfitter_cfg.c **** 		baseAddr &= 0xFFFFFF00u;
 203              		.loc 1 183 0
 204 0024 BB68     		ldr	r3, [r7, #8]
 205 0026 23F0FF03 		bic	r3, r3, #255
 206 002a BB60     		str	r3, [r7, #8]
 184:Generated_Source\PSoC5/cyfitter_cfg.c **** 		while (count != 0u)
 207              		.loc 1 184 0
 208 002c 14E0     		b	.L8
 209              	.L9:
 185:Generated_Source\PSoC5/cyfitter_cfg.c **** 		{
 186:Generated_Source\PSoC5/cyfitter_cfg.c **** 			CY_SET_REG8((void *)(baseAddr + data_table[j].offset), data_table[j].value);
 210              		.loc 1 186 0
 211 002e 3B69     		ldr	r3, [r7, #16]
 212 0030 5B00     		lsls	r3, r3, #1
 213 0032 3A68     		ldr	r2, [r7]
ARM GAS  C:\Users\Admin\AppData\Local\Temp\ccY68vTi.s 			page 8


 214 0034 1344     		add	r3, r3, r2
 215 0036 1B78     		ldrb	r3, [r3]	@ zero_extendqisi2
 216 0038 1A46     		mov	r2, r3
 217 003a BB68     		ldr	r3, [r7, #8]
 218 003c 1344     		add	r3, r3, r2
 219 003e 1946     		mov	r1, r3
 220 0040 3B69     		ldr	r3, [r7, #16]
 221 0042 5B00     		lsls	r3, r3, #1
 222 0044 3A68     		ldr	r2, [r7]
 223 0046 1344     		add	r3, r3, r2
 224 0048 5B78     		ldrb	r3, [r3, #1]	@ zero_extendqisi2
 225 004a 0B70     		strb	r3, [r1]
 187:Generated_Source\PSoC5/cyfitter_cfg.c **** 			j++;
 226              		.loc 1 187 0
 227 004c 3B69     		ldr	r3, [r7, #16]
 228 004e 0133     		adds	r3, r3, #1
 229 0050 3B61     		str	r3, [r7, #16]
 188:Generated_Source\PSoC5/cyfitter_cfg.c **** 			count--;
 230              		.loc 1 188 0
 231 0052 FB7B     		ldrb	r3, [r7, #15]	@ zero_extendqisi2
 232 0054 013B     		subs	r3, r3, #1
 233 0056 FB73     		strb	r3, [r7, #15]
 234              	.L8:
 184:Generated_Source\PSoC5/cyfitter_cfg.c **** 		{
 235              		.loc 1 184 0
 236 0058 FB7B     		ldrb	r3, [r7, #15]	@ zero_extendqisi2
 237 005a 002B     		cmp	r3, #0
 238 005c E7D1     		bne	.L9
 239              	.LBE2:
 179:Generated_Source\PSoC5/cyfitter_cfg.c **** 	{
 240              		.loc 1 179 0 discriminator 2
 241 005e 7B69     		ldr	r3, [r7, #20]
 242 0060 0133     		adds	r3, r3, #1
 243 0062 7B61     		str	r3, [r7, #20]
 244              	.L7:
 179:Generated_Source\PSoC5/cyfitter_cfg.c **** 	{
 245              		.loc 1 179 0 is_stmt 0 discriminator 1
 246 0064 7B69     		ldr	r3, [r7, #20]
 247 0066 0F2B     		cmp	r3, #15
 248 0068 D4D9     		bls	.L10
 189:Generated_Source\PSoC5/cyfitter_cfg.c **** 		}
 190:Generated_Source\PSoC5/cyfitter_cfg.c **** 	}
 191:Generated_Source\PSoC5/cyfitter_cfg.c **** }
 249              		.loc 1 191 0 is_stmt 1
 250 006a 00BF     		nop
 251 006c 1C37     		adds	r7, r7, #28
 252              		.cfi_def_cfa_offset 4
 253 006e BD46     		mov	sp, r7
 254              		.cfi_def_cfa_register 13
 255              		@ sp needed
 256 0070 80BC     		pop	{r7}
 257              		.cfi_restore 7
 258              		.cfi_def_cfa_offset 0
 259 0072 7047     		bx	lr
 260              		.cfi_endproc
 261              	.LFE4:
 262              		.size	cfg_write_bytes32, .-cfg_write_bytes32
ARM GAS  C:\Users\Admin\AppData\Local\Temp\ccY68vTi.s 			page 9


 263              		.section	.text.ClockSetup,"ax",%progbits
 264              		.align	2
 265              		.thumb
 266              		.thumb_func
 267              		.type	ClockSetup, %function
 268              	ClockSetup:
 269              	.LFB5:
 192:Generated_Source\PSoC5/cyfitter_cfg.c **** 
 193:Generated_Source\PSoC5/cyfitter_cfg.c **** /*******************************************************************************
 194:Generated_Source\PSoC5/cyfitter_cfg.c **** * Function Name: ClockSetup
 195:Generated_Source\PSoC5/cyfitter_cfg.c **** ********************************************************************************
 196:Generated_Source\PSoC5/cyfitter_cfg.c **** *
 197:Generated_Source\PSoC5/cyfitter_cfg.c **** * Summary:
 198:Generated_Source\PSoC5/cyfitter_cfg.c **** *  Performs the initialization of all of the clocks in the device based on the
 199:Generated_Source\PSoC5/cyfitter_cfg.c **** *  settings in the Clock tab of the DWR.  This includes enabling the requested
 200:Generated_Source\PSoC5/cyfitter_cfg.c **** *  clocks and setting the necessary dividers to produce the desired frequency. 
 201:Generated_Source\PSoC5/cyfitter_cfg.c **** *
 202:Generated_Source\PSoC5/cyfitter_cfg.c **** * Parameters:
 203:Generated_Source\PSoC5/cyfitter_cfg.c **** *  void
 204:Generated_Source\PSoC5/cyfitter_cfg.c **** *
 205:Generated_Source\PSoC5/cyfitter_cfg.c **** * Return:
 206:Generated_Source\PSoC5/cyfitter_cfg.c **** *  void
 207:Generated_Source\PSoC5/cyfitter_cfg.c **** *
 208:Generated_Source\PSoC5/cyfitter_cfg.c **** *******************************************************************************/
 209:Generated_Source\PSoC5/cyfitter_cfg.c **** static void ClockSetup(void);
 210:Generated_Source\PSoC5/cyfitter_cfg.c **** static void ClockSetup(void)
 211:Generated_Source\PSoC5/cyfitter_cfg.c **** {
 270              		.loc 1 211 0
 271              		.cfi_startproc
 272              		@ args = 0, pretend = 0, frame = 8
 273              		@ frame_needed = 1, uses_anonymous_args = 0
 274 0000 80B5     		push	{r7, lr}
 275              		.cfi_def_cfa_offset 8
 276              		.cfi_offset 7, -8
 277              		.cfi_offset 14, -4
 278 0002 82B0     		sub	sp, sp, #8
 279              		.cfi_def_cfa_offset 16
 280 0004 00AF     		add	r7, sp, #0
 281              		.cfi_def_cfa_register 7
 212:Generated_Source\PSoC5/cyfitter_cfg.c **** 	uint8 x32TrHold;
 213:Generated_Source\PSoC5/cyfitter_cfg.c **** 	uint32 timeout;
 214:Generated_Source\PSoC5/cyfitter_cfg.c **** 	uint8 pllLock;
 215:Generated_Source\PSoC5/cyfitter_cfg.c **** 
 216:Generated_Source\PSoC5/cyfitter_cfg.c **** 	x32TrHold = CY_GET_XTND_REG8((void CYFAR *)CYREG_X32_TR);
 282              		.loc 1 216 0
 283 0006 444B     		ldr	r3, .L19
 284 0008 1B78     		ldrb	r3, [r3]
 285 000a BB70     		strb	r3, [r7, #2]
 217:Generated_Source\PSoC5/cyfitter_cfg.c **** 
 218:Generated_Source\PSoC5/cyfitter_cfg.c **** 	/* Configure Digital Clocks based on settings from Clock DWR */
 219:Generated_Source\PSoC5/cyfitter_cfg.c **** 	CY_SET_XTND_REG16((void CYFAR *)(CYREG_CLKDIST_DCFG0_CFG0), 0x0067u);
 286              		.loc 1 219 0
 287 000c 434B     		ldr	r3, .L19+4
 288 000e 6722     		movs	r2, #103
 289 0010 1A80     		strh	r2, [r3]	@ movhi
 220:Generated_Source\PSoC5/cyfitter_cfg.c **** 	CY_SET_XTND_REG8((void CYFAR *)(CYREG_CLKDIST_DCFG0_CFG0 + 0x2u), 0x18u);
 290              		.loc 1 220 0
ARM GAS  C:\Users\Admin\AppData\Local\Temp\ccY68vTi.s 			page 10


 291 0012 434B     		ldr	r3, .L19+8
 292 0014 1822     		movs	r2, #24
 293 0016 1A70     		strb	r2, [r3]
 221:Generated_Source\PSoC5/cyfitter_cfg.c **** 
 222:Generated_Source\PSoC5/cyfitter_cfg.c **** 	/* Configure ILO based on settings from Clock DWR */
 223:Generated_Source\PSoC5/cyfitter_cfg.c **** 	CY_SET_XTND_REG8((void CYFAR *)(CYREG_SLOWCLK_ILO_CR0), 0x02u);
 294              		.loc 1 223 0
 295 0018 424B     		ldr	r3, .L19+12
 296 001a 0222     		movs	r2, #2
 297 001c 1A70     		strb	r2, [r3]
 224:Generated_Source\PSoC5/cyfitter_cfg.c **** 	CY_SET_XTND_REG8((void CYFAR *)(CYREG_CLKDIST_CR), 0x08u);
 298              		.loc 1 224 0
 299 001e 4FF04023 		mov	r3, #1073758208
 300 0022 0822     		movs	r2, #8
 301 0024 1A70     		strb	r2, [r3]
 225:Generated_Source\PSoC5/cyfitter_cfg.c **** 
 226:Generated_Source\PSoC5/cyfitter_cfg.c **** 	/* Configure XTAL 32kHz based on settings from Clock DWR */
 227:Generated_Source\PSoC5/cyfitter_cfg.c **** 	CY_SET_XTND_REG8((void CYFAR *)(CYREG_SLOWCLK_X32_TST), 0xF3u);
 302              		.loc 1 227 0
 303 0026 404B     		ldr	r3, .L19+16
 304 0028 F322     		movs	r2, #243
 305 002a 1A70     		strb	r2, [r3]
 228:Generated_Source\PSoC5/cyfitter_cfg.c **** 	CY_SET_XTND_REG8((void CYFAR *)(CYREG_X32_TR), 0x03u);
 306              		.loc 1 228 0
 307 002c 3A4B     		ldr	r3, .L19
 308 002e 0322     		movs	r2, #3
 309 0030 1A70     		strb	r2, [r3]
 229:Generated_Source\PSoC5/cyfitter_cfg.c **** 	CY_SET_XTND_REG8((void CYFAR *)(CYREG_SLOWCLK_X32_CFG), 0x84u);
 310              		.loc 1 229 0
 311 0032 3E4B     		ldr	r3, .L19+20
 312 0034 8422     		movs	r2, #132
 313 0036 1A70     		strb	r2, [r3]
 230:Generated_Source\PSoC5/cyfitter_cfg.c **** 	CY_SET_XTND_REG8((void CYFAR *)(CYREG_SLOWCLK_X32_CR), 0x05u);
 314              		.loc 1 230 0
 315 0038 3D4B     		ldr	r3, .L19+24
 316 003a 0522     		movs	r2, #5
 317 003c 1A70     		strb	r2, [r3]
 231:Generated_Source\PSoC5/cyfitter_cfg.c **** 	/* Wait up to 1000000us for the XTAL 32kHz to lock */
 232:Generated_Source\PSoC5/cyfitter_cfg.c **** 	for (timeout = 1000000u / 10u; (timeout > 0u) && ((CY_GET_XTND_REG8((void CYFAR *)CYREG_SLOWCLK_X3
 318              		.loc 1 232 0
 319 003e 3D4B     		ldr	r3, .L19+28
 320 0040 7B60     		str	r3, [r7, #4]
 321 0042 06E0     		b	.L12
 322              	.L14:
 233:Generated_Source\PSoC5/cyfitter_cfg.c **** 	{ 
 234:Generated_Source\PSoC5/cyfitter_cfg.c **** 		
 235:Generated_Source\PSoC5/cyfitter_cfg.c **** 		CyDelayCycles(10u * 48u); /* Delay 10us based on 48MHz clock */
 323              		.loc 1 235 0 discriminator 4
 324 0044 4FF4F070 		mov	r0, #480
 325 0048 FFF7FEFF 		bl	CyDelayCycles
 232:Generated_Source\PSoC5/cyfitter_cfg.c **** 	{ 
 326              		.loc 1 232 0 discriminator 4
 327 004c 7B68     		ldr	r3, [r7, #4]
 328 004e 013B     		subs	r3, r3, #1
 329 0050 7B60     		str	r3, [r7, #4]
 330              	.L12:
 232:Generated_Source\PSoC5/cyfitter_cfg.c **** 	{ 
ARM GAS  C:\Users\Admin\AppData\Local\Temp\ccY68vTi.s 			page 11


 331              		.loc 1 232 0 is_stmt 0 discriminator 1
 332 0052 7B68     		ldr	r3, [r7, #4]
 333 0054 002B     		cmp	r3, #0
 334 0056 06D0     		beq	.L13
 232:Generated_Source\PSoC5/cyfitter_cfg.c **** 	{ 
 335              		.loc 1 232 0 discriminator 3
 336 0058 354B     		ldr	r3, .L19+24
 337 005a 1B78     		ldrb	r3, [r3]
 338 005c DBB2     		uxtb	r3, r3
 339 005e 03F02003 		and	r3, r3, #32
 340 0062 002B     		cmp	r3, #0
 341 0064 EED0     		beq	.L14
 342              	.L13:
 236:Generated_Source\PSoC5/cyfitter_cfg.c **** 	}
 237:Generated_Source\PSoC5/cyfitter_cfg.c **** 	CY_SET_XTND_REG8((void CYFAR *)(CYREG_X32_TR), (x32TrHold));
 343              		.loc 1 237 0 is_stmt 1
 344 0066 2C4A     		ldr	r2, .L19
 345 0068 BB78     		ldrb	r3, [r7, #2]
 346 006a 1370     		strb	r3, [r2]
 238:Generated_Source\PSoC5/cyfitter_cfg.c **** 
 239:Generated_Source\PSoC5/cyfitter_cfg.c **** 	/* Configure IMO based on settings from Clock DWR */
 240:Generated_Source\PSoC5/cyfitter_cfg.c **** 	CY_SET_XTND_REG8((void CYFAR *)(CYREG_FASTCLK_IMO_CR), 0x01u);
 347              		.loc 1 240 0
 348 006c 324B     		ldr	r3, .L19+32
 349 006e 0122     		movs	r2, #1
 350 0070 1A70     		strb	r2, [r3]
 241:Generated_Source\PSoC5/cyfitter_cfg.c **** 	CY_SET_XTND_REG8((void CYFAR *)(CYREG_IMO_TR1), (CY_GET_XTND_REG8((void CYFAR *)CYREG_FLSHID_CUST_
 351              		.loc 1 241 0
 352 0072 324B     		ldr	r3, .L19+36
 353 0074 324A     		ldr	r2, .L19+40
 354 0076 1278     		ldrb	r2, [r2]
 355 0078 D2B2     		uxtb	r2, r2
 356 007a 1A70     		strb	r2, [r3]
 242:Generated_Source\PSoC5/cyfitter_cfg.c **** 
 243:Generated_Source\PSoC5/cyfitter_cfg.c **** 	/* Configure PLL based on settings from Clock DWR */
 244:Generated_Source\PSoC5/cyfitter_cfg.c **** 	CY_SET_XTND_REG16((void CYFAR *)(CYREG_FASTCLK_PLL_P), 0x0110u);
 357              		.loc 1 244 0
 358 007c 314B     		ldr	r3, .L19+44
 359 007e 4FF48872 		mov	r2, #272
 360 0082 1A80     		strh	r2, [r3]	@ movhi
 245:Generated_Source\PSoC5/cyfitter_cfg.c **** 	CY_SET_XTND_REG16((void CYFAR *)(CYREG_FASTCLK_PLL_CFG0), 0x1251u);
 361              		.loc 1 245 0
 362 0084 304B     		ldr	r3, .L19+48
 363 0086 41F25122 		movw	r2, #4689
 364 008a 1A80     		strh	r2, [r3]	@ movhi
 246:Generated_Source\PSoC5/cyfitter_cfg.c **** 	/* Wait up to 250us for the PLL to lock */
 247:Generated_Source\PSoC5/cyfitter_cfg.c **** 	pllLock = 0u;
 365              		.loc 1 247 0
 366 008c 0023     		movs	r3, #0
 367 008e FB70     		strb	r3, [r7, #3]
 248:Generated_Source\PSoC5/cyfitter_cfg.c **** 	for (timeout = 250u / 10u; (timeout > 0u) && (pllLock != 0x03u); timeout--)
 368              		.loc 1 248 0
 369 0090 1923     		movs	r3, #25
 370 0092 7B60     		str	r3, [r7, #4]
 371 0094 14E0     		b	.L15
 372              	.L17:
 249:Generated_Source\PSoC5/cyfitter_cfg.c **** 	{ 
ARM GAS  C:\Users\Admin\AppData\Local\Temp\ccY68vTi.s 			page 12


 250:Generated_Source\PSoC5/cyfitter_cfg.c **** 		pllLock = 0x03u & ((uint8)((uint8)pllLock << 1) | ((CY_GET_XTND_REG8((void CYFAR *)CYREG_FASTCLK_
 373              		.loc 1 250 0 discriminator 4
 374 0096 FB78     		ldrb	r3, [r7, #3]
 375 0098 5B00     		lsls	r3, r3, #1
 376 009a DAB2     		uxtb	r2, r3
 377 009c 2B4B     		ldr	r3, .L19+52
 378 009e 1B78     		ldrb	r3, [r3]
 379 00a0 DBB2     		uxtb	r3, r3
 380 00a2 03F00103 		and	r3, r3, #1
 381 00a6 DBB2     		uxtb	r3, r3
 382 00a8 1343     		orrs	r3, r3, r2
 383 00aa DBB2     		uxtb	r3, r3
 384 00ac 03F00303 		and	r3, r3, #3
 385 00b0 FB70     		strb	r3, [r7, #3]
 251:Generated_Source\PSoC5/cyfitter_cfg.c **** 		CyDelayCycles(10u * 48u); /* Delay 10us based on 48MHz clock */
 386              		.loc 1 251 0 discriminator 4
 387 00b2 4FF4F070 		mov	r0, #480
 388 00b6 FFF7FEFF 		bl	CyDelayCycles
 248:Generated_Source\PSoC5/cyfitter_cfg.c **** 	for (timeout = 250u / 10u; (timeout > 0u) && (pllLock != 0x03u); timeout--)
 389              		.loc 1 248 0 discriminator 4
 390 00ba 7B68     		ldr	r3, [r7, #4]
 391 00bc 013B     		subs	r3, r3, #1
 392 00be 7B60     		str	r3, [r7, #4]
 393              	.L15:
 248:Generated_Source\PSoC5/cyfitter_cfg.c **** 	for (timeout = 250u / 10u; (timeout > 0u) && (pllLock != 0x03u); timeout--)
 394              		.loc 1 248 0 is_stmt 0 discriminator 1
 395 00c0 7B68     		ldr	r3, [r7, #4]
 396 00c2 002B     		cmp	r3, #0
 397 00c4 02D0     		beq	.L16
 248:Generated_Source\PSoC5/cyfitter_cfg.c **** 	for (timeout = 250u / 10u; (timeout > 0u) && (pllLock != 0x03u); timeout--)
 398              		.loc 1 248 0 discriminator 3
 399 00c6 FB78     		ldrb	r3, [r7, #3]	@ zero_extendqisi2
 400 00c8 032B     		cmp	r3, #3
 401 00ca E4D1     		bne	.L17
 402              	.L16:
 252:Generated_Source\PSoC5/cyfitter_cfg.c **** 	}
 253:Generated_Source\PSoC5/cyfitter_cfg.c **** 	/* If we ran out of time the PLL didn't lock so go to the error function */
 254:Generated_Source\PSoC5/cyfitter_cfg.c **** 	if (timeout == 0u)
 403              		.loc 1 254 0 is_stmt 1
 404 00cc 7B68     		ldr	r3, [r7, #4]
 405 00ce 002B     		cmp	r3, #0
 406 00d0 02D1     		bne	.L18
 255:Generated_Source\PSoC5/cyfitter_cfg.c **** 	{
 256:Generated_Source\PSoC5/cyfitter_cfg.c **** 		CyClockStartupError(CYCLOCKSTART_PLL_ERROR);
 407              		.loc 1 256 0
 408 00d2 0320     		movs	r0, #3
 409 00d4 FFF7FEFF 		bl	CyClockStartupError
 410              	.L18:
 257:Generated_Source\PSoC5/cyfitter_cfg.c **** 	}
 258:Generated_Source\PSoC5/cyfitter_cfg.c **** 
 259:Generated_Source\PSoC5/cyfitter_cfg.c **** 	/* Configure Bus/Master Clock based on settings from Clock DWR */
 260:Generated_Source\PSoC5/cyfitter_cfg.c **** 	CY_SET_XTND_REG16((void CYFAR *)(CYREG_CLKDIST_MSTR0), 0x0100u);
 411              		.loc 1 260 0
 412 00d8 1D4B     		ldr	r3, .L19+56
 413 00da 4FF48072 		mov	r2, #256
 414 00de 1A80     		strh	r2, [r3]	@ movhi
 261:Generated_Source\PSoC5/cyfitter_cfg.c **** 	CY_SET_XTND_REG8((void CYFAR *)(CYREG_CLKDIST_MSTR0), 0x07u);
ARM GAS  C:\Users\Admin\AppData\Local\Temp\ccY68vTi.s 			page 13


 415              		.loc 1 261 0
 416 00e0 1B4B     		ldr	r3, .L19+56
 417 00e2 0722     		movs	r2, #7
 418 00e4 1A70     		strb	r2, [r3]
 262:Generated_Source\PSoC5/cyfitter_cfg.c **** 	CY_SET_XTND_REG8((void CYFAR *)(CYREG_CLKDIST_BCFG0), 0x00u);
 419              		.loc 1 262 0
 420 00e6 1B4B     		ldr	r3, .L19+60
 421 00e8 0022     		movs	r2, #0
 422 00ea 1A70     		strb	r2, [r3]
 263:Generated_Source\PSoC5/cyfitter_cfg.c **** 	CY_SET_XTND_REG8((void CYFAR *)(CYREG_CLKDIST_BCFG2), 0x48u);
 423              		.loc 1 263 0
 424 00ec 1A4B     		ldr	r3, .L19+64
 425 00ee 4822     		movs	r2, #72
 426 00f0 1A70     		strb	r2, [r3]
 264:Generated_Source\PSoC5/cyfitter_cfg.c **** 	CY_SET_XTND_REG8((void CYFAR *)(CYREG_CLKDIST_MSTR0), 0x00u);
 427              		.loc 1 264 0
 428 00f2 174B     		ldr	r3, .L19+56
 429 00f4 0022     		movs	r2, #0
 430 00f6 1A70     		strb	r2, [r3]
 265:Generated_Source\PSoC5/cyfitter_cfg.c **** 	CY_SET_XTND_REG8((void CYFAR *)(CYREG_CLKDIST_LD), 0x02u);
 431              		.loc 1 265 0
 432 00f8 184B     		ldr	r3, .L19+68
 433 00fa 0222     		movs	r2, #2
 434 00fc 1A70     		strb	r2, [r3]
 266:Generated_Source\PSoC5/cyfitter_cfg.c **** 
 267:Generated_Source\PSoC5/cyfitter_cfg.c **** 	CY_SET_XTND_REG8((void CYFAR *)(CYREG_PM_ACT_CFG2), ((CY_GET_XTND_REG8((void CYFAR *)CYREG_PM_ACT_
 435              		.loc 1 267 0
 436 00fe 184A     		ldr	r2, .L19+72
 437 0100 174B     		ldr	r3, .L19+72
 438 0102 1B78     		ldrb	r3, [r3]
 439 0104 DBB2     		uxtb	r3, r3
 440 0106 43F00103 		orr	r3, r3, #1
 441 010a DBB2     		uxtb	r3, r3
 442 010c 1370     		strb	r3, [r2]
 268:Generated_Source\PSoC5/cyfitter_cfg.c **** }
 443              		.loc 1 268 0
 444 010e 00BF     		nop
 445 0110 0837     		adds	r7, r7, #8
 446              		.cfi_def_cfa_offset 8
 447 0112 BD46     		mov	sp, r7
 448              		.cfi_def_cfa_register 13
 449              		@ sp needed
 450 0114 80BD     		pop	{r7, pc}
 451              	.L20:
 452 0116 00BF     		.align	2
 453              	.L19:
 454 0118 98460040 		.word	1073759896
 455 011c 80400040 		.word	1073758336
 456 0120 82400040 		.word	1073758338
 457 0124 00430040 		.word	1073758976
 458 0128 0A430040 		.word	1073758986
 459 012c 09430040 		.word	1073758985
 460 0130 08430040 		.word	1073758984
 461 0134 A0860100 		.word	100000
 462 0138 00420040 		.word	1073758720
 463 013c A1460040 		.word	1073759905
 464 0140 09010049 		.word	1224737033
ARM GAS  C:\Users\Admin\AppData\Local\Temp\ccY68vTi.s 			page 14


 465 0144 22420040 		.word	1073758754
 466 0148 20420040 		.word	1073758752
 467 014c 25420040 		.word	1073758757
 468 0150 04400040 		.word	1073758212
 469 0154 06400040 		.word	1073758214
 470 0158 08400040 		.word	1073758216
 471 015c 01400040 		.word	1073758209
 472 0160 A2430040 		.word	1073759138
 473              		.cfi_endproc
 474              	.LFE5:
 475              		.size	ClockSetup, .-ClockSetup
 476              		.section	.text.AnalogSetDefault,"ax",%progbits
 477              		.align	2
 478              		.thumb
 479              		.thumb_func
 480              		.type	AnalogSetDefault, %function
 481              	AnalogSetDefault:
 482              	.LFB6:
 269:Generated_Source\PSoC5/cyfitter_cfg.c **** 
 270:Generated_Source\PSoC5/cyfitter_cfg.c **** 
 271:Generated_Source\PSoC5/cyfitter_cfg.c **** /* Analog API Functions */
 272:Generated_Source\PSoC5/cyfitter_cfg.c **** 
 273:Generated_Source\PSoC5/cyfitter_cfg.c **** 
 274:Generated_Source\PSoC5/cyfitter_cfg.c **** /*******************************************************************************
 275:Generated_Source\PSoC5/cyfitter_cfg.c **** * Function Name: AnalogSetDefault
 276:Generated_Source\PSoC5/cyfitter_cfg.c **** ********************************************************************************
 277:Generated_Source\PSoC5/cyfitter_cfg.c **** *
 278:Generated_Source\PSoC5/cyfitter_cfg.c **** * Summary:
 279:Generated_Source\PSoC5/cyfitter_cfg.c **** *  Sets up the analog portions of the chip to default values based on chip
 280:Generated_Source\PSoC5/cyfitter_cfg.c **** *  configuration options from the project.
 281:Generated_Source\PSoC5/cyfitter_cfg.c **** *
 282:Generated_Source\PSoC5/cyfitter_cfg.c **** * Parameters:
 283:Generated_Source\PSoC5/cyfitter_cfg.c **** *  void
 284:Generated_Source\PSoC5/cyfitter_cfg.c **** *
 285:Generated_Source\PSoC5/cyfitter_cfg.c **** * Return:
 286:Generated_Source\PSoC5/cyfitter_cfg.c **** *  void
 287:Generated_Source\PSoC5/cyfitter_cfg.c **** *
 288:Generated_Source\PSoC5/cyfitter_cfg.c **** *******************************************************************************/
 289:Generated_Source\PSoC5/cyfitter_cfg.c **** static void AnalogSetDefault(void);
 290:Generated_Source\PSoC5/cyfitter_cfg.c **** static void AnalogSetDefault(void)
 291:Generated_Source\PSoC5/cyfitter_cfg.c **** {
 483              		.loc 1 291 0
 484              		.cfi_startproc
 485              		@ args = 0, pretend = 0, frame = 8
 486              		@ frame_needed = 1, uses_anonymous_args = 0
 487              		@ link register save eliminated.
 488 0000 80B4     		push	{r7}
 489              		.cfi_def_cfa_offset 4
 490              		.cfi_offset 7, -4
 491 0002 83B0     		sub	sp, sp, #12
 492              		.cfi_def_cfa_offset 16
 493 0004 00AF     		add	r7, sp, #0
 494              		.cfi_def_cfa_register 7
 292:Generated_Source\PSoC5/cyfitter_cfg.c **** 	uint8 bg_xover_inl_trim = CY_GET_XTND_REG8((void CYFAR *)(CYREG_FLSHID_MFG_CFG_BG_XOVER_INL_TRIM +
 495              		.loc 1 292 0
 496 0006 0B4B     		ldr	r3, .L22
 497 0008 1B78     		ldrb	r3, [r3]
ARM GAS  C:\Users\Admin\AppData\Local\Temp\ccY68vTi.s 			page 15


 498 000a FB71     		strb	r3, [r7, #7]
 293:Generated_Source\PSoC5/cyfitter_cfg.c **** 	CY_SET_XTND_REG8((void CYFAR *)(CYREG_BG_DFT0), (bg_xover_inl_trim & 0x07u));
 499              		.loc 1 293 0
 500 000c 0A4A     		ldr	r2, .L22+4
 501 000e FB79     		ldrb	r3, [r7, #7]
 502 0010 03F00703 		and	r3, r3, #7
 503 0014 DBB2     		uxtb	r3, r3
 504 0016 1370     		strb	r3, [r2]
 294:Generated_Source\PSoC5/cyfitter_cfg.c **** 	CY_SET_XTND_REG8((void CYFAR *)(CYREG_BG_DFT1), ((bg_xover_inl_trim >> 4) & 0x0Fu));
 505              		.loc 1 294 0
 506 0018 084A     		ldr	r2, .L22+8
 507 001a FB79     		ldrb	r3, [r7, #7]	@ zero_extendqisi2
 508 001c 1B09     		lsrs	r3, r3, #4
 509 001e DBB2     		uxtb	r3, r3
 510 0020 1370     		strb	r3, [r2]
 295:Generated_Source\PSoC5/cyfitter_cfg.c **** 	CY_SET_XTND_REG8((void CYFAR *)CYREG_PUMP_CR0, 0x44u);
 511              		.loc 1 295 0
 512 0022 074B     		ldr	r3, .L22+12
 513 0024 4422     		movs	r2, #68
 514 0026 1A70     		strb	r2, [r3]
 296:Generated_Source\PSoC5/cyfitter_cfg.c **** }
 515              		.loc 1 296 0
 516 0028 00BF     		nop
 517 002a 0C37     		adds	r7, r7, #12
 518              		.cfi_def_cfa_offset 4
 519 002c BD46     		mov	sp, r7
 520              		.cfi_def_cfa_register 13
 521              		@ sp needed
 522 002e 80BC     		pop	{r7}
 523              		.cfi_restore 7
 524              		.cfi_def_cfa_offset 0
 525 0030 7047     		bx	lr
 526              	.L23:
 527 0032 00BF     		.align	2
 528              	.L22:
 529 0034 CF010049 		.word	1224737231
 530 0038 6E580040 		.word	1073764462
 531 003c 6F580040 		.word	1073764463
 532 0040 76580040 		.word	1073764470
 533              		.cfi_endproc
 534              	.LFE6:
 535              		.size	AnalogSetDefault, .-AnalogSetDefault
 536              		.section	.text.SetAnalogRoutingPumps,"ax",%progbits
 537              		.align	2
 538              		.global	SetAnalogRoutingPumps
 539              		.thumb
 540              		.thumb_func
 541              		.type	SetAnalogRoutingPumps, %function
 542              	SetAnalogRoutingPumps:
 543              	.LFB7:
 297:Generated_Source\PSoC5/cyfitter_cfg.c **** 
 298:Generated_Source\PSoC5/cyfitter_cfg.c **** 
 299:Generated_Source\PSoC5/cyfitter_cfg.c **** /*******************************************************************************
 300:Generated_Source\PSoC5/cyfitter_cfg.c **** * Function Name: SetAnalogRoutingPumps
 301:Generated_Source\PSoC5/cyfitter_cfg.c **** ********************************************************************************
 302:Generated_Source\PSoC5/cyfitter_cfg.c **** *
 303:Generated_Source\PSoC5/cyfitter_cfg.c **** * Summary:
ARM GAS  C:\Users\Admin\AppData\Local\Temp\ccY68vTi.s 			page 16


 304:Generated_Source\PSoC5/cyfitter_cfg.c **** * Enables or disables the analog pumps feeding analog routing switches.
 305:Generated_Source\PSoC5/cyfitter_cfg.c **** * Intended to be called at startup, based on the Vdda system configuration;
 306:Generated_Source\PSoC5/cyfitter_cfg.c **** * may be called during operation when the user informs us that the Vdda voltage
 307:Generated_Source\PSoC5/cyfitter_cfg.c **** * crossed the pump threshold.
 308:Generated_Source\PSoC5/cyfitter_cfg.c **** *
 309:Generated_Source\PSoC5/cyfitter_cfg.c **** * Parameters:
 310:Generated_Source\PSoC5/cyfitter_cfg.c **** *  enabled - 1 to enable the pumps, 0 to disable the pumps
 311:Generated_Source\PSoC5/cyfitter_cfg.c **** *
 312:Generated_Source\PSoC5/cyfitter_cfg.c **** * Return:
 313:Generated_Source\PSoC5/cyfitter_cfg.c **** *  void
 314:Generated_Source\PSoC5/cyfitter_cfg.c **** *
 315:Generated_Source\PSoC5/cyfitter_cfg.c **** *******************************************************************************/
 316:Generated_Source\PSoC5/cyfitter_cfg.c **** void SetAnalogRoutingPumps(uint8 enabled)
 317:Generated_Source\PSoC5/cyfitter_cfg.c **** {
 544              		.loc 1 317 0
 545              		.cfi_startproc
 546              		@ args = 0, pretend = 0, frame = 16
 547              		@ frame_needed = 1, uses_anonymous_args = 0
 548              		@ link register save eliminated.
 549 0000 80B4     		push	{r7}
 550              		.cfi_def_cfa_offset 4
 551              		.cfi_offset 7, -4
 552 0002 85B0     		sub	sp, sp, #20
 553              		.cfi_def_cfa_offset 24
 554 0004 00AF     		add	r7, sp, #0
 555              		.cfi_def_cfa_register 7
 556 0006 0346     		mov	r3, r0
 557 0008 FB71     		strb	r3, [r7, #7]
 318:Generated_Source\PSoC5/cyfitter_cfg.c **** 	uint8 regValue = CY_GET_XTND_REG8((void CYFAR *)CYREG_PUMP_CR0);
 558              		.loc 1 318 0
 559 000a 064B     		ldr	r3, .L27
 560 000c 1B78     		ldrb	r3, [r3]
 561 000e FB73     		strb	r3, [r7, #15]
 319:Generated_Source\PSoC5/cyfitter_cfg.c **** 	if (enabled != 0u)
 562              		.loc 1 319 0
 563 0010 FB79     		ldrb	r3, [r7, #7]	@ zero_extendqisi2
 564 0012 002B     		cmp	r3, #0
 320:Generated_Source\PSoC5/cyfitter_cfg.c **** 	{
 321:Generated_Source\PSoC5/cyfitter_cfg.c **** 		regValue |= 0x00u;
 322:Generated_Source\PSoC5/cyfitter_cfg.c **** 	}
 323:Generated_Source\PSoC5/cyfitter_cfg.c **** 	else
 324:Generated_Source\PSoC5/cyfitter_cfg.c **** 	{
 325:Generated_Source\PSoC5/cyfitter_cfg.c **** 		regValue &= (uint8)~0x00u;
 326:Generated_Source\PSoC5/cyfitter_cfg.c **** 	}
 327:Generated_Source\PSoC5/cyfitter_cfg.c **** 	CY_SET_XTND_REG8((void CYFAR *)CYREG_PUMP_CR0, regValue);
 565              		.loc 1 327 0
 566 0014 034A     		ldr	r2, .L27
 567 0016 FB7B     		ldrb	r3, [r7, #15]
 568 0018 1370     		strb	r3, [r2]
 328:Generated_Source\PSoC5/cyfitter_cfg.c **** }
 569              		.loc 1 328 0
 570 001a 00BF     		nop
 571 001c 1437     		adds	r7, r7, #20
 572              		.cfi_def_cfa_offset 4
 573 001e BD46     		mov	sp, r7
 574              		.cfi_def_cfa_register 13
 575              		@ sp needed
ARM GAS  C:\Users\Admin\AppData\Local\Temp\ccY68vTi.s 			page 17


 576 0020 80BC     		pop	{r7}
 577              		.cfi_restore 7
 578              		.cfi_def_cfa_offset 0
 579 0022 7047     		bx	lr
 580              	.L28:
 581              		.align	2
 582              	.L27:
 583 0024 76580040 		.word	1073764470
 584              		.cfi_endproc
 585              	.LFE7:
 586              		.size	SetAnalogRoutingPumps, .-SetAnalogRoutingPumps
 587              		.section	.text.cyfitter_cfg,"ax",%progbits
 588              		.align	2
 589              		.global	cyfitter_cfg
 590              		.thumb
 591              		.thumb_func
 592              		.type	cyfitter_cfg, %function
 593              	cyfitter_cfg:
 594              	.LFB8:
 329:Generated_Source\PSoC5/cyfitter_cfg.c **** 
 330:Generated_Source\PSoC5/cyfitter_cfg.c **** 
 331:Generated_Source\PSoC5/cyfitter_cfg.c **** 
 332:Generated_Source\PSoC5/cyfitter_cfg.c **** 
 333:Generated_Source\PSoC5/cyfitter_cfg.c **** /*******************************************************************************
 334:Generated_Source\PSoC5/cyfitter_cfg.c **** * Function Name: cyfitter_cfg
 335:Generated_Source\PSoC5/cyfitter_cfg.c **** ********************************************************************************
 336:Generated_Source\PSoC5/cyfitter_cfg.c **** * Summary:
 337:Generated_Source\PSoC5/cyfitter_cfg.c **** *  This function is called by the start-up code for the selected device. It
 338:Generated_Source\PSoC5/cyfitter_cfg.c **** *  performs all of the necessary device configuration based on the design
 339:Generated_Source\PSoC5/cyfitter_cfg.c **** *  settings.  This includes settings from the Design Wide Resources (DWR) such
 340:Generated_Source\PSoC5/cyfitter_cfg.c **** *  as Clocks and Pins as well as any component configuration that is necessary.
 341:Generated_Source\PSoC5/cyfitter_cfg.c **** *
 342:Generated_Source\PSoC5/cyfitter_cfg.c **** * Parameters:
 343:Generated_Source\PSoC5/cyfitter_cfg.c **** *   void
 344:Generated_Source\PSoC5/cyfitter_cfg.c **** *
 345:Generated_Source\PSoC5/cyfitter_cfg.c **** * Return:
 346:Generated_Source\PSoC5/cyfitter_cfg.c **** *   void
 347:Generated_Source\PSoC5/cyfitter_cfg.c **** *
 348:Generated_Source\PSoC5/cyfitter_cfg.c **** *******************************************************************************/
 349:Generated_Source\PSoC5/cyfitter_cfg.c **** 
 350:Generated_Source\PSoC5/cyfitter_cfg.c **** void cyfitter_cfg(void)
 351:Generated_Source\PSoC5/cyfitter_cfg.c **** {
 595              		.loc 1 351 0
 596              		.cfi_startproc
 597              		@ args = 0, pretend = 0, frame = 24
 598              		@ frame_needed = 1, uses_anonymous_args = 0
 599 0000 80B5     		push	{r7, lr}
 600              		.cfi_def_cfa_offset 8
 601              		.cfi_offset 7, -8
 602              		.cfi_offset 14, -4
 603 0002 86B0     		sub	sp, sp, #24
 604              		.cfi_def_cfa_offset 32
 605 0004 00AF     		add	r7, sp, #0
 606              		.cfi_def_cfa_register 7
 352:Generated_Source\PSoC5/cyfitter_cfg.c **** 	/* IOPINS0_7 Address: CYREG_PRT12_DR Size (bytes): 10 */
 353:Generated_Source\PSoC5/cyfitter_cfg.c **** 	static const uint8 CYCODE BS_IOPINS0_7_VAL[] = {
 354:Generated_Source\PSoC5/cyfitter_cfg.c **** 		0x80u, 0x00u, 0x40u, 0x80u, 0x80u, 0x00u, 0x80u, 0x00u, 0x00u, 0x00u};
ARM GAS  C:\Users\Admin\AppData\Local\Temp\ccY68vTi.s 			page 18


 355:Generated_Source\PSoC5/cyfitter_cfg.c **** 
 356:Generated_Source\PSoC5/cyfitter_cfg.c **** 	/* IOPINS0_1 Address: CYREG_PRT1_DM0 Size (bytes): 8 */
 357:Generated_Source\PSoC5/cyfitter_cfg.c **** 	static const uint8 CYCODE BS_IOPINS0_1_VAL[] = {
 358:Generated_Source\PSoC5/cyfitter_cfg.c **** 		0x00u, 0x0Bu, 0x0Bu, 0x00u, 0x00u, 0x00u, 0x00u, 0x00u};
 359:Generated_Source\PSoC5/cyfitter_cfg.c **** 
 360:Generated_Source\PSoC5/cyfitter_cfg.c **** 	/* IOPINS0_2 Address: CYREG_PRT2_DM0 Size (bytes): 8 */
 361:Generated_Source\PSoC5/cyfitter_cfg.c **** 	static const uint8 CYCODE BS_IOPINS0_2_VAL[] = {
 362:Generated_Source\PSoC5/cyfitter_cfg.c **** 		0x00u, 0x7Fu, 0x7Fu, 0x00u, 0x00u, 0x00u, 0x00u, 0x00u};
 363:Generated_Source\PSoC5/cyfitter_cfg.c **** 
 364:Generated_Source\PSoC5/cyfitter_cfg.c **** #ifdef CYGlobalIntDisable
 365:Generated_Source\PSoC5/cyfitter_cfg.c **** 	/* Disable interrupts by default. Let user enable if/when they want. */
 366:Generated_Source\PSoC5/cyfitter_cfg.c **** 	CYGlobalIntDisable
 607              		.loc 1 366 0
 608              		.syntax unified
 609              	@ 366 "Generated_Source\PSoC5\cyfitter_cfg.c" 1
 610 0006 72B6     		CPSID   i
 611              	@ 0 "" 2
 367:Generated_Source\PSoC5/cyfitter_cfg.c **** #endif
 368:Generated_Source\PSoC5/cyfitter_cfg.c **** 
 369:Generated_Source\PSoC5/cyfitter_cfg.c **** 	/* Enable/Disable Debug functionality based on settings from System DWR */
 370:Generated_Source\PSoC5/cyfitter_cfg.c **** 	CY_SET_XTND_REG8((void CYFAR *)CYREG_MLOGIC_DEBUG, (CY_GET_XTND_REG8((void CYFAR *)CYREG_MLOGIC_DE
 612              		.loc 1 370 0
 613              		.thumb
 614              		.syntax unified
 615 0008 4A4A     		ldr	r2, .L34
 616 000a 4A4B     		ldr	r3, .L34
 617 000c 1B78     		ldrb	r3, [r3]
 618 000e DBB2     		uxtb	r3, r3
 619 0010 43F00403 		orr	r3, r3, #4
 620 0014 DBB2     		uxtb	r3, r3
 621 0016 1370     		strb	r3, [r2]
 622              	.LBB3:
 371:Generated_Source\PSoC5/cyfitter_cfg.c **** 
 372:Generated_Source\PSoC5/cyfitter_cfg.c **** 	{
 373:Generated_Source\PSoC5/cyfitter_cfg.c **** 		static const uint32 CYCODE cy_cfg_addr_table[] = {
 374:Generated_Source\PSoC5/cyfitter_cfg.c **** 			0x40005201u, /* Base address: 0x40005200 Count: 1 */
 375:Generated_Source\PSoC5/cyfitter_cfg.c **** 			0x40006503u, /* Base address: 0x40006500 Count: 3 */
 376:Generated_Source\PSoC5/cyfitter_cfg.c **** 			0x40011701u, /* Base address: 0x40011700 Count: 1 */
 377:Generated_Source\PSoC5/cyfitter_cfg.c **** 			0x40011810u, /* Base address: 0x40011800 Count: 16 */
 378:Generated_Source\PSoC5/cyfitter_cfg.c **** 			0x4001193Au, /* Base address: 0x40011900 Count: 58 */
 379:Generated_Source\PSoC5/cyfitter_cfg.c **** 			0x40011A6Eu, /* Base address: 0x40011A00 Count: 110 */
 380:Generated_Source\PSoC5/cyfitter_cfg.c **** 			0x40011B47u, /* Base address: 0x40011B00 Count: 71 */
 381:Generated_Source\PSoC5/cyfitter_cfg.c **** 			0x40014003u, /* Base address: 0x40014000 Count: 3 */
 382:Generated_Source\PSoC5/cyfitter_cfg.c **** 			0x40014102u, /* Base address: 0x40014100 Count: 2 */
 383:Generated_Source\PSoC5/cyfitter_cfg.c **** 			0x40014202u, /* Base address: 0x40014200 Count: 2 */
 384:Generated_Source\PSoC5/cyfitter_cfg.c **** 			0x40014304u, /* Base address: 0x40014300 Count: 4 */
 385:Generated_Source\PSoC5/cyfitter_cfg.c **** 			0x40014804u, /* Base address: 0x40014800 Count: 4 */
 386:Generated_Source\PSoC5/cyfitter_cfg.c **** 			0x40014C01u, /* Base address: 0x40014C00 Count: 1 */
 387:Generated_Source\PSoC5/cyfitter_cfg.c **** 			0x40014D07u, /* Base address: 0x40014D00 Count: 7 */
 388:Generated_Source\PSoC5/cyfitter_cfg.c **** 			0x40015004u, /* Base address: 0x40015000 Count: 4 */
 389:Generated_Source\PSoC5/cyfitter_cfg.c **** 			0x40015101u, /* Base address: 0x40015100 Count: 1 */
 390:Generated_Source\PSoC5/cyfitter_cfg.c **** 		};
 391:Generated_Source\PSoC5/cyfitter_cfg.c **** 
 392:Generated_Source\PSoC5/cyfitter_cfg.c **** 		static const cy_cfg_addrvalue_t CYCODE cy_cfg_data_table[] = {
 393:Generated_Source\PSoC5/cyfitter_cfg.c **** 			{0x61u, 0x80u},
 394:Generated_Source\PSoC5/cyfitter_cfg.c **** 			{0x88u, 0x38u},
 395:Generated_Source\PSoC5/cyfitter_cfg.c **** 			{0x89u, 0x72u},
ARM GAS  C:\Users\Admin\AppData\Local\Temp\ccY68vTi.s 			page 19


 396:Generated_Source\PSoC5/cyfitter_cfg.c **** 			{0x8Au, 0x0Fu},
 397:Generated_Source\PSoC5/cyfitter_cfg.c **** 			{0xE2u, 0x08u},
 398:Generated_Source\PSoC5/cyfitter_cfg.c **** 			{0x00u, 0x08u},
 399:Generated_Source\PSoC5/cyfitter_cfg.c **** 			{0x0Au, 0x02u},
 400:Generated_Source\PSoC5/cyfitter_cfg.c **** 			{0x0Eu, 0x02u},
 401:Generated_Source\PSoC5/cyfitter_cfg.c **** 			{0x12u, 0x01u},
 402:Generated_Source\PSoC5/cyfitter_cfg.c **** 			{0x1Cu, 0x04u},
 403:Generated_Source\PSoC5/cyfitter_cfg.c **** 			{0x26u, 0x01u},
 404:Generated_Source\PSoC5/cyfitter_cfg.c **** 			{0x30u, 0x04u},
 405:Generated_Source\PSoC5/cyfitter_cfg.c **** 			{0x32u, 0x02u},
 406:Generated_Source\PSoC5/cyfitter_cfg.c **** 			{0x34u, 0x08u},
 407:Generated_Source\PSoC5/cyfitter_cfg.c **** 			{0x36u, 0x01u},
 408:Generated_Source\PSoC5/cyfitter_cfg.c **** 			{0x3Eu, 0x55u},
 409:Generated_Source\PSoC5/cyfitter_cfg.c **** 			{0x54u, 0x18u},
 410:Generated_Source\PSoC5/cyfitter_cfg.c **** 			{0x56u, 0x04u},
 411:Generated_Source\PSoC5/cyfitter_cfg.c **** 			{0x58u, 0x04u},
 412:Generated_Source\PSoC5/cyfitter_cfg.c **** 			{0x5Bu, 0x04u},
 413:Generated_Source\PSoC5/cyfitter_cfg.c **** 			{0x5Fu, 0x01u},
 414:Generated_Source\PSoC5/cyfitter_cfg.c **** 			{0x01u, 0x20u},
 415:Generated_Source\PSoC5/cyfitter_cfg.c **** 			{0x02u, 0x02u},
 416:Generated_Source\PSoC5/cyfitter_cfg.c **** 			{0x03u, 0xA0u},
 417:Generated_Source\PSoC5/cyfitter_cfg.c **** 			{0x04u, 0x20u},
 418:Generated_Source\PSoC5/cyfitter_cfg.c **** 			{0x05u, 0x02u},
 419:Generated_Source\PSoC5/cyfitter_cfg.c **** 			{0x07u, 0x02u},
 420:Generated_Source\PSoC5/cyfitter_cfg.c **** 			{0x09u, 0x28u},
 421:Generated_Source\PSoC5/cyfitter_cfg.c **** 			{0x0Au, 0x40u},
 422:Generated_Source\PSoC5/cyfitter_cfg.c **** 			{0x0Bu, 0x01u},
 423:Generated_Source\PSoC5/cyfitter_cfg.c **** 			{0x0Du, 0x81u},
 424:Generated_Source\PSoC5/cyfitter_cfg.c **** 			{0x10u, 0x80u},
 425:Generated_Source\PSoC5/cyfitter_cfg.c **** 			{0x13u, 0x54u},
 426:Generated_Source\PSoC5/cyfitter_cfg.c **** 			{0x14u, 0x20u},
 427:Generated_Source\PSoC5/cyfitter_cfg.c **** 			{0x17u, 0x08u},
 428:Generated_Source\PSoC5/cyfitter_cfg.c **** 			{0x19u, 0x11u},
 429:Generated_Source\PSoC5/cyfitter_cfg.c **** 			{0x1Au, 0x50u},
 430:Generated_Source\PSoC5/cyfitter_cfg.c **** 			{0x1Bu, 0xA0u},
 431:Generated_Source\PSoC5/cyfitter_cfg.c **** 			{0x1Du, 0x40u},
 432:Generated_Source\PSoC5/cyfitter_cfg.c **** 			{0x1Eu, 0x84u},
 433:Generated_Source\PSoC5/cyfitter_cfg.c **** 			{0x1Fu, 0x04u},
 434:Generated_Source\PSoC5/cyfitter_cfg.c **** 			{0x21u, 0x04u},
 435:Generated_Source\PSoC5/cyfitter_cfg.c **** 			{0x22u, 0x01u},
 436:Generated_Source\PSoC5/cyfitter_cfg.c **** 			{0x23u, 0x0Au},
 437:Generated_Source\PSoC5/cyfitter_cfg.c **** 			{0x29u, 0x21u},
 438:Generated_Source\PSoC5/cyfitter_cfg.c **** 			{0x2Bu, 0x20u},
 439:Generated_Source\PSoC5/cyfitter_cfg.c **** 			{0x31u, 0x28u},
 440:Generated_Source\PSoC5/cyfitter_cfg.c **** 			{0x32u, 0x02u},
 441:Generated_Source\PSoC5/cyfitter_cfg.c **** 			{0x33u, 0x80u},
 442:Generated_Source\PSoC5/cyfitter_cfg.c **** 			{0x3Au, 0x42u},
 443:Generated_Source\PSoC5/cyfitter_cfg.c **** 			{0x3Bu, 0x14u},
 444:Generated_Source\PSoC5/cyfitter_cfg.c **** 			{0x40u, 0x21u},
 445:Generated_Source\PSoC5/cyfitter_cfg.c **** 			{0x41u, 0x30u},
 446:Generated_Source\PSoC5/cyfitter_cfg.c **** 			{0x49u, 0x10u},
 447:Generated_Source\PSoC5/cyfitter_cfg.c **** 			{0x4Au, 0x02u},
 448:Generated_Source\PSoC5/cyfitter_cfg.c **** 			{0x50u, 0x10u},
 449:Generated_Source\PSoC5/cyfitter_cfg.c **** 			{0x51u, 0x01u},
 450:Generated_Source\PSoC5/cyfitter_cfg.c **** 			{0x5Au, 0x02u},
 451:Generated_Source\PSoC5/cyfitter_cfg.c **** 			{0x5Eu, 0x01u},
 452:Generated_Source\PSoC5/cyfitter_cfg.c **** 			{0x65u, 0x40u},
ARM GAS  C:\Users\Admin\AppData\Local\Temp\ccY68vTi.s 			page 20


 453:Generated_Source\PSoC5/cyfitter_cfg.c **** 			{0x67u, 0x88u},
 454:Generated_Source\PSoC5/cyfitter_cfg.c **** 			{0x69u, 0x54u},
 455:Generated_Source\PSoC5/cyfitter_cfg.c **** 			{0x70u, 0x80u},
 456:Generated_Source\PSoC5/cyfitter_cfg.c **** 			{0x72u, 0x02u},
 457:Generated_Source\PSoC5/cyfitter_cfg.c **** 			{0x73u, 0x14u},
 458:Generated_Source\PSoC5/cyfitter_cfg.c **** 			{0x86u, 0x40u},
 459:Generated_Source\PSoC5/cyfitter_cfg.c **** 			{0x87u, 0x40u},
 460:Generated_Source\PSoC5/cyfitter_cfg.c **** 			{0x8Eu, 0x12u},
 461:Generated_Source\PSoC5/cyfitter_cfg.c **** 			{0xC0u, 0xDFu},
 462:Generated_Source\PSoC5/cyfitter_cfg.c **** 			{0xC2u, 0x9Fu},
 463:Generated_Source\PSoC5/cyfitter_cfg.c **** 			{0xC4u, 0x2Fu},
 464:Generated_Source\PSoC5/cyfitter_cfg.c **** 			{0xCAu, 0x07u},
 465:Generated_Source\PSoC5/cyfitter_cfg.c **** 			{0xCCu, 0x0Fu},
 466:Generated_Source\PSoC5/cyfitter_cfg.c **** 			{0xCEu, 0x0Fu},
 467:Generated_Source\PSoC5/cyfitter_cfg.c **** 			{0xD0u, 0x0Eu},
 468:Generated_Source\PSoC5/cyfitter_cfg.c **** 			{0xD2u, 0x0Cu},
 469:Generated_Source\PSoC5/cyfitter_cfg.c **** 			{0xD6u, 0x81u},
 470:Generated_Source\PSoC5/cyfitter_cfg.c **** 			{0xD8u, 0xB0u},
 471:Generated_Source\PSoC5/cyfitter_cfg.c **** 			{0xE4u, 0x02u},
 472:Generated_Source\PSoC5/cyfitter_cfg.c **** 			{0x00u, 0x80u},
 473:Generated_Source\PSoC5/cyfitter_cfg.c **** 			{0x01u, 0x02u},
 474:Generated_Source\PSoC5/cyfitter_cfg.c **** 			{0x02u, 0x20u},
 475:Generated_Source\PSoC5/cyfitter_cfg.c **** 			{0x03u, 0x29u},
 476:Generated_Source\PSoC5/cyfitter_cfg.c **** 			{0x04u, 0x0Au},
 477:Generated_Source\PSoC5/cyfitter_cfg.c **** 			{0x05u, 0x13u},
 478:Generated_Source\PSoC5/cyfitter_cfg.c **** 			{0x06u, 0x14u},
 479:Generated_Source\PSoC5/cyfitter_cfg.c **** 			{0x08u, 0x20u},
 480:Generated_Source\PSoC5/cyfitter_cfg.c **** 			{0x09u, 0x13u},
 481:Generated_Source\PSoC5/cyfitter_cfg.c **** 			{0x0Au, 0xC0u},
 482:Generated_Source\PSoC5/cyfitter_cfg.c **** 			{0x0Du, 0x10u},
 483:Generated_Source\PSoC5/cyfitter_cfg.c **** 			{0x0Eu, 0x08u},
 484:Generated_Source\PSoC5/cyfitter_cfg.c **** 			{0x10u, 0x13u},
 485:Generated_Source\PSoC5/cyfitter_cfg.c **** 			{0x12u, 0x0Cu},
 486:Generated_Source\PSoC5/cyfitter_cfg.c **** 			{0x14u, 0x13u},
 487:Generated_Source\PSoC5/cyfitter_cfg.c **** 			{0x15u, 0x01u},
 488:Generated_Source\PSoC5/cyfitter_cfg.c **** 			{0x16u, 0x04u},
 489:Generated_Source\PSoC5/cyfitter_cfg.c **** 			{0x17u, 0x0Au},
 490:Generated_Source\PSoC5/cyfitter_cfg.c **** 			{0x18u, 0x40u},
 491:Generated_Source\PSoC5/cyfitter_cfg.c **** 			{0x1Au, 0x20u},
 492:Generated_Source\PSoC5/cyfitter_cfg.c **** 			{0x1Eu, 0x15u},
 493:Generated_Source\PSoC5/cyfitter_cfg.c **** 			{0x20u, 0x03u},
 494:Generated_Source\PSoC5/cyfitter_cfg.c **** 			{0x22u, 0x14u},
 495:Generated_Source\PSoC5/cyfitter_cfg.c **** 			{0x24u, 0xE0u},
 496:Generated_Source\PSoC5/cyfitter_cfg.c **** 			{0x28u, 0xE0u},
 497:Generated_Source\PSoC5/cyfitter_cfg.c **** 			{0x2Bu, 0x04u},
 498:Generated_Source\PSoC5/cyfitter_cfg.c **** 			{0x30u, 0x0Fu},
 499:Generated_Source\PSoC5/cyfitter_cfg.c **** 			{0x31u, 0x20u},
 500:Generated_Source\PSoC5/cyfitter_cfg.c **** 			{0x33u, 0x03u},
 501:Generated_Source\PSoC5/cyfitter_cfg.c **** 			{0x34u, 0xE0u},
 502:Generated_Source\PSoC5/cyfitter_cfg.c **** 			{0x35u, 0x10u},
 503:Generated_Source\PSoC5/cyfitter_cfg.c **** 			{0x36u, 0x10u},
 504:Generated_Source\PSoC5/cyfitter_cfg.c **** 			{0x37u, 0x0Cu},
 505:Generated_Source\PSoC5/cyfitter_cfg.c **** 			{0x3Au, 0x02u},
 506:Generated_Source\PSoC5/cyfitter_cfg.c **** 			{0x3Eu, 0x40u},
 507:Generated_Source\PSoC5/cyfitter_cfg.c **** 			{0x3Fu, 0x40u},
 508:Generated_Source\PSoC5/cyfitter_cfg.c **** 			{0x40u, 0x43u},
 509:Generated_Source\PSoC5/cyfitter_cfg.c **** 			{0x41u, 0x02u},
ARM GAS  C:\Users\Admin\AppData\Local\Temp\ccY68vTi.s 			page 21


 510:Generated_Source\PSoC5/cyfitter_cfg.c **** 			{0x45u, 0xE0u},
 511:Generated_Source\PSoC5/cyfitter_cfg.c **** 			{0x46u, 0x0Cu},
 512:Generated_Source\PSoC5/cyfitter_cfg.c **** 			{0x47u, 0x0Bu},
 513:Generated_Source\PSoC5/cyfitter_cfg.c **** 			{0x48u, 0x16u},
 514:Generated_Source\PSoC5/cyfitter_cfg.c **** 			{0x49u, 0xFFu},
 515:Generated_Source\PSoC5/cyfitter_cfg.c **** 			{0x4Au, 0xFFu},
 516:Generated_Source\PSoC5/cyfitter_cfg.c **** 			{0x4Bu, 0xFFu},
 517:Generated_Source\PSoC5/cyfitter_cfg.c **** 			{0x4Eu, 0xF0u},
 518:Generated_Source\PSoC5/cyfitter_cfg.c **** 			{0x4Fu, 0x44u},
 519:Generated_Source\PSoC5/cyfitter_cfg.c **** 			{0x50u, 0x0Cu},
 520:Generated_Source\PSoC5/cyfitter_cfg.c **** 			{0x54u, 0x01u},
 521:Generated_Source\PSoC5/cyfitter_cfg.c **** 			{0x58u, 0x04u},
 522:Generated_Source\PSoC5/cyfitter_cfg.c **** 			{0x59u, 0x04u},
 523:Generated_Source\PSoC5/cyfitter_cfg.c **** 			{0x5Au, 0x04u},
 524:Generated_Source\PSoC5/cyfitter_cfg.c **** 			{0x5Bu, 0x04u},
 525:Generated_Source\PSoC5/cyfitter_cfg.c **** 			{0x5Fu, 0x01u},
 526:Generated_Source\PSoC5/cyfitter_cfg.c **** 			{0x66u, 0xC0u},
 527:Generated_Source\PSoC5/cyfitter_cfg.c **** 			{0x6Au, 0x40u},
 528:Generated_Source\PSoC5/cyfitter_cfg.c **** 			{0x6Bu, 0x02u},
 529:Generated_Source\PSoC5/cyfitter_cfg.c **** 			{0x86u, 0x20u},
 530:Generated_Source\PSoC5/cyfitter_cfg.c **** 			{0x87u, 0x08u},
 531:Generated_Source\PSoC5/cyfitter_cfg.c **** 			{0x88u, 0xDCu},
 532:Generated_Source\PSoC5/cyfitter_cfg.c **** 			{0x89u, 0x80u},
 533:Generated_Source\PSoC5/cyfitter_cfg.c **** 			{0x8Au, 0x22u},
 534:Generated_Source\PSoC5/cyfitter_cfg.c **** 			{0x8Bu, 0x13u},
 535:Generated_Source\PSoC5/cyfitter_cfg.c **** 			{0x90u, 0x10u},
 536:Generated_Source\PSoC5/cyfitter_cfg.c **** 			{0x92u, 0xACu},
 537:Generated_Source\PSoC5/cyfitter_cfg.c **** 			{0x93u, 0x0Cu},
 538:Generated_Source\PSoC5/cyfitter_cfg.c **** 			{0x94u, 0x0Cu},
 539:Generated_Source\PSoC5/cyfitter_cfg.c **** 			{0x95u, 0x2Cu},
 540:Generated_Source\PSoC5/cyfitter_cfg.c **** 			{0x96u, 0x71u},
 541:Generated_Source\PSoC5/cyfitter_cfg.c **** 			{0x97u, 0x43u},
 542:Generated_Source\PSoC5/cyfitter_cfg.c **** 			{0x9Eu, 0x03u},
 543:Generated_Source\PSoC5/cyfitter_cfg.c **** 			{0xA0u, 0x09u},
 544:Generated_Source\PSoC5/cyfitter_cfg.c **** 			{0xA2u, 0xD0u},
 545:Generated_Source\PSoC5/cyfitter_cfg.c **** 			{0xA4u, 0x14u},
 546:Generated_Source\PSoC5/cyfitter_cfg.c **** 			{0xA5u, 0x71u},
 547:Generated_Source\PSoC5/cyfitter_cfg.c **** 			{0xA7u, 0x0Eu},
 548:Generated_Source\PSoC5/cyfitter_cfg.c **** 			{0xA8u, 0x10u},
 549:Generated_Source\PSoC5/cyfitter_cfg.c **** 			{0xAAu, 0x40u},
 550:Generated_Source\PSoC5/cyfitter_cfg.c **** 			{0xADu, 0x71u},
 551:Generated_Source\PSoC5/cyfitter_cfg.c **** 			{0xAFu, 0x06u},
 552:Generated_Source\PSoC5/cyfitter_cfg.c **** 			{0xB3u, 0x30u},
 553:Generated_Source\PSoC5/cyfitter_cfg.c **** 			{0xB4u, 0xE0u},
 554:Generated_Source\PSoC5/cyfitter_cfg.c **** 			{0xB5u, 0x0Fu},
 555:Generated_Source\PSoC5/cyfitter_cfg.c **** 			{0xB6u, 0x1Fu},
 556:Generated_Source\PSoC5/cyfitter_cfg.c **** 			{0xB7u, 0xC0u},
 557:Generated_Source\PSoC5/cyfitter_cfg.c **** 			{0xB9u, 0x88u},
 558:Generated_Source\PSoC5/cyfitter_cfg.c **** 			{0xBAu, 0x20u},
 559:Generated_Source\PSoC5/cyfitter_cfg.c **** 			{0xBBu, 0x20u},
 560:Generated_Source\PSoC5/cyfitter_cfg.c **** 			{0xBFu, 0x04u},
 561:Generated_Source\PSoC5/cyfitter_cfg.c **** 			{0xC0u, 0x02u},
 562:Generated_Source\PSoC5/cyfitter_cfg.c **** 			{0xC7u, 0x04u},
 563:Generated_Source\PSoC5/cyfitter_cfg.c **** 			{0xC9u, 0xFFu},
 564:Generated_Source\PSoC5/cyfitter_cfg.c **** 			{0xCAu, 0x07u},
 565:Generated_Source\PSoC5/cyfitter_cfg.c **** 			{0xCBu, 0xFFu},
 566:Generated_Source\PSoC5/cyfitter_cfg.c **** 			{0xCCu, 0x40u},
ARM GAS  C:\Users\Admin\AppData\Local\Temp\ccY68vTi.s 			page 22


 567:Generated_Source\PSoC5/cyfitter_cfg.c **** 			{0xCDu, 0x20u},
 568:Generated_Source\PSoC5/cyfitter_cfg.c **** 			{0xCEu, 0xF0u},
 569:Generated_Source\PSoC5/cyfitter_cfg.c **** 			{0xCFu, 0x05u},
 570:Generated_Source\PSoC5/cyfitter_cfg.c **** 			{0xD0u, 0x08u},
 571:Generated_Source\PSoC5/cyfitter_cfg.c **** 			{0xD6u, 0x08u},
 572:Generated_Source\PSoC5/cyfitter_cfg.c **** 			{0xD8u, 0x04u},
 573:Generated_Source\PSoC5/cyfitter_cfg.c **** 			{0xD9u, 0x04u},
 574:Generated_Source\PSoC5/cyfitter_cfg.c **** 			{0xDAu, 0x04u},
 575:Generated_Source\PSoC5/cyfitter_cfg.c **** 			{0xDBu, 0x04u},
 576:Generated_Source\PSoC5/cyfitter_cfg.c **** 			{0xDDu, 0x90u},
 577:Generated_Source\PSoC5/cyfitter_cfg.c **** 			{0xDFu, 0x01u},
 578:Generated_Source\PSoC5/cyfitter_cfg.c **** 			{0xE0u, 0x40u},
 579:Generated_Source\PSoC5/cyfitter_cfg.c **** 			{0xE1u, 0xA8u},
 580:Generated_Source\PSoC5/cyfitter_cfg.c **** 			{0xE2u, 0x40u},
 581:Generated_Source\PSoC5/cyfitter_cfg.c **** 			{0xE3u, 0x20u},
 582:Generated_Source\PSoC5/cyfitter_cfg.c **** 			{0x00u, 0x04u},
 583:Generated_Source\PSoC5/cyfitter_cfg.c **** 			{0x01u, 0x20u},
 584:Generated_Source\PSoC5/cyfitter_cfg.c **** 			{0x02u, 0x40u},
 585:Generated_Source\PSoC5/cyfitter_cfg.c **** 			{0x03u, 0x01u},
 586:Generated_Source\PSoC5/cyfitter_cfg.c **** 			{0x06u, 0x20u},
 587:Generated_Source\PSoC5/cyfitter_cfg.c **** 			{0x07u, 0x08u},
 588:Generated_Source\PSoC5/cyfitter_cfg.c **** 			{0x0Au, 0x59u},
 589:Generated_Source\PSoC5/cyfitter_cfg.c **** 			{0x0Bu, 0x20u},
 590:Generated_Source\PSoC5/cyfitter_cfg.c **** 			{0x0Du, 0x80u},
 591:Generated_Source\PSoC5/cyfitter_cfg.c **** 			{0x0Eu, 0x50u},
 592:Generated_Source\PSoC5/cyfitter_cfg.c **** 			{0x10u, 0x80u},
 593:Generated_Source\PSoC5/cyfitter_cfg.c **** 			{0x11u, 0x14u},
 594:Generated_Source\PSoC5/cyfitter_cfg.c **** 			{0x15u, 0x08u},
 595:Generated_Source\PSoC5/cyfitter_cfg.c **** 			{0x16u, 0x04u},
 596:Generated_Source\PSoC5/cyfitter_cfg.c **** 			{0x17u, 0x01u},
 597:Generated_Source\PSoC5/cyfitter_cfg.c **** 			{0x19u, 0xA0u},
 598:Generated_Source\PSoC5/cyfitter_cfg.c **** 			{0x1Au, 0x40u},
 599:Generated_Source\PSoC5/cyfitter_cfg.c **** 			{0x1Du, 0x80u},
 600:Generated_Source\PSoC5/cyfitter_cfg.c **** 			{0x1Fu, 0x30u},
 601:Generated_Source\PSoC5/cyfitter_cfg.c **** 			{0x20u, 0x01u},
 602:Generated_Source\PSoC5/cyfitter_cfg.c **** 			{0x21u, 0x18u},
 603:Generated_Source\PSoC5/cyfitter_cfg.c **** 			{0x22u, 0x04u},
 604:Generated_Source\PSoC5/cyfitter_cfg.c **** 			{0x23u, 0x40u},
 605:Generated_Source\PSoC5/cyfitter_cfg.c **** 			{0x24u, 0x04u},
 606:Generated_Source\PSoC5/cyfitter_cfg.c **** 			{0x27u, 0x29u},
 607:Generated_Source\PSoC5/cyfitter_cfg.c **** 			{0x29u, 0x20u},
 608:Generated_Source\PSoC5/cyfitter_cfg.c **** 			{0x2Eu, 0x40u},
 609:Generated_Source\PSoC5/cyfitter_cfg.c **** 			{0x2Fu, 0x20u},
 610:Generated_Source\PSoC5/cyfitter_cfg.c **** 			{0x31u, 0x08u},
 611:Generated_Source\PSoC5/cyfitter_cfg.c **** 			{0x37u, 0x09u},
 612:Generated_Source\PSoC5/cyfitter_cfg.c **** 			{0x39u, 0x54u},
 613:Generated_Source\PSoC5/cyfitter_cfg.c **** 			{0x3Bu, 0x01u},
 614:Generated_Source\PSoC5/cyfitter_cfg.c **** 			{0x3Eu, 0x08u},
 615:Generated_Source\PSoC5/cyfitter_cfg.c **** 			{0x3Fu, 0x20u},
 616:Generated_Source\PSoC5/cyfitter_cfg.c **** 			{0x42u, 0x60u},
 617:Generated_Source\PSoC5/cyfitter_cfg.c **** 			{0x43u, 0x20u},
 618:Generated_Source\PSoC5/cyfitter_cfg.c **** 			{0x47u, 0x20u},
 619:Generated_Source\PSoC5/cyfitter_cfg.c **** 			{0x49u, 0x02u},
 620:Generated_Source\PSoC5/cyfitter_cfg.c **** 			{0x50u, 0x80u},
 621:Generated_Source\PSoC5/cyfitter_cfg.c **** 			{0x51u, 0x04u},
 622:Generated_Source\PSoC5/cyfitter_cfg.c **** 			{0x56u, 0x2Cu},
 623:Generated_Source\PSoC5/cyfitter_cfg.c **** 			{0x57u, 0x10u},
ARM GAS  C:\Users\Admin\AppData\Local\Temp\ccY68vTi.s 			page 23


 624:Generated_Source\PSoC5/cyfitter_cfg.c **** 			{0x59u, 0x82u},
 625:Generated_Source\PSoC5/cyfitter_cfg.c **** 			{0x5Au, 0x04u},
 626:Generated_Source\PSoC5/cyfitter_cfg.c **** 			{0x5Bu, 0x10u},
 627:Generated_Source\PSoC5/cyfitter_cfg.c **** 			{0x5Cu, 0x80u},
 628:Generated_Source\PSoC5/cyfitter_cfg.c **** 			{0x66u, 0x40u},
 629:Generated_Source\PSoC5/cyfitter_cfg.c **** 			{0x67u, 0x01u},
 630:Generated_Source\PSoC5/cyfitter_cfg.c **** 			{0x80u, 0x80u},
 631:Generated_Source\PSoC5/cyfitter_cfg.c **** 			{0x83u, 0x10u},
 632:Generated_Source\PSoC5/cyfitter_cfg.c **** 			{0x8Au, 0x21u},
 633:Generated_Source\PSoC5/cyfitter_cfg.c **** 			{0x8Cu, 0x80u},
 634:Generated_Source\PSoC5/cyfitter_cfg.c **** 			{0x91u, 0x54u},
 635:Generated_Source\PSoC5/cyfitter_cfg.c **** 			{0x92u, 0x04u},
 636:Generated_Source\PSoC5/cyfitter_cfg.c **** 			{0x94u, 0x01u},
 637:Generated_Source\PSoC5/cyfitter_cfg.c **** 			{0x95u, 0x20u},
 638:Generated_Source\PSoC5/cyfitter_cfg.c **** 			{0x97u, 0x41u},
 639:Generated_Source\PSoC5/cyfitter_cfg.c **** 			{0x9Du, 0x22u},
 640:Generated_Source\PSoC5/cyfitter_cfg.c **** 			{0x9Eu, 0x40u},
 641:Generated_Source\PSoC5/cyfitter_cfg.c **** 			{0xA5u, 0x88u},
 642:Generated_Source\PSoC5/cyfitter_cfg.c **** 			{0xB1u, 0x04u},
 643:Generated_Source\PSoC5/cyfitter_cfg.c **** 			{0xB2u, 0x01u},
 644:Generated_Source\PSoC5/cyfitter_cfg.c **** 			{0xC0u, 0x6Fu},
 645:Generated_Source\PSoC5/cyfitter_cfg.c **** 			{0xC2u, 0xBFu},
 646:Generated_Source\PSoC5/cyfitter_cfg.c **** 			{0xC4u, 0x7Eu},
 647:Generated_Source\PSoC5/cyfitter_cfg.c **** 			{0xCAu, 0x54u},
 648:Generated_Source\PSoC5/cyfitter_cfg.c **** 			{0xCCu, 0xC2u},
 649:Generated_Source\PSoC5/cyfitter_cfg.c **** 			{0xCEu, 0x6Fu},
 650:Generated_Source\PSoC5/cyfitter_cfg.c **** 			{0xD0u, 0x27u},
 651:Generated_Source\PSoC5/cyfitter_cfg.c **** 			{0xD6u, 0x1Fu},
 652:Generated_Source\PSoC5/cyfitter_cfg.c **** 			{0xD8u, 0x10u},
 653:Generated_Source\PSoC5/cyfitter_cfg.c **** 			{0x33u, 0x80u},
 654:Generated_Source\PSoC5/cyfitter_cfg.c **** 			{0x35u, 0x80u},
 655:Generated_Source\PSoC5/cyfitter_cfg.c **** 			{0xCCu, 0x30u},
 656:Generated_Source\PSoC5/cyfitter_cfg.c **** 			{0x9Du, 0x80u},
 657:Generated_Source\PSoC5/cyfitter_cfg.c **** 			{0xA7u, 0x80u},
 658:Generated_Source\PSoC5/cyfitter_cfg.c **** 			{0x9Du, 0x80u},
 659:Generated_Source\PSoC5/cyfitter_cfg.c **** 			{0xA7u, 0x80u},
 660:Generated_Source\PSoC5/cyfitter_cfg.c **** 			{0x2Fu, 0x04u},
 661:Generated_Source\PSoC5/cyfitter_cfg.c **** 			{0x9Du, 0x80u},
 662:Generated_Source\PSoC5/cyfitter_cfg.c **** 			{0xA7u, 0x80u},
 663:Generated_Source\PSoC5/cyfitter_cfg.c **** 			{0xCAu, 0x20u},
 664:Generated_Source\PSoC5/cyfitter_cfg.c **** 			{0x85u, 0x80u},
 665:Generated_Source\PSoC5/cyfitter_cfg.c **** 			{0x9Du, 0x80u},
 666:Generated_Source\PSoC5/cyfitter_cfg.c **** 			{0xAFu, 0x84u},
 667:Generated_Source\PSoC5/cyfitter_cfg.c **** 			{0xE2u, 0x10u},
 668:Generated_Source\PSoC5/cyfitter_cfg.c **** 			{0x87u, 0x40u},
 669:Generated_Source\PSoC5/cyfitter_cfg.c **** 			{0x12u, 0x20u},
 670:Generated_Source\PSoC5/cyfitter_cfg.c **** 			{0x73u, 0x40u},
 671:Generated_Source\PSoC5/cyfitter_cfg.c **** 			{0x8Eu, 0x20u},
 672:Generated_Source\PSoC5/cyfitter_cfg.c **** 			{0x93u, 0x40u},
 673:Generated_Source\PSoC5/cyfitter_cfg.c **** 			{0xC4u, 0x08u},
 674:Generated_Source\PSoC5/cyfitter_cfg.c **** 			{0xDCu, 0x01u},
 675:Generated_Source\PSoC5/cyfitter_cfg.c **** 			{0xE2u, 0x08u},
 676:Generated_Source\PSoC5/cyfitter_cfg.c **** 			{0x10u, 0x01u},
 677:Generated_Source\PSoC5/cyfitter_cfg.c **** 			{0x11u, 0x01u},
 678:Generated_Source\PSoC5/cyfitter_cfg.c **** 			{0x1Cu, 0x01u},
 679:Generated_Source\PSoC5/cyfitter_cfg.c **** 			{0x1Du, 0x01u},
 680:Generated_Source\PSoC5/cyfitter_cfg.c **** 			{0x00u, 0x0Eu},
ARM GAS  C:\Users\Admin\AppData\Local\Temp\ccY68vTi.s 			page 24


 681:Generated_Source\PSoC5/cyfitter_cfg.c **** 		};
 682:Generated_Source\PSoC5/cyfitter_cfg.c **** 
 683:Generated_Source\PSoC5/cyfitter_cfg.c **** 
 684:Generated_Source\PSoC5/cyfitter_cfg.c **** 
 685:Generated_Source\PSoC5/cyfitter_cfg.c **** 		CYPACKED typedef struct {
 686:Generated_Source\PSoC5/cyfitter_cfg.c **** 			void CYFAR *address;
 687:Generated_Source\PSoC5/cyfitter_cfg.c **** 			uint16 size;
 688:Generated_Source\PSoC5/cyfitter_cfg.c **** 		} CYPACKED_ATTR cfg_memset_t;
 689:Generated_Source\PSoC5/cyfitter_cfg.c **** 
 690:Generated_Source\PSoC5/cyfitter_cfg.c **** 
 691:Generated_Source\PSoC5/cyfitter_cfg.c **** 		CYPACKED typedef struct {
 692:Generated_Source\PSoC5/cyfitter_cfg.c **** 			void CYFAR *dest;
 693:Generated_Source\PSoC5/cyfitter_cfg.c **** 			const void CYCODE *src;
 694:Generated_Source\PSoC5/cyfitter_cfg.c **** 			uint16 size;
 695:Generated_Source\PSoC5/cyfitter_cfg.c **** 		} CYPACKED_ATTR cfg_memcpy_t;
 696:Generated_Source\PSoC5/cyfitter_cfg.c **** 
 697:Generated_Source\PSoC5/cyfitter_cfg.c **** 		static const cfg_memset_t CYCODE cfg_memset_list[] = {
 698:Generated_Source\PSoC5/cyfitter_cfg.c **** 			/* address, size */
 699:Generated_Source\PSoC5/cyfitter_cfg.c **** 			{(void CYFAR *)(CYREG_PRT0_DR), 16u},
 700:Generated_Source\PSoC5/cyfitter_cfg.c **** 			{(void CYFAR *)(CYREG_PRT3_DR), 64u},
 701:Generated_Source\PSoC5/cyfitter_cfg.c **** 			{(void CYFAR *)(CYREG_PRT15_DR), 16u},
 702:Generated_Source\PSoC5/cyfitter_cfg.c **** 			{(void CYFAR *)(CYDEV_UCFG_B0_P0_U0_BASE), 4096u},
 703:Generated_Source\PSoC5/cyfitter_cfg.c **** 			{(void CYFAR *)(CYDEV_UCFG_B1_P2_U0_BASE), 1152u},
 704:Generated_Source\PSoC5/cyfitter_cfg.c **** 			{(void CYFAR *)(CYDEV_UCFG_B1_P4_ROUTE_BASE), 768u},
 705:Generated_Source\PSoC5/cyfitter_cfg.c **** 			{(void CYFAR *)(CYDEV_UCFG_DSI0_BASE), 2560u},
 706:Generated_Source\PSoC5/cyfitter_cfg.c **** 			{(void CYFAR *)(CYDEV_UCFG_DSI12_BASE), 512u},
 707:Generated_Source\PSoC5/cyfitter_cfg.c **** 			{(void CYFAR *)(CYREG_BCTL0_MDCLK_EN), 32u},
 708:Generated_Source\PSoC5/cyfitter_cfg.c **** 		};
 709:Generated_Source\PSoC5/cyfitter_cfg.c **** 
 710:Generated_Source\PSoC5/cyfitter_cfg.c **** 		/* UDB_0_1_0_CONFIG Address: CYDEV_UCFG_B1_P4_U1_BASE Size (bytes): 128 */
 711:Generated_Source\PSoC5/cyfitter_cfg.c **** 		static const uint8 CYCODE BS_UDB_0_1_0_CONFIG_VAL[] = {
 712:Generated_Source\PSoC5/cyfitter_cfg.c **** 			0x4Cu, 0x40u, 0xA3u, 0x00u, 0xFFu, 0x20u, 0x00u, 0x00u, 0x03u, 0x60u, 0x00u, 0x00u, 0xF3u, 0x02u
 713:Generated_Source\PSoC5/cyfitter_cfg.c **** 			0x4Fu, 0x1Fu, 0x90u, 0x60u, 0x01u, 0x01u, 0x00u, 0x00u, 0x00u, 0x00u, 0xB3u, 0x13u, 0x42u, 0x74u
 714:Generated_Source\PSoC5/cyfitter_cfg.c **** 			0x08u, 0x64u, 0x00u, 0x1Bu, 0x04u, 0x7Fu, 0x00u, 0x00u, 0x0Cu, 0x03u, 0x00u, 0x00u, 0x00u, 0x00u
 715:Generated_Source\PSoC5/cyfitter_cfg.c **** 			0x8Cu, 0x04u, 0x0Fu, 0x03u, 0x00u, 0x70u, 0x7Cu, 0x08u, 0x00u, 0x80u, 0xAAu, 0x00u, 0x00u, 0x00u
 716:Generated_Source\PSoC5/cyfitter_cfg.c **** 			0x52u, 0x06u, 0x03u, 0x00u, 0x01u, 0x00u, 0xE0u, 0xC0u, 0x28u, 0xFFu, 0xFFu, 0xFFu, 0x62u, 0xA0u
 717:Generated_Source\PSoC5/cyfitter_cfg.c **** 			0x0Cu, 0x00u, 0x00u, 0x00u, 0x00u, 0x00u, 0x02u, 0x13u, 0x04u, 0x04u, 0x04u, 0x04u, 0x00u, 0x00u
 718:Generated_Source\PSoC5/cyfitter_cfg.c **** 			0x00u, 0x00u, 0x00u, 0x00u, 0x00u, 0x00u, 0x40u, 0x02u, 0x00u, 0x10u, 0x30u, 0x10u, 0x00u, 0x10u
 719:Generated_Source\PSoC5/cyfitter_cfg.c **** 			0x00u, 0x00u, 0x00u, 0x00u, 0x00u, 0x00u, 0x00u, 0x00u, 0x00u, 0x00u, 0x00u, 0x00u, 0x00u, 0x00u
 720:Generated_Source\PSoC5/cyfitter_cfg.c **** 
 721:Generated_Source\PSoC5/cyfitter_cfg.c **** 		static const cfg_memcpy_t CYCODE cfg_memcpy_list [] = {
 722:Generated_Source\PSoC5/cyfitter_cfg.c **** 			/* dest, src, size */
 723:Generated_Source\PSoC5/cyfitter_cfg.c **** 			{(void CYFAR *)(CYDEV_UCFG_B1_P4_U1_BASE), BS_UDB_0_1_0_CONFIG_VAL, 128u},
 724:Generated_Source\PSoC5/cyfitter_cfg.c **** 		};
 725:Generated_Source\PSoC5/cyfitter_cfg.c **** 
 726:Generated_Source\PSoC5/cyfitter_cfg.c **** 		uint8 CYDATA i;
 727:Generated_Source\PSoC5/cyfitter_cfg.c **** 
 728:Generated_Source\PSoC5/cyfitter_cfg.c **** 		/* Zero out critical memory blocks before beginning configuration */
 729:Generated_Source\PSoC5/cyfitter_cfg.c **** 		for (i = 0u; i < (sizeof(cfg_memset_list)/sizeof(cfg_memset_list[0])); i++)
 623              		.loc 1 729 0
 624 0018 0023     		movs	r3, #0
 625 001a FB75     		strb	r3, [r7, #23]
 626 001c 13E0     		b	.L30
 627              	.L31:
 628              	.LBB4:
 730:Generated_Source\PSoC5/cyfitter_cfg.c **** 		{
 731:Generated_Source\PSoC5/cyfitter_cfg.c **** 			const cfg_memset_t CYCODE * CYDATA ms = &cfg_memset_list[i];
ARM GAS  C:\Users\Admin\AppData\Local\Temp\ccY68vTi.s 			page 25


 629              		.loc 1 731 0 discriminator 3
 630 001e FA7D     		ldrb	r2, [r7, #23]	@ zero_extendqisi2
 631 0020 1346     		mov	r3, r2
 632 0022 5B00     		lsls	r3, r3, #1
 633 0024 1344     		add	r3, r3, r2
 634 0026 5B00     		lsls	r3, r3, #1
 635 0028 434A     		ldr	r2, .L34+4
 636 002a 1344     		add	r3, r3, r2
 637 002c 3B61     		str	r3, [r7, #16]
 732:Generated_Source\PSoC5/cyfitter_cfg.c **** 			CYMEMZERO(ms->address, (size_t)(uint32)(ms->size));
 638              		.loc 1 732 0 discriminator 3
 639 002e 3B69     		ldr	r3, [r7, #16]
 640 0030 1A68     		ldr	r2, [r3]	@ unaligned
 641 0032 3B69     		ldr	r3, [r7, #16]
 642 0034 9B88     		ldrh	r3, [r3, #4]	@ unaligned
 643 0036 9BB2     		uxth	r3, r3
 644 0038 1946     		mov	r1, r3
 645 003a 1046     		mov	r0, r2
 646 003c FFF7FEFF 		bl	CYMEMZERO
 647              	.LBE4:
 729:Generated_Source\PSoC5/cyfitter_cfg.c **** 		{
 648              		.loc 1 729 0 discriminator 3
 649 0040 FB7D     		ldrb	r3, [r7, #23]	@ zero_extendqisi2
 650 0042 0133     		adds	r3, r3, #1
 651 0044 FB75     		strb	r3, [r7, #23]
 652              	.L30:
 729:Generated_Source\PSoC5/cyfitter_cfg.c **** 		{
 653              		.loc 1 729 0 is_stmt 0 discriminator 1
 654 0046 FB7D     		ldrb	r3, [r7, #23]	@ zero_extendqisi2
 655 0048 082B     		cmp	r3, #8
 656 004a E8D9     		bls	.L31
 733:Generated_Source\PSoC5/cyfitter_cfg.c **** 		}
 734:Generated_Source\PSoC5/cyfitter_cfg.c **** 
 735:Generated_Source\PSoC5/cyfitter_cfg.c **** 		/* Copy device configuration data into registers */
 736:Generated_Source\PSoC5/cyfitter_cfg.c **** 		for (i = 0u; i < (sizeof(cfg_memcpy_list)/sizeof(cfg_memcpy_list[0])); i++)
 657              		.loc 1 736 0 is_stmt 1
 658 004c 0023     		movs	r3, #0
 659 004e FB75     		strb	r3, [r7, #23]
 660 0050 1CE0     		b	.L32
 661              	.L33:
 662              	.LBB5:
 737:Generated_Source\PSoC5/cyfitter_cfg.c **** 		{
 738:Generated_Source\PSoC5/cyfitter_cfg.c **** 			const cfg_memcpy_t CYCODE * CYDATA mc = &cfg_memcpy_list[i];
 663              		.loc 1 738 0 discriminator 3
 664 0052 FA7D     		ldrb	r2, [r7, #23]	@ zero_extendqisi2
 665 0054 1346     		mov	r3, r2
 666 0056 9B00     		lsls	r3, r3, #2
 667 0058 1344     		add	r3, r3, r2
 668 005a 5B00     		lsls	r3, r3, #1
 669 005c 374A     		ldr	r2, .L34+8
 670 005e 1344     		add	r3, r3, r2
 671 0060 FB60     		str	r3, [r7, #12]
 739:Generated_Source\PSoC5/cyfitter_cfg.c **** 			void * CYDATA destPtr = mc->dest;
 672              		.loc 1 739 0 discriminator 3
 673 0062 FB68     		ldr	r3, [r7, #12]
 674 0064 1B68     		ldr	r3, [r3]	@ unaligned
 675 0066 BB60     		str	r3, [r7, #8]
ARM GAS  C:\Users\Admin\AppData\Local\Temp\ccY68vTi.s 			page 26


 740:Generated_Source\PSoC5/cyfitter_cfg.c **** 			const void CYCODE * CYDATA srcPtr = mc->src;
 676              		.loc 1 740 0 discriminator 3
 677 0068 FB68     		ldr	r3, [r7, #12]
 678 006a 5B68     		ldr	r3, [r3, #4]	@ unaligned
 679 006c 7B60     		str	r3, [r7, #4]
 741:Generated_Source\PSoC5/cyfitter_cfg.c **** 			uint16 CYDATA numBytes = mc->size;
 680              		.loc 1 741 0 discriminator 3
 681 006e FB68     		ldr	r3, [r7, #12]
 682 0070 1A7A     		ldrb	r2, [r3, #8]	@ zero_extendqisi2
 683 0072 5B7A     		ldrb	r3, [r3, #9]	@ zero_extendqisi2
 684 0074 1B02     		lsls	r3, r3, #8
 685 0076 1343     		orrs	r3, r3, r2
 686 0078 7B80     		strh	r3, [r7, #2]	@ movhi
 742:Generated_Source\PSoC5/cyfitter_cfg.c **** 			CYCONFIGCPYCODE(destPtr, srcPtr, numBytes);
 687              		.loc 1 742 0 discriminator 3
 688 007a 7B88     		ldrh	r3, [r7, #2]
 689 007c 1A46     		mov	r2, r3
 690 007e 7968     		ldr	r1, [r7, #4]
 691 0080 B868     		ldr	r0, [r7, #8]
 692 0082 FFF7FEFF 		bl	CYCONFIGCPYCODE
 693              	.LBE5:
 736:Generated_Source\PSoC5/cyfitter_cfg.c **** 		{
 694              		.loc 1 736 0 discriminator 3
 695 0086 FB7D     		ldrb	r3, [r7, #23]	@ zero_extendqisi2
 696 0088 0133     		adds	r3, r3, #1
 697 008a FB75     		strb	r3, [r7, #23]
 698              	.L32:
 736:Generated_Source\PSoC5/cyfitter_cfg.c **** 		{
 699              		.loc 1 736 0 is_stmt 0 discriminator 1
 700 008c FB7D     		ldrb	r3, [r7, #23]	@ zero_extendqisi2
 701 008e 002B     		cmp	r3, #0
 702 0090 DFD0     		beq	.L33
 743:Generated_Source\PSoC5/cyfitter_cfg.c **** 		}
 744:Generated_Source\PSoC5/cyfitter_cfg.c **** 
 745:Generated_Source\PSoC5/cyfitter_cfg.c **** 		cfg_write_bytes32(cy_cfg_addr_table, cy_cfg_data_table);
 703              		.loc 1 745 0 is_stmt 1
 704 0092 2B49     		ldr	r1, .L34+12
 705 0094 2B48     		ldr	r0, .L34+16
 706 0096 FFF7FEFF 		bl	cfg_write_bytes32
 746:Generated_Source\PSoC5/cyfitter_cfg.c **** 
 747:Generated_Source\PSoC5/cyfitter_cfg.c **** 		/* Enable digital routing */
 748:Generated_Source\PSoC5/cyfitter_cfg.c **** 		CY_SET_XTND_REG8((void CYFAR *)CYREG_BCTL0_BANK_CTL, CY_GET_XTND_REG8((void CYFAR *)CYREG_BCTL0_B
 707              		.loc 1 748 0
 708 009a 2B4A     		ldr	r2, .L34+20
 709 009c 2A4B     		ldr	r3, .L34+20
 710 009e 1B78     		ldrb	r3, [r3]
 711 00a0 DBB2     		uxtb	r3, r3
 712 00a2 43F00203 		orr	r3, r3, #2
 713 00a6 DBB2     		uxtb	r3, r3
 714 00a8 1370     		strb	r3, [r2]
 749:Generated_Source\PSoC5/cyfitter_cfg.c **** 		CY_SET_XTND_REG8((void CYFAR *)CYREG_BCTL1_BANK_CTL, CY_GET_XTND_REG8((void CYFAR *)CYREG_BCTL1_B
 715              		.loc 1 749 0
 716 00aa 284A     		ldr	r2, .L34+24
 717 00ac 274B     		ldr	r3, .L34+24
 718 00ae 1B78     		ldrb	r3, [r3]
 719 00b0 DBB2     		uxtb	r3, r3
 720 00b2 43F00203 		orr	r3, r3, #2
ARM GAS  C:\Users\Admin\AppData\Local\Temp\ccY68vTi.s 			page 27


 721 00b6 DBB2     		uxtb	r3, r3
 722 00b8 1370     		strb	r3, [r2]
 750:Generated_Source\PSoC5/cyfitter_cfg.c **** 
 751:Generated_Source\PSoC5/cyfitter_cfg.c **** 		/* Enable UDB array */
 752:Generated_Source\PSoC5/cyfitter_cfg.c **** 		CY_SET_XTND_REG8((void CYFAR *)CYREG_PM_ACT_CFG0, CY_GET_XTND_REG8((void CYFAR *)CYREG_PM_ACT_CFG
 723              		.loc 1 752 0
 724 00ba 254A     		ldr	r2, .L34+28
 725 00bc 244B     		ldr	r3, .L34+28
 726 00be 1B78     		ldrb	r3, [r3]
 727 00c0 DBB2     		uxtb	r3, r3
 728 00c2 43F04003 		orr	r3, r3, #64
 729 00c6 DBB2     		uxtb	r3, r3
 730 00c8 1370     		strb	r3, [r2]
 753:Generated_Source\PSoC5/cyfitter_cfg.c **** 		CY_SET_XTND_REG8((void CYFAR *)CYREG_PM_AVAIL_CR2, CY_GET_XTND_REG8((void CYFAR *)CYREG_PM_AVAIL_
 731              		.loc 1 753 0
 732 00ca 224A     		ldr	r2, .L34+32
 733 00cc 214B     		ldr	r3, .L34+32
 734 00ce 1B78     		ldrb	r3, [r3]
 735 00d0 DBB2     		uxtb	r3, r3
 736 00d2 43F01003 		orr	r3, r3, #16
 737 00d6 DBB2     		uxtb	r3, r3
 738 00d8 1370     		strb	r3, [r2]
 739              	.LBE3:
 754:Generated_Source\PSoC5/cyfitter_cfg.c **** 	}
 755:Generated_Source\PSoC5/cyfitter_cfg.c **** 
 756:Generated_Source\PSoC5/cyfitter_cfg.c **** 
 757:Generated_Source\PSoC5/cyfitter_cfg.c **** 	/* Perform second pass device configuration. These items must be configured in specific order afte
 758:Generated_Source\PSoC5/cyfitter_cfg.c **** 	CYCONFIGCPYCODE((void CYFAR *)(CYREG_PRT12_DR), (const void CYCODE *)(BS_IOPINS0_7_VAL), 10u);
 740              		.loc 1 758 0
 741 00da 0A22     		movs	r2, #10
 742 00dc 1E49     		ldr	r1, .L34+36
 743 00de 1F48     		ldr	r0, .L34+40
 744 00e0 FFF7FEFF 		bl	CYCONFIGCPYCODE
 759:Generated_Source\PSoC5/cyfitter_cfg.c **** 	CYCONFIGCPYCODE((void CYFAR *)(CYREG_PRT1_DM0), (const void CYCODE *)(BS_IOPINS0_1_VAL), 8u);
 745              		.loc 1 759 0
 746 00e4 0822     		movs	r2, #8
 747 00e6 1E49     		ldr	r1, .L34+44
 748 00e8 1E48     		ldr	r0, .L34+48
 749 00ea FFF7FEFF 		bl	CYCONFIGCPYCODE
 760:Generated_Source\PSoC5/cyfitter_cfg.c **** 	CYCONFIGCPYCODE((void CYFAR *)(CYREG_PRT2_DM0), (const void CYCODE *)(BS_IOPINS0_2_VAL), 8u);
 750              		.loc 1 760 0
 751 00ee 0822     		movs	r2, #8
 752 00f0 1D49     		ldr	r1, .L34+52
 753 00f2 1E48     		ldr	r0, .L34+56
 754 00f4 FFF7FEFF 		bl	CYCONFIGCPYCODE
 761:Generated_Source\PSoC5/cyfitter_cfg.c **** 	/* Switch Boost to the precision bandgap reference from its internal reference */
 762:Generated_Source\PSoC5/cyfitter_cfg.c **** 	CY_SET_REG8((void CYXDATA *)CYREG_BOOST_CR2, (CY_GET_REG8((void CYXDATA *)CYREG_BOOST_CR2) | 0x08u
 755              		.loc 1 762 0
 756 00f8 1D4A     		ldr	r2, .L34+60
 757 00fa 1D4B     		ldr	r3, .L34+60
 758 00fc 1B78     		ldrb	r3, [r3]
 759 00fe DBB2     		uxtb	r3, r3
 760 0100 43F00803 		orr	r3, r3, #8
 761 0104 DBB2     		uxtb	r3, r3
 762 0106 1370     		strb	r3, [r2]
 763:Generated_Source\PSoC5/cyfitter_cfg.c **** 
 764:Generated_Source\PSoC5/cyfitter_cfg.c **** 	/* Set Flash Cycles based on max possible frequency in case a glitch occurs during ClockSetup(). *
ARM GAS  C:\Users\Admin\AppData\Local\Temp\ccY68vTi.s 			page 28


 765:Generated_Source\PSoC5/cyfitter_cfg.c **** 	CY_SET_XTND_REG8((void CYFAR *)(CYREG_CACHE_CC_CTL), (((CYDEV_INSTRUCT_CACHE_ENABLED) != 0) ? 0x61
 763              		.loc 1 765 0
 764 0108 1A4B     		ldr	r3, .L34+64
 765 010a 6022     		movs	r2, #96
 766 010c 1A70     		strb	r2, [r3]
 766:Generated_Source\PSoC5/cyfitter_cfg.c **** 	/* Setup clocks based on selections from Clock DWR */
 767:Generated_Source\PSoC5/cyfitter_cfg.c **** 	ClockSetup();
 767              		.loc 1 767 0
 768 010e FFF7FEFF 		bl	ClockSetup
 768:Generated_Source\PSoC5/cyfitter_cfg.c **** 	/* Set Flash Cycles based on newly configured 48.00MHz Bus Clock. */
 769:Generated_Source\PSoC5/cyfitter_cfg.c **** 	CY_SET_XTND_REG8((void CYFAR *)(CYREG_CACHE_CC_CTL), (((CYDEV_INSTRUCT_CACHE_ENABLED) != 0) ? 0xC1
 769              		.loc 1 769 0
 770 0112 184B     		ldr	r3, .L34+64
 771 0114 C022     		movs	r2, #192
 772 0116 1A70     		strb	r2, [r3]
 770:Generated_Source\PSoC5/cyfitter_cfg.c **** 	CY_SET_XTND_REG8((void CYFAR *)(CYREG_PANTHER_WAITPIPE), 0x01u);
 773              		.loc 1 770 0
 774 0118 174B     		ldr	r3, .L34+68
 775 011a 0122     		movs	r2, #1
 776 011c 1A70     		strb	r2, [r3]
 771:Generated_Source\PSoC5/cyfitter_cfg.c **** 
 772:Generated_Source\PSoC5/cyfitter_cfg.c **** 	/* Perform basic analog initialization to defaults */
 773:Generated_Source\PSoC5/cyfitter_cfg.c **** 	AnalogSetDefault();
 777              		.loc 1 773 0
 778 011e FFF7FEFF 		bl	AnalogSetDefault
 774:Generated_Source\PSoC5/cyfitter_cfg.c **** 
 775:Generated_Source\PSoC5/cyfitter_cfg.c **** 	/* Configure alternate active mode */
 776:Generated_Source\PSoC5/cyfitter_cfg.c **** 	CYCONFIGCPY((void CYFAR *)CYDEV_PM_STBY_BASE, (const void CYFAR *)CYDEV_PM_ACT_BASE, 14u);
 779              		.loc 1 776 0
 780 0122 0E22     		movs	r2, #14
 781 0124 0A49     		ldr	r1, .L34+28
 782 0126 1548     		ldr	r0, .L34+72
 783 0128 FFF7FEFF 		bl	CYCONFIGCPY
 777:Generated_Source\PSoC5/cyfitter_cfg.c **** }
 784              		.loc 1 777 0
 785 012c 00BF     		nop
 786 012e 1837     		adds	r7, r7, #24
 787              		.cfi_def_cfa_offset 8
 788 0130 BD46     		mov	sp, r7
 789              		.cfi_def_cfa_register 13
 790              		@ sp needed
 791 0132 80BD     		pop	{r7, pc}
 792              	.L35:
 793              		.align	2
 794              	.L34:
 795 0134 E8460040 		.word	1073759976
 796 0138 00000000 		.word	cfg_memset_list.5293
 797 013c 38000000 		.word	cfg_memcpy_list.5295
 798 0140 84000000 		.word	cy_cfg_data_table.5283
 799 0144 44000000 		.word	cy_cfg_addr_table.5282
 800 0148 03500140 		.word	1073827843
 801 014c 13500140 		.word	1073827859
 802 0150 A0430040 		.word	1073759136
 803 0154 C2430040 		.word	1073759170
 804 0158 C4020000 		.word	BS_IOPINS0_7_VAL.5279
 805 015c C0510040 		.word	1073762752
 806 0160 D0020000 		.word	BS_IOPINS0_1_VAL.5280
ARM GAS  C:\Users\Admin\AppData\Local\Temp\ccY68vTi.s 			page 29


 807 0164 12510040 		.word	1073762578
 808 0168 D8020000 		.word	BS_IOPINS0_2_VAL.5281
 809 016c 22510040 		.word	1073762594
 810 0170 22430040 		.word	1073759010
 811 0174 00480040 		.word	1073760256
 812 0178 04000840 		.word	1074266116
 813 017c B0430040 		.word	1073759152
 814              		.cfi_endproc
 815              	.LFE8:
 816              		.size	cyfitter_cfg, .-cyfitter_cfg
 817              		.section	.rodata
 818              		.align	2
 819              		.type	cfg_memset_list.5293, %object
 820              		.size	cfg_memset_list.5293, 54
 821              	cfg_memset_list.5293:
 822 0000 00510040 		.word	1073762560
 823 0004 1000     		.short	16
 824 0006 30510040 		.4byte	1073762608
 825 000a 4000     		.short	64
 826 000c F0510040 		.word	1073762800
 827 0010 1000     		.short	16
 828 0012 00000140 		.4byte	1073807360
 829 0016 0010     		.short	4096
 830 0018 00140140 		.word	1073812480
 831 001c 8004     		.short	1152
 832 001e 00190140 		.4byte	1073813760
 833 0022 0003     		.short	768
 834 0024 00400140 		.word	1073823744
 835 0028 000A     		.short	2560
 836 002a 004C0140 		.4byte	1073826816
 837 002e 0002     		.short	512
 838 0030 00500140 		.word	1073827840
 839 0034 2000     		.short	32
 840 0036 0000     		.align	2
 841              		.type	cfg_memcpy_list.5295, %object
 842              		.size	cfg_memcpy_list.5295, 10
 843              	cfg_memcpy_list.5295:
 844 0038 80180140 		.word	1073813632
 845 003c E0020000 		.word	BS_UDB_0_1_0_CONFIG_VAL.5294
 846 0040 8000     		.short	128
 847 0042 0000     		.align	2
 848              		.type	cy_cfg_addr_table.5282, %object
 849              		.size	cy_cfg_addr_table.5282, 64
 850              	cy_cfg_addr_table.5282:
 851 0044 01520040 		.word	1073762817
 852 0048 03650040 		.word	1073767683
 853 004c 01170140 		.word	1073813249
 854 0050 10180140 		.word	1073813520
 855 0054 3A190140 		.word	1073813818
 856 0058 6E1A0140 		.word	1073814126
 857 005c 471B0140 		.word	1073814343
 858 0060 03400140 		.word	1073823747
 859 0064 02410140 		.word	1073824002
 860 0068 02420140 		.word	1073824258
 861 006c 04430140 		.word	1073824516
 862 0070 04480140 		.word	1073825796
 863 0074 014C0140 		.word	1073826817
ARM GAS  C:\Users\Admin\AppData\Local\Temp\ccY68vTi.s 			page 30


 864 0078 074D0140 		.word	1073827079
 865 007c 04500140 		.word	1073827844
 866 0080 01510140 		.word	1073828097
 867              		.align	2
 868              		.type	cy_cfg_data_table.5283, %object
 869              		.size	cy_cfg_data_table.5283, 576
 870              	cy_cfg_data_table.5283:
 871 0084 61       		.byte	97
 872 0085 80       		.byte	-128
 873 0086 88       		.byte	-120
 874 0087 38       		.byte	56
 875 0088 89       		.byte	-119
 876 0089 72       		.byte	114
 877 008a 8A       		.byte	-118
 878 008b 0F       		.byte	15
 879 008c E2       		.byte	-30
 880 008d 08       		.byte	8
 881 008e 00       		.byte	0
 882 008f 08       		.byte	8
 883 0090 0A       		.byte	10
 884 0091 02       		.byte	2
 885 0092 0E       		.byte	14
 886 0093 02       		.byte	2
 887 0094 12       		.byte	18
 888 0095 01       		.byte	1
 889 0096 1C       		.byte	28
 890 0097 04       		.byte	4
 891 0098 26       		.byte	38
 892 0099 01       		.byte	1
 893 009a 30       		.byte	48
 894 009b 04       		.byte	4
 895 009c 32       		.byte	50
 896 009d 02       		.byte	2
 897 009e 34       		.byte	52
 898 009f 08       		.byte	8
 899 00a0 36       		.byte	54
 900 00a1 01       		.byte	1
 901 00a2 3E       		.byte	62
 902 00a3 55       		.byte	85
 903 00a4 54       		.byte	84
 904 00a5 18       		.byte	24
 905 00a6 56       		.byte	86
 906 00a7 04       		.byte	4
 907 00a8 58       		.byte	88
 908 00a9 04       		.byte	4
 909 00aa 5B       		.byte	91
 910 00ab 04       		.byte	4
 911 00ac 5F       		.byte	95
 912 00ad 01       		.byte	1
 913 00ae 01       		.byte	1
 914 00af 20       		.byte	32
 915 00b0 02       		.byte	2
 916 00b1 02       		.byte	2
 917 00b2 03       		.byte	3
 918 00b3 A0       		.byte	-96
 919 00b4 04       		.byte	4
 920 00b5 20       		.byte	32
ARM GAS  C:\Users\Admin\AppData\Local\Temp\ccY68vTi.s 			page 31


 921 00b6 05       		.byte	5
 922 00b7 02       		.byte	2
 923 00b8 07       		.byte	7
 924 00b9 02       		.byte	2
 925 00ba 09       		.byte	9
 926 00bb 28       		.byte	40
 927 00bc 0A       		.byte	10
 928 00bd 40       		.byte	64
 929 00be 0B       		.byte	11
 930 00bf 01       		.byte	1
 931 00c0 0D       		.byte	13
 932 00c1 81       		.byte	-127
 933 00c2 10       		.byte	16
 934 00c3 80       		.byte	-128
 935 00c4 13       		.byte	19
 936 00c5 54       		.byte	84
 937 00c6 14       		.byte	20
 938 00c7 20       		.byte	32
 939 00c8 17       		.byte	23
 940 00c9 08       		.byte	8
 941 00ca 19       		.byte	25
 942 00cb 11       		.byte	17
 943 00cc 1A       		.byte	26
 944 00cd 50       		.byte	80
 945 00ce 1B       		.byte	27
 946 00cf A0       		.byte	-96
 947 00d0 1D       		.byte	29
 948 00d1 40       		.byte	64
 949 00d2 1E       		.byte	30
 950 00d3 84       		.byte	-124
 951 00d4 1F       		.byte	31
 952 00d5 04       		.byte	4
 953 00d6 21       		.byte	33
 954 00d7 04       		.byte	4
 955 00d8 22       		.byte	34
 956 00d9 01       		.byte	1
 957 00da 23       		.byte	35
 958 00db 0A       		.byte	10
 959 00dc 29       		.byte	41
 960 00dd 21       		.byte	33
 961 00de 2B       		.byte	43
 962 00df 20       		.byte	32
 963 00e0 31       		.byte	49
 964 00e1 28       		.byte	40
 965 00e2 32       		.byte	50
 966 00e3 02       		.byte	2
 967 00e4 33       		.byte	51
 968 00e5 80       		.byte	-128
 969 00e6 3A       		.byte	58
 970 00e7 42       		.byte	66
 971 00e8 3B       		.byte	59
 972 00e9 14       		.byte	20
 973 00ea 40       		.byte	64
 974 00eb 21       		.byte	33
 975 00ec 41       		.byte	65
 976 00ed 30       		.byte	48
 977 00ee 49       		.byte	73
ARM GAS  C:\Users\Admin\AppData\Local\Temp\ccY68vTi.s 			page 32


 978 00ef 10       		.byte	16
 979 00f0 4A       		.byte	74
 980 00f1 02       		.byte	2
 981 00f2 50       		.byte	80
 982 00f3 10       		.byte	16
 983 00f4 51       		.byte	81
 984 00f5 01       		.byte	1
 985 00f6 5A       		.byte	90
 986 00f7 02       		.byte	2
 987 00f8 5E       		.byte	94
 988 00f9 01       		.byte	1
 989 00fa 65       		.byte	101
 990 00fb 40       		.byte	64
 991 00fc 67       		.byte	103
 992 00fd 88       		.byte	-120
 993 00fe 69       		.byte	105
 994 00ff 54       		.byte	84
 995 0100 70       		.byte	112
 996 0101 80       		.byte	-128
 997 0102 72       		.byte	114
 998 0103 02       		.byte	2
 999 0104 73       		.byte	115
 1000 0105 14       		.byte	20
 1001 0106 86       		.byte	-122
 1002 0107 40       		.byte	64
 1003 0108 87       		.byte	-121
 1004 0109 40       		.byte	64
 1005 010a 8E       		.byte	-114
 1006 010b 12       		.byte	18
 1007 010c C0       		.byte	-64
 1008 010d DF       		.byte	-33
 1009 010e C2       		.byte	-62
 1010 010f 9F       		.byte	-97
 1011 0110 C4       		.byte	-60
 1012 0111 2F       		.byte	47
 1013 0112 CA       		.byte	-54
 1014 0113 07       		.byte	7
 1015 0114 CC       		.byte	-52
 1016 0115 0F       		.byte	15
 1017 0116 CE       		.byte	-50
 1018 0117 0F       		.byte	15
 1019 0118 D0       		.byte	-48
 1020 0119 0E       		.byte	14
 1021 011a D2       		.byte	-46
 1022 011b 0C       		.byte	12
 1023 011c D6       		.byte	-42
 1024 011d 81       		.byte	-127
 1025 011e D8       		.byte	-40
 1026 011f B0       		.byte	-80
 1027 0120 E4       		.byte	-28
 1028 0121 02       		.byte	2
 1029 0122 00       		.byte	0
 1030 0123 80       		.byte	-128
 1031 0124 01       		.byte	1
 1032 0125 02       		.byte	2
 1033 0126 02       		.byte	2
 1034 0127 20       		.byte	32
ARM GAS  C:\Users\Admin\AppData\Local\Temp\ccY68vTi.s 			page 33


 1035 0128 03       		.byte	3
 1036 0129 29       		.byte	41
 1037 012a 04       		.byte	4
 1038 012b 0A       		.byte	10
 1039 012c 05       		.byte	5
 1040 012d 13       		.byte	19
 1041 012e 06       		.byte	6
 1042 012f 14       		.byte	20
 1043 0130 08       		.byte	8
 1044 0131 20       		.byte	32
 1045 0132 09       		.byte	9
 1046 0133 13       		.byte	19
 1047 0134 0A       		.byte	10
 1048 0135 C0       		.byte	-64
 1049 0136 0D       		.byte	13
 1050 0137 10       		.byte	16
 1051 0138 0E       		.byte	14
 1052 0139 08       		.byte	8
 1053 013a 10       		.byte	16
 1054 013b 13       		.byte	19
 1055 013c 12       		.byte	18
 1056 013d 0C       		.byte	12
 1057 013e 14       		.byte	20
 1058 013f 13       		.byte	19
 1059 0140 15       		.byte	21
 1060 0141 01       		.byte	1
 1061 0142 16       		.byte	22
 1062 0143 04       		.byte	4
 1063 0144 17       		.byte	23
 1064 0145 0A       		.byte	10
 1065 0146 18       		.byte	24
 1066 0147 40       		.byte	64
 1067 0148 1A       		.byte	26
 1068 0149 20       		.byte	32
 1069 014a 1E       		.byte	30
 1070 014b 15       		.byte	21
 1071 014c 20       		.byte	32
 1072 014d 03       		.byte	3
 1073 014e 22       		.byte	34
 1074 014f 14       		.byte	20
 1075 0150 24       		.byte	36
 1076 0151 E0       		.byte	-32
 1077 0152 28       		.byte	40
 1078 0153 E0       		.byte	-32
 1079 0154 2B       		.byte	43
 1080 0155 04       		.byte	4
 1081 0156 30       		.byte	48
 1082 0157 0F       		.byte	15
 1083 0158 31       		.byte	49
 1084 0159 20       		.byte	32
 1085 015a 33       		.byte	51
 1086 015b 03       		.byte	3
 1087 015c 34       		.byte	52
 1088 015d E0       		.byte	-32
 1089 015e 35       		.byte	53
 1090 015f 10       		.byte	16
 1091 0160 36       		.byte	54
ARM GAS  C:\Users\Admin\AppData\Local\Temp\ccY68vTi.s 			page 34


 1092 0161 10       		.byte	16
 1093 0162 37       		.byte	55
 1094 0163 0C       		.byte	12
 1095 0164 3A       		.byte	58
 1096 0165 02       		.byte	2
 1097 0166 3E       		.byte	62
 1098 0167 40       		.byte	64
 1099 0168 3F       		.byte	63
 1100 0169 40       		.byte	64
 1101 016a 40       		.byte	64
 1102 016b 43       		.byte	67
 1103 016c 41       		.byte	65
 1104 016d 02       		.byte	2
 1105 016e 45       		.byte	69
 1106 016f E0       		.byte	-32
 1107 0170 46       		.byte	70
 1108 0171 0C       		.byte	12
 1109 0172 47       		.byte	71
 1110 0173 0B       		.byte	11
 1111 0174 48       		.byte	72
 1112 0175 16       		.byte	22
 1113 0176 49       		.byte	73
 1114 0177 FF       		.byte	-1
 1115 0178 4A       		.byte	74
 1116 0179 FF       		.byte	-1
 1117 017a 4B       		.byte	75
 1118 017b FF       		.byte	-1
 1119 017c 4E       		.byte	78
 1120 017d F0       		.byte	-16
 1121 017e 4F       		.byte	79
 1122 017f 44       		.byte	68
 1123 0180 50       		.byte	80
 1124 0181 0C       		.byte	12
 1125 0182 54       		.byte	84
 1126 0183 01       		.byte	1
 1127 0184 58       		.byte	88
 1128 0185 04       		.byte	4
 1129 0186 59       		.byte	89
 1130 0187 04       		.byte	4
 1131 0188 5A       		.byte	90
 1132 0189 04       		.byte	4
 1133 018a 5B       		.byte	91
 1134 018b 04       		.byte	4
 1135 018c 5F       		.byte	95
 1136 018d 01       		.byte	1
 1137 018e 66       		.byte	102
 1138 018f C0       		.byte	-64
 1139 0190 6A       		.byte	106
 1140 0191 40       		.byte	64
 1141 0192 6B       		.byte	107
 1142 0193 02       		.byte	2
 1143 0194 86       		.byte	-122
 1144 0195 20       		.byte	32
 1145 0196 87       		.byte	-121
 1146 0197 08       		.byte	8
 1147 0198 88       		.byte	-120
 1148 0199 DC       		.byte	-36
ARM GAS  C:\Users\Admin\AppData\Local\Temp\ccY68vTi.s 			page 35


 1149 019a 89       		.byte	-119
 1150 019b 80       		.byte	-128
 1151 019c 8A       		.byte	-118
 1152 019d 22       		.byte	34
 1153 019e 8B       		.byte	-117
 1154 019f 13       		.byte	19
 1155 01a0 90       		.byte	-112
 1156 01a1 10       		.byte	16
 1157 01a2 92       		.byte	-110
 1158 01a3 AC       		.byte	-84
 1159 01a4 93       		.byte	-109
 1160 01a5 0C       		.byte	12
 1161 01a6 94       		.byte	-108
 1162 01a7 0C       		.byte	12
 1163 01a8 95       		.byte	-107
 1164 01a9 2C       		.byte	44
 1165 01aa 96       		.byte	-106
 1166 01ab 71       		.byte	113
 1167 01ac 97       		.byte	-105
 1168 01ad 43       		.byte	67
 1169 01ae 9E       		.byte	-98
 1170 01af 03       		.byte	3
 1171 01b0 A0       		.byte	-96
 1172 01b1 09       		.byte	9
 1173 01b2 A2       		.byte	-94
 1174 01b3 D0       		.byte	-48
 1175 01b4 A4       		.byte	-92
 1176 01b5 14       		.byte	20
 1177 01b6 A5       		.byte	-91
 1178 01b7 71       		.byte	113
 1179 01b8 A7       		.byte	-89
 1180 01b9 0E       		.byte	14
 1181 01ba A8       		.byte	-88
 1182 01bb 10       		.byte	16
 1183 01bc AA       		.byte	-86
 1184 01bd 40       		.byte	64
 1185 01be AD       		.byte	-83
 1186 01bf 71       		.byte	113
 1187 01c0 AF       		.byte	-81
 1188 01c1 06       		.byte	6
 1189 01c2 B3       		.byte	-77
 1190 01c3 30       		.byte	48
 1191 01c4 B4       		.byte	-76
 1192 01c5 E0       		.byte	-32
 1193 01c6 B5       		.byte	-75
 1194 01c7 0F       		.byte	15
 1195 01c8 B6       		.byte	-74
 1196 01c9 1F       		.byte	31
 1197 01ca B7       		.byte	-73
 1198 01cb C0       		.byte	-64
 1199 01cc B9       		.byte	-71
 1200 01cd 88       		.byte	-120
 1201 01ce BA       		.byte	-70
 1202 01cf 20       		.byte	32
 1203 01d0 BB       		.byte	-69
 1204 01d1 20       		.byte	32
 1205 01d2 BF       		.byte	-65
ARM GAS  C:\Users\Admin\AppData\Local\Temp\ccY68vTi.s 			page 36


 1206 01d3 04       		.byte	4
 1207 01d4 C0       		.byte	-64
 1208 01d5 02       		.byte	2
 1209 01d6 C7       		.byte	-57
 1210 01d7 04       		.byte	4
 1211 01d8 C9       		.byte	-55
 1212 01d9 FF       		.byte	-1
 1213 01da CA       		.byte	-54
 1214 01db 07       		.byte	7
 1215 01dc CB       		.byte	-53
 1216 01dd FF       		.byte	-1
 1217 01de CC       		.byte	-52
 1218 01df 40       		.byte	64
 1219 01e0 CD       		.byte	-51
 1220 01e1 20       		.byte	32
 1221 01e2 CE       		.byte	-50
 1222 01e3 F0       		.byte	-16
 1223 01e4 CF       		.byte	-49
 1224 01e5 05       		.byte	5
 1225 01e6 D0       		.byte	-48
 1226 01e7 08       		.byte	8
 1227 01e8 D6       		.byte	-42
 1228 01e9 08       		.byte	8
 1229 01ea D8       		.byte	-40
 1230 01eb 04       		.byte	4
 1231 01ec D9       		.byte	-39
 1232 01ed 04       		.byte	4
 1233 01ee DA       		.byte	-38
 1234 01ef 04       		.byte	4
 1235 01f0 DB       		.byte	-37
 1236 01f1 04       		.byte	4
 1237 01f2 DD       		.byte	-35
 1238 01f3 90       		.byte	-112
 1239 01f4 DF       		.byte	-33
 1240 01f5 01       		.byte	1
 1241 01f6 E0       		.byte	-32
 1242 01f7 40       		.byte	64
 1243 01f8 E1       		.byte	-31
 1244 01f9 A8       		.byte	-88
 1245 01fa E2       		.byte	-30
 1246 01fb 40       		.byte	64
 1247 01fc E3       		.byte	-29
 1248 01fd 20       		.byte	32
 1249 01fe 00       		.byte	0
 1250 01ff 04       		.byte	4
 1251 0200 01       		.byte	1
 1252 0201 20       		.byte	32
 1253 0202 02       		.byte	2
 1254 0203 40       		.byte	64
 1255 0204 03       		.byte	3
 1256 0205 01       		.byte	1
 1257 0206 06       		.byte	6
 1258 0207 20       		.byte	32
 1259 0208 07       		.byte	7
 1260 0209 08       		.byte	8
 1261 020a 0A       		.byte	10
 1262 020b 59       		.byte	89
ARM GAS  C:\Users\Admin\AppData\Local\Temp\ccY68vTi.s 			page 37


 1263 020c 0B       		.byte	11
 1264 020d 20       		.byte	32
 1265 020e 0D       		.byte	13
 1266 020f 80       		.byte	-128
 1267 0210 0E       		.byte	14
 1268 0211 50       		.byte	80
 1269 0212 10       		.byte	16
 1270 0213 80       		.byte	-128
 1271 0214 11       		.byte	17
 1272 0215 14       		.byte	20
 1273 0216 15       		.byte	21
 1274 0217 08       		.byte	8
 1275 0218 16       		.byte	22
 1276 0219 04       		.byte	4
 1277 021a 17       		.byte	23
 1278 021b 01       		.byte	1
 1279 021c 19       		.byte	25
 1280 021d A0       		.byte	-96
 1281 021e 1A       		.byte	26
 1282 021f 40       		.byte	64
 1283 0220 1D       		.byte	29
 1284 0221 80       		.byte	-128
 1285 0222 1F       		.byte	31
 1286 0223 30       		.byte	48
 1287 0224 20       		.byte	32
 1288 0225 01       		.byte	1
 1289 0226 21       		.byte	33
 1290 0227 18       		.byte	24
 1291 0228 22       		.byte	34
 1292 0229 04       		.byte	4
 1293 022a 23       		.byte	35
 1294 022b 40       		.byte	64
 1295 022c 24       		.byte	36
 1296 022d 04       		.byte	4
 1297 022e 27       		.byte	39
 1298 022f 29       		.byte	41
 1299 0230 29       		.byte	41
 1300 0231 20       		.byte	32
 1301 0232 2E       		.byte	46
 1302 0233 40       		.byte	64
 1303 0234 2F       		.byte	47
 1304 0235 20       		.byte	32
 1305 0236 31       		.byte	49
 1306 0237 08       		.byte	8
 1307 0238 37       		.byte	55
 1308 0239 09       		.byte	9
 1309 023a 39       		.byte	57
 1310 023b 54       		.byte	84
 1311 023c 3B       		.byte	59
 1312 023d 01       		.byte	1
 1313 023e 3E       		.byte	62
 1314 023f 08       		.byte	8
 1315 0240 3F       		.byte	63
 1316 0241 20       		.byte	32
 1317 0242 42       		.byte	66
 1318 0243 60       		.byte	96
 1319 0244 43       		.byte	67
ARM GAS  C:\Users\Admin\AppData\Local\Temp\ccY68vTi.s 			page 38


 1320 0245 20       		.byte	32
 1321 0246 47       		.byte	71
 1322 0247 20       		.byte	32
 1323 0248 49       		.byte	73
 1324 0249 02       		.byte	2
 1325 024a 50       		.byte	80
 1326 024b 80       		.byte	-128
 1327 024c 51       		.byte	81
 1328 024d 04       		.byte	4
 1329 024e 56       		.byte	86
 1330 024f 2C       		.byte	44
 1331 0250 57       		.byte	87
 1332 0251 10       		.byte	16
 1333 0252 59       		.byte	89
 1334 0253 82       		.byte	-126
 1335 0254 5A       		.byte	90
 1336 0255 04       		.byte	4
 1337 0256 5B       		.byte	91
 1338 0257 10       		.byte	16
 1339 0258 5C       		.byte	92
 1340 0259 80       		.byte	-128
 1341 025a 66       		.byte	102
 1342 025b 40       		.byte	64
 1343 025c 67       		.byte	103
 1344 025d 01       		.byte	1
 1345 025e 80       		.byte	-128
 1346 025f 80       		.byte	-128
 1347 0260 83       		.byte	-125
 1348 0261 10       		.byte	16
 1349 0262 8A       		.byte	-118
 1350 0263 21       		.byte	33
 1351 0264 8C       		.byte	-116
 1352 0265 80       		.byte	-128
 1353 0266 91       		.byte	-111
 1354 0267 54       		.byte	84
 1355 0268 92       		.byte	-110
 1356 0269 04       		.byte	4
 1357 026a 94       		.byte	-108
 1358 026b 01       		.byte	1
 1359 026c 95       		.byte	-107
 1360 026d 20       		.byte	32
 1361 026e 97       		.byte	-105
 1362 026f 41       		.byte	65
 1363 0270 9D       		.byte	-99
 1364 0271 22       		.byte	34
 1365 0272 9E       		.byte	-98
 1366 0273 40       		.byte	64
 1367 0274 A5       		.byte	-91
 1368 0275 88       		.byte	-120
 1369 0276 B1       		.byte	-79
 1370 0277 04       		.byte	4
 1371 0278 B2       		.byte	-78
 1372 0279 01       		.byte	1
 1373 027a C0       		.byte	-64
 1374 027b 6F       		.byte	111
 1375 027c C2       		.byte	-62
 1376 027d BF       		.byte	-65
ARM GAS  C:\Users\Admin\AppData\Local\Temp\ccY68vTi.s 			page 39


 1377 027e C4       		.byte	-60
 1378 027f 7E       		.byte	126
 1379 0280 CA       		.byte	-54
 1380 0281 54       		.byte	84
 1381 0282 CC       		.byte	-52
 1382 0283 C2       		.byte	-62
 1383 0284 CE       		.byte	-50
 1384 0285 6F       		.byte	111
 1385 0286 D0       		.byte	-48
 1386 0287 27       		.byte	39
 1387 0288 D6       		.byte	-42
 1388 0289 1F       		.byte	31
 1389 028a D8       		.byte	-40
 1390 028b 10       		.byte	16
 1391 028c 33       		.byte	51
 1392 028d 80       		.byte	-128
 1393 028e 35       		.byte	53
 1394 028f 80       		.byte	-128
 1395 0290 CC       		.byte	-52
 1396 0291 30       		.byte	48
 1397 0292 9D       		.byte	-99
 1398 0293 80       		.byte	-128
 1399 0294 A7       		.byte	-89
 1400 0295 80       		.byte	-128
 1401 0296 9D       		.byte	-99
 1402 0297 80       		.byte	-128
 1403 0298 A7       		.byte	-89
 1404 0299 80       		.byte	-128
 1405 029a 2F       		.byte	47
 1406 029b 04       		.byte	4
 1407 029c 9D       		.byte	-99
 1408 029d 80       		.byte	-128
 1409 029e A7       		.byte	-89
 1410 029f 80       		.byte	-128
 1411 02a0 CA       		.byte	-54
 1412 02a1 20       		.byte	32
 1413 02a2 85       		.byte	-123
 1414 02a3 80       		.byte	-128
 1415 02a4 9D       		.byte	-99
 1416 02a5 80       		.byte	-128
 1417 02a6 AF       		.byte	-81
 1418 02a7 84       		.byte	-124
 1419 02a8 E2       		.byte	-30
 1420 02a9 10       		.byte	16
 1421 02aa 87       		.byte	-121
 1422 02ab 40       		.byte	64
 1423 02ac 12       		.byte	18
 1424 02ad 20       		.byte	32
 1425 02ae 73       		.byte	115
 1426 02af 40       		.byte	64
 1427 02b0 8E       		.byte	-114
 1428 02b1 20       		.byte	32
 1429 02b2 93       		.byte	-109
 1430 02b3 40       		.byte	64
 1431 02b4 C4       		.byte	-60
 1432 02b5 08       		.byte	8
 1433 02b6 DC       		.byte	-36
ARM GAS  C:\Users\Admin\AppData\Local\Temp\ccY68vTi.s 			page 40


 1434 02b7 01       		.byte	1
 1435 02b8 E2       		.byte	-30
 1436 02b9 08       		.byte	8
 1437 02ba 10       		.byte	16
 1438 02bb 01       		.byte	1
 1439 02bc 11       		.byte	17
 1440 02bd 01       		.byte	1
 1441 02be 1C       		.byte	28
 1442 02bf 01       		.byte	1
 1443 02c0 1D       		.byte	29
 1444 02c1 01       		.byte	1
 1445 02c2 00       		.byte	0
 1446 02c3 0E       		.byte	14
 1447              		.align	2
 1448              		.type	BS_IOPINS0_7_VAL.5279, %object
 1449              		.size	BS_IOPINS0_7_VAL.5279, 10
 1450              	BS_IOPINS0_7_VAL.5279:
 1451 02c4 80       		.byte	-128
 1452 02c5 00       		.byte	0
 1453 02c6 40       		.byte	64
 1454 02c7 80       		.byte	-128
 1455 02c8 80       		.byte	-128
 1456 02c9 00       		.byte	0
 1457 02ca 80       		.byte	-128
 1458 02cb 00       		.byte	0
 1459 02cc 00       		.byte	0
 1460 02cd 00       		.byte	0
 1461 02ce 0000     		.align	2
 1462              		.type	BS_IOPINS0_1_VAL.5280, %object
 1463              		.size	BS_IOPINS0_1_VAL.5280, 8
 1464              	BS_IOPINS0_1_VAL.5280:
 1465 02d0 00       		.byte	0
 1466 02d1 0B       		.byte	11
 1467 02d2 0B       		.byte	11
 1468 02d3 00       		.byte	0
 1469 02d4 00       		.byte	0
 1470 02d5 00       		.byte	0
 1471 02d6 00       		.byte	0
 1472 02d7 00       		.byte	0
 1473              		.align	2
 1474              		.type	BS_IOPINS0_2_VAL.5281, %object
 1475              		.size	BS_IOPINS0_2_VAL.5281, 8
 1476              	BS_IOPINS0_2_VAL.5281:
 1477 02d8 00       		.byte	0
 1478 02d9 7F       		.byte	127
 1479 02da 7F       		.byte	127
 1480 02db 00       		.byte	0
 1481 02dc 00       		.byte	0
 1482 02dd 00       		.byte	0
 1483 02de 00       		.byte	0
 1484 02df 00       		.byte	0
 1485              		.align	2
 1486              		.type	BS_UDB_0_1_0_CONFIG_VAL.5294, %object
 1487              		.size	BS_UDB_0_1_0_CONFIG_VAL.5294, 128
 1488              	BS_UDB_0_1_0_CONFIG_VAL.5294:
 1489 02e0 4C       		.byte	76
 1490 02e1 40       		.byte	64
ARM GAS  C:\Users\Admin\AppData\Local\Temp\ccY68vTi.s 			page 41


 1491 02e2 A3       		.byte	-93
 1492 02e3 00       		.byte	0
 1493 02e4 FF       		.byte	-1
 1494 02e5 20       		.byte	32
 1495 02e6 00       		.byte	0
 1496 02e7 00       		.byte	0
 1497 02e8 03       		.byte	3
 1498 02e9 60       		.byte	96
 1499 02ea 00       		.byte	0
 1500 02eb 00       		.byte	0
 1501 02ec F3       		.byte	-13
 1502 02ed 02       		.byte	2
 1503 02ee 0C       		.byte	12
 1504 02ef 00       		.byte	0
 1505 02f0 4F       		.byte	79
 1506 02f1 1F       		.byte	31
 1507 02f2 90       		.byte	-112
 1508 02f3 60       		.byte	96
 1509 02f4 01       		.byte	1
 1510 02f5 01       		.byte	1
 1511 02f6 00       		.byte	0
 1512 02f7 00       		.byte	0
 1513 02f8 00       		.byte	0
 1514 02f9 00       		.byte	0
 1515 02fa B3       		.byte	-77
 1516 02fb 13       		.byte	19
 1517 02fc 42       		.byte	66
 1518 02fd 74       		.byte	116
 1519 02fe 00       		.byte	0
 1520 02ff 0B       		.byte	11
 1521 0300 08       		.byte	8
 1522 0301 64       		.byte	100
 1523 0302 00       		.byte	0
 1524 0303 1B       		.byte	27
 1525 0304 04       		.byte	4
 1526 0305 7F       		.byte	127
 1527 0306 00       		.byte	0
 1528 0307 00       		.byte	0
 1529 0308 0C       		.byte	12
 1530 0309 03       		.byte	3
 1531 030a 00       		.byte	0
 1532 030b 00       		.byte	0
 1533 030c 00       		.byte	0
 1534 030d 00       		.byte	0
 1535 030e 40       		.byte	64
 1536 030f 00       		.byte	0
 1537 0310 8C       		.byte	-116
 1538 0311 04       		.byte	4
 1539 0312 0F       		.byte	15
 1540 0313 03       		.byte	3
 1541 0314 00       		.byte	0
 1542 0315 70       		.byte	112
 1543 0316 7C       		.byte	124
 1544 0317 08       		.byte	8
 1545 0318 00       		.byte	0
 1546 0319 80       		.byte	-128
 1547 031a AA       		.byte	-86
ARM GAS  C:\Users\Admin\AppData\Local\Temp\ccY68vTi.s 			page 42


 1548 031b 00       		.byte	0
 1549 031c 00       		.byte	0
 1550 031d 00       		.byte	0
 1551 031e 00       		.byte	0
 1552 031f 01       		.byte	1
 1553 0320 52       		.byte	82
 1554 0321 06       		.byte	6
 1555 0322 03       		.byte	3
 1556 0323 00       		.byte	0
 1557 0324 01       		.byte	1
 1558 0325 00       		.byte	0
 1559 0326 E0       		.byte	-32
 1560 0327 C0       		.byte	-64
 1561 0328 28       		.byte	40
 1562 0329 FF       		.byte	-1
 1563 032a FF       		.byte	-1
 1564 032b FF       		.byte	-1
 1565 032c 62       		.byte	98
 1566 032d A0       		.byte	-96
 1567 032e F0       		.byte	-16
 1568 032f 41       		.byte	65
 1569 0330 0C       		.byte	12
 1570 0331 00       		.byte	0
 1571 0332 00       		.byte	0
 1572 0333 00       		.byte	0
 1573 0334 00       		.byte	0
 1574 0335 00       		.byte	0
 1575 0336 02       		.byte	2
 1576 0337 13       		.byte	19
 1577 0338 04       		.byte	4
 1578 0339 04       		.byte	4
 1579 033a 04       		.byte	4
 1580 033b 04       		.byte	4
 1581 033c 00       		.byte	0
 1582 033d 00       		.byte	0
 1583 033e 00       		.byte	0
 1584 033f 01       		.byte	1
 1585 0340 00       		.byte	0
 1586 0341 00       		.byte	0
 1587 0342 00       		.byte	0
 1588 0343 00       		.byte	0
 1589 0344 00       		.byte	0
 1590 0345 00       		.byte	0
 1591 0346 40       		.byte	64
 1592 0347 02       		.byte	2
 1593 0348 00       		.byte	0
 1594 0349 10       		.byte	16
 1595 034a 30       		.byte	48
 1596 034b 10       		.byte	16
 1597 034c 00       		.byte	0
 1598 034d 10       		.byte	16
 1599 034e 10       		.byte	16
 1600 034f 12       		.byte	18
 1601 0350 00       		.byte	0
 1602 0351 00       		.byte	0
 1603 0352 00       		.byte	0
 1604 0353 00       		.byte	0
ARM GAS  C:\Users\Admin\AppData\Local\Temp\ccY68vTi.s 			page 43


 1605 0354 00       		.byte	0
 1606 0355 00       		.byte	0
 1607 0356 00       		.byte	0
 1608 0357 00       		.byte	0
 1609 0358 00       		.byte	0
 1610 0359 00       		.byte	0
 1611 035a 00       		.byte	0
 1612 035b 00       		.byte	0
 1613 035c 00       		.byte	0
 1614 035d 00       		.byte	0
 1615 035e 00       		.byte	0
 1616 035f 00       		.byte	0
 1617              		.text
 1618              	.Letext0:
 1619              		.file 2 "c:\\program files (x86)\\cypress\\psoc creator\\4.3\\psoc creator\\import\\gnu\\arm\\5.4.
 1620              		.file 3 "Generated_Source\\PSoC5\\cytypes.h"
 1621              		.file 4 "./cyapicallbacks.h"