ARM GAS  C:\Users\Admin\AppData\Local\Temp\cc4n2E7w.s 			page 1


   1              		.syntax unified
   2              		.cpu cortex-m3
   3              		.fpu softvfp
   4              		.eabi_attribute 20, 1
   5              		.eabi_attribute 21, 1
   6              		.eabi_attribute 23, 3
   7              		.eabi_attribute 24, 1
   8              		.eabi_attribute 25, 1
   9              		.eabi_attribute 26, 1
  10              		.eabi_attribute 30, 6
  11              		.eabi_attribute 34, 1
  12              		.eabi_attribute 18, 4
  13              		.thumb
  14              		.syntax unified
  15              		.file	"RTC.c"
  16              		.text
  17              	.Ltext0:
  18              		.cfi_sections	.debug_frame
  19              		.global	RTC_initVar
  20              		.bss
  21              		.type	RTC_initVar, %object
  22              		.size	RTC_initVar, 1
  23              	RTC_initVar:
  24 0000 00       		.space	1
  25              		.global	RTC_currentTimeDate
  26              		.data
  27              		.align	2
  28              		.type	RTC_currentTimeDate, %object
  29              		.size	RTC_currentTimeDate, 12
  30              	RTC_currentTimeDate:
  31 0000 00       		.byte	0
  32 0001 00       		.byte	0
  33 0002 00       		.byte	0
  34 0003 01       		.byte	1
  35 0004 01       		.byte	1
  36 0005 00       		.space	1
  37 0006 0100     		.short	1
  38 0008 01       		.byte	1
  39 0009 00       		.space	1
  40 000a 6C07     		.short	1900
  41              		.global	RTC_alarmCfgTimeDate
  42              		.align	2
  43              		.type	RTC_alarmCfgTimeDate, %object
  44              		.size	RTC_alarmCfgTimeDate, 12
  45              	RTC_alarmCfgTimeDate:
  46 000c 00       		.byte	0
  47 000d 00       		.byte	0
  48 000e 00       		.byte	0
  49 000f 01       		.byte	1
  50 0010 01       		.byte	1
  51 0011 00       		.space	1
  52 0012 0100     		.short	1
  53 0014 01       		.byte	1
  54 0015 00       		.space	1
  55 0016 6C07     		.short	1900
  56              		.global	RTC_dstModeType
  57              		.bss
ARM GAS  C:\Users\Admin\AppData\Local\Temp\cc4n2E7w.s 			page 2


  58              		.type	RTC_dstModeType, %object
  59              		.size	RTC_dstModeType, 1
  60              	RTC_dstModeType:
  61 0001 00       		.space	1
  62              		.global	RTC_dstTimeDateStart
  63              		.data
  64              		.align	2
  65              		.type	RTC_dstTimeDateStart, %object
  66              		.size	RTC_dstTimeDateStart, 5
  67              	RTC_dstTimeDateStart:
  68 0018 00       		.byte	0
  69 0019 01       		.byte	1
  70 001a 01       		.byte	1
  71 001b 01       		.byte	1
  72 001c 01       		.byte	1
  73              		.global	RTC_dstTimeDateStop
  74 001d 000000   		.align	2
  75              		.type	RTC_dstTimeDateStop, %object
  76              		.size	RTC_dstTimeDateStop, 5
  77              	RTC_dstTimeDateStop:
  78 0020 00       		.byte	0
  79 0021 01       		.byte	1
  80 0022 01       		.byte	1
  81 0023 01       		.byte	1
  82 0024 01       		.byte	1
  83              		.global	RTC_dstOffsetMin
  84              		.bss
  85              		.type	RTC_dstOffsetMin, %object
  86              		.size	RTC_dstOffsetMin, 1
  87              	RTC_dstOffsetMin:
  88 0002 00       		.space	1
  89              		.global	RTC_dstStartStatus
  90              		.type	RTC_dstStartStatus, %object
  91              		.size	RTC_dstStartStatus, 1
  92              	RTC_dstStartStatus:
  93 0003 00       		.space	1
  94              		.global	RTC_dstStopStatus
  95              		.type	RTC_dstStopStatus, %object
  96              		.size	RTC_dstStopStatus, 1
  97              	RTC_dstStopStatus:
  98 0004 00       		.space	1
  99              		.global	RTC_alarmCfgMask
 100              		.type	RTC_alarmCfgMask, %object
 101              		.size	RTC_alarmCfgMask, 1
 102              	RTC_alarmCfgMask:
 103 0005 00       		.space	1
 104              		.global	RTC_alarmCurStatus
 105              		.type	RTC_alarmCurStatus, %object
 106              		.size	RTC_alarmCurStatus, 1
 107              	RTC_alarmCurStatus:
 108 0006 00       		.space	1
 109              		.global	RTC_intervalCfgMask
 110              		.type	RTC_intervalCfgMask, %object
 111              		.size	RTC_intervalCfgMask, 1
 112              	RTC_intervalCfgMask:
 113 0007 00       		.space	1
 114              		.global	RTC_statusDateTime
ARM GAS  C:\Users\Admin\AppData\Local\Temp\cc4n2E7w.s 			page 3


 115              		.type	RTC_statusDateTime, %object
 116              		.size	RTC_statusDateTime, 1
 117              	RTC_statusDateTime:
 118 0008 00       		.space	1
 119              		.global	RTC_daysInMonths
 120              		.section	.rodata
 121              		.align	2
 122              		.type	RTC_daysInMonths, %object
 123              		.size	RTC_daysInMonths, 12
 124              	RTC_daysInMonths:
 125 0000 1F       		.byte	31
 126 0001 1C       		.byte	28
 127 0002 1F       		.byte	31
 128 0003 1E       		.byte	30
 129 0004 1F       		.byte	31
 130 0005 1E       		.byte	30
 131 0006 1F       		.byte	31
 132 0007 1F       		.byte	31
 133 0008 1E       		.byte	30
 134 0009 1F       		.byte	31
 135 000a 1E       		.byte	30
 136 000b 1F       		.byte	31
 137              		.section	.text.RTC_Start,"ax",%progbits
 138              		.align	2
 139              		.global	RTC_Start
 140              		.thumb
 141              		.thumb_func
 142              		.type	RTC_Start, %function
 143              	RTC_Start:
 144              	.LFB0:
 145              		.file 1 "Generated_Source\\PSoC5\\RTC.c"
   1:Generated_Source\PSoC5/RTC.c **** /*******************************************************************************
   2:Generated_Source\PSoC5/RTC.c **** * File Name: RTC.c
   3:Generated_Source\PSoC5/RTC.c **** * Version 2.0
   4:Generated_Source\PSoC5/RTC.c **** *
   5:Generated_Source\PSoC5/RTC.c **** * Description:
   6:Generated_Source\PSoC5/RTC.c **** *  This file provides the source code to the API for the RTC Component.
   7:Generated_Source\PSoC5/RTC.c **** *
   8:Generated_Source\PSoC5/RTC.c **** ********************************************************************************
   9:Generated_Source\PSoC5/RTC.c **** * Copyright 2008-2013, Cypress Semiconductor Corporation.  All rights reserved.
  10:Generated_Source\PSoC5/RTC.c **** * You may use this file only in accordance with the license, terms, conditions,
  11:Generated_Source\PSoC5/RTC.c **** * disclaimers, and limitations in the end user license agreement accompanying
  12:Generated_Source\PSoC5/RTC.c **** * the software package with which this file was provided.
  13:Generated_Source\PSoC5/RTC.c **** *******************************************************************************/
  14:Generated_Source\PSoC5/RTC.c **** 
  15:Generated_Source\PSoC5/RTC.c **** #include "RTC.h"
  16:Generated_Source\PSoC5/RTC.c **** #include "CyLib.h"
  17:Generated_Source\PSoC5/RTC.c **** 
  18:Generated_Source\PSoC5/RTC.c **** /* Function Prototypes */
  19:Generated_Source\PSoC5/RTC.c **** static void  RTC_SetInitValues(void)     ;
  20:Generated_Source\PSoC5/RTC.c **** static uint8 RTC_DayOfWeek(uint8 dayOfMonth, uint8 month, uint16 year)
  21:Generated_Source\PSoC5/RTC.c ****                                                       ;
  22:Generated_Source\PSoC5/RTC.c **** #if (1u == RTC_DST_FUNC_ENABLE)
  23:Generated_Source\PSoC5/RTC.c ****     static void  RTC_DSTDateConversion(void) ;
  24:Generated_Source\PSoC5/RTC.c **** #endif /* 1u == RTC_DST_FUNC_ENABLE */
  25:Generated_Source\PSoC5/RTC.c **** 
  26:Generated_Source\PSoC5/RTC.c **** 
ARM GAS  C:\Users\Admin\AppData\Local\Temp\cc4n2E7w.s 			page 4


  27:Generated_Source\PSoC5/RTC.c **** /* Variables were not initialized */
  28:Generated_Source\PSoC5/RTC.c **** uint8 RTC_initVar = 0u;
  29:Generated_Source\PSoC5/RTC.c **** 
  30:Generated_Source\PSoC5/RTC.c **** /* Time and date variables
  31:Generated_Source\PSoC5/RTC.c **** * Initial value are: Second = 0-59, Minute = 0-59, Hour = 0-23, DayOfWeek = 1-7,
  32:Generated_Source\PSoC5/RTC.c **** * DayOfMonth = 1-31, DayOfYear = 1-366, Month = 1-12, Year = 1900-2200.
  33:Generated_Source\PSoC5/RTC.c **** */
  34:Generated_Source\PSoC5/RTC.c **** RTC_TIME_DATE RTC_currentTimeDate = {0u, 0u, 0u, 1u, 1u, 1u, 1u, 1900u};
  35:Generated_Source\PSoC5/RTC.c **** 
  36:Generated_Source\PSoC5/RTC.c **** /* Alarm time and date variables
  37:Generated_Source\PSoC5/RTC.c **** * Initial value are: Second = 0-59, Minute = 0-59, Hour = 0-23, DayOfWeek = 1-7,
  38:Generated_Source\PSoC5/RTC.c **** * DayOfMonth = 1-31, DayOfYear = 1-366, Month = 1-12, Year = 1900-2200.
  39:Generated_Source\PSoC5/RTC.c **** */
  40:Generated_Source\PSoC5/RTC.c **** RTC_TIME_DATE RTC_alarmCfgTimeDate = {0u, 0u, 0u, 1u, 1u, 1u, 1u, 1900u};
  41:Generated_Source\PSoC5/RTC.c **** 
  42:Generated_Source\PSoC5/RTC.c **** #if (1u == RTC_DST_FUNC_ENABLE) /* DST enabled */
  43:Generated_Source\PSoC5/RTC.c **** 
  44:Generated_Source\PSoC5/RTC.c ****     /* Define DST format: '0' - fixed, '1' - relative */
  45:Generated_Source\PSoC5/RTC.c ****     volatile uint8 RTC_dstModeType = 0u;
  46:Generated_Source\PSoC5/RTC.c **** 
  47:Generated_Source\PSoC5/RTC.c ****     /* Hour 0-23, DayOfWeek 1-7, Week 1-5, DayOfMonth 1-31, Month 1-12 */
  48:Generated_Source\PSoC5/RTC.c ****     RTC_DSTIME RTC_dstTimeDateStart = {0u, 1u, 1u, 1u, 1u};
  49:Generated_Source\PSoC5/RTC.c ****     RTC_DSTIME RTC_dstTimeDateStop = {0u, 1u, 1u, 1u, 1u};
  50:Generated_Source\PSoC5/RTC.c **** 
  51:Generated_Source\PSoC5/RTC.c ****     /* Number of Hours to add/dec to time */
  52:Generated_Source\PSoC5/RTC.c ****     volatile uint8 RTC_dstOffsetMin = 0u;
  53:Generated_Source\PSoC5/RTC.c ****     volatile uint8 RTC_dstStartStatus = 0u;
  54:Generated_Source\PSoC5/RTC.c ****     volatile uint8 RTC_dstStopStatus = 0u;
  55:Generated_Source\PSoC5/RTC.c **** 
  56:Generated_Source\PSoC5/RTC.c **** #endif /* 1u == RTC_DST_FUNC_ENABLE*/
  57:Generated_Source\PSoC5/RTC.c **** 
  58:Generated_Source\PSoC5/RTC.c **** /* Mask Registers */
  59:Generated_Source\PSoC5/RTC.c **** volatile uint8 RTC_alarmCfgMask = 0u;
  60:Generated_Source\PSoC5/RTC.c **** volatile uint8 RTC_alarmCurStatus = 0u;
  61:Generated_Source\PSoC5/RTC.c **** volatile uint8 RTC_intervalCfgMask = 0u;
  62:Generated_Source\PSoC5/RTC.c **** 
  63:Generated_Source\PSoC5/RTC.c **** /* Status & Control Variables */
  64:Generated_Source\PSoC5/RTC.c **** volatile uint8 RTC_statusDateTime = 0u;
  65:Generated_Source\PSoC5/RTC.c **** 
  66:Generated_Source\PSoC5/RTC.c **** /* Month Day Array - number of days in the months */
  67:Generated_Source\PSoC5/RTC.c **** const uint8 CYCODE RTC_daysInMonths[RTC_MONTHS_IN_YEAR] = {
  68:Generated_Source\PSoC5/RTC.c ****     RTC_DAYS_IN_JANUARY,
  69:Generated_Source\PSoC5/RTC.c ****     RTC_DAYS_IN_FEBRUARY,
  70:Generated_Source\PSoC5/RTC.c ****     RTC_DAYS_IN_MARCH,
  71:Generated_Source\PSoC5/RTC.c ****     RTC_DAYS_IN_APRIL,
  72:Generated_Source\PSoC5/RTC.c ****     RTC_DAYS_IN_MAY,
  73:Generated_Source\PSoC5/RTC.c ****     RTC_DAYS_IN_JUNE,
  74:Generated_Source\PSoC5/RTC.c ****     RTC_DAYS_IN_JULY,
  75:Generated_Source\PSoC5/RTC.c ****     RTC_DAYS_IN_AUGUST,
  76:Generated_Source\PSoC5/RTC.c ****     RTC_DAYS_IN_SEPTEMBER,
  77:Generated_Source\PSoC5/RTC.c ****     RTC_DAYS_IN_OCTOBER,
  78:Generated_Source\PSoC5/RTC.c ****     RTC_DAYS_IN_NOVEMBER,
  79:Generated_Source\PSoC5/RTC.c ****     RTC_DAYS_IN_DECEMBER};
  80:Generated_Source\PSoC5/RTC.c **** 
  81:Generated_Source\PSoC5/RTC.c **** 
  82:Generated_Source\PSoC5/RTC.c **** /*******************************************************************************
  83:Generated_Source\PSoC5/RTC.c **** * Function Name:   RTC_Start
ARM GAS  C:\Users\Admin\AppData\Local\Temp\cc4n2E7w.s 			page 5


  84:Generated_Source\PSoC5/RTC.c **** ********************************************************************************
  85:Generated_Source\PSoC5/RTC.c **** *
  86:Generated_Source\PSoC5/RTC.c **** * Summary:
  87:Generated_Source\PSoC5/RTC.c **** *  Enables RTC component: configures counter, setup interrupts, done all
  88:Generated_Source\PSoC5/RTC.c **** *  required calculation and starts counter.
  89:Generated_Source\PSoC5/RTC.c **** *
  90:Generated_Source\PSoC5/RTC.c **** * Parameters:
  91:Generated_Source\PSoC5/RTC.c **** *  None.
  92:Generated_Source\PSoC5/RTC.c **** *
  93:Generated_Source\PSoC5/RTC.c **** * Return:
  94:Generated_Source\PSoC5/RTC.c **** *  None.
  95:Generated_Source\PSoC5/RTC.c **** *
  96:Generated_Source\PSoC5/RTC.c **** * Global variables:
  97:Generated_Source\PSoC5/RTC.c **** *  RTC_initVar: global variable is used to indicate initial
  98:Generated_Source\PSoC5/RTC.c **** *  configuration of this component.  The variable is initialized to zero and set
  99:Generated_Source\PSoC5/RTC.c **** *  to 1 the first time RTC_Start() is called. This allows for
 100:Generated_Source\PSoC5/RTC.c **** *  component initialization without re-initialization in all subsequent calls
 101:Generated_Source\PSoC5/RTC.c **** *  to the RTC_Start() routine.
 102:Generated_Source\PSoC5/RTC.c **** *
 103:Generated_Source\PSoC5/RTC.c **** *  RTC_currentTimeDate, RTC_dstTimeDateStart,
 104:Generated_Source\PSoC5/RTC.c **** *  RTC_dstTimeDateStop, RTC_dstTimeDateStart,
 105:Generated_Source\PSoC5/RTC.c **** *  RTC_alarmCfgTimeDate, RTC_statusDateTime,
 106:Generated_Source\PSoC5/RTC.c **** *  RTC_dstStartStatus, RTC_dstStopStatus,
 107:Generated_Source\PSoC5/RTC.c **** *  RTC_alarmCurStatus: global variables are modified by the
 108:Generated_Source\PSoC5/RTC.c **** *  functions called from RTC_Init().
 109:Generated_Source\PSoC5/RTC.c **** *
 110:Generated_Source\PSoC5/RTC.c **** * Reentrant:
 111:Generated_Source\PSoC5/RTC.c **** *  No.
 112:Generated_Source\PSoC5/RTC.c **** *
 113:Generated_Source\PSoC5/RTC.c **** * Side Effects:
 114:Generated_Source\PSoC5/RTC.c **** *  Enables for the one pulse per second (for the RTC component) and
 115:Generated_Source\PSoC5/RTC.c **** *  Central Time Wheel (for the Sleep Timer component) signals to wake up device
 116:Generated_Source\PSoC5/RTC.c **** *  from the low power (Sleep and Alternate Active) modes and leaves them
 117:Generated_Source\PSoC5/RTC.c **** *  enabled.
 118:Generated_Source\PSoC5/RTC.c **** *
 119:Generated_Source\PSoC5/RTC.c **** *  The Power Manager API has the higher priority on resource usage: it is NOT
 120:Generated_Source\PSoC5/RTC.c **** *  guaranteed that the Sleep Timer's configuration will be the same on exit
 121:Generated_Source\PSoC5/RTC.c **** *  from the Power Manager APIs as on the entry. To prevent this use the Sleep
 122:Generated_Source\PSoC5/RTC.c **** *  Timer's Sleep() - to save configuration and stop the component and Wakeup()
 123:Generated_Source\PSoC5/RTC.c **** *  function to restore configuration and enable the component.
 124:Generated_Source\PSoC5/RTC.c **** *
 125:Generated_Source\PSoC5/RTC.c **** *  The Sleep Timer and Real Time Clock (RTC) components could be configured as
 126:Generated_Source\PSoC5/RTC.c **** *  a wake up source from the low power modes only both at once.
 127:Generated_Source\PSoC5/RTC.c **** *
 128:Generated_Source\PSoC5/RTC.c **** *******************************************************************************/
 129:Generated_Source\PSoC5/RTC.c **** void RTC_Start(void) 
 130:Generated_Source\PSoC5/RTC.c **** {
 146              		.loc 1 130 0
 147              		.cfi_startproc
 148              		@ args = 0, pretend = 0, frame = 0
 149              		@ frame_needed = 1, uses_anonymous_args = 0
 150 0000 80B5     		push	{r7, lr}
 151              		.cfi_def_cfa_offset 8
 152              		.cfi_offset 7, -8
 153              		.cfi_offset 14, -4
 154 0002 00AF     		add	r7, sp, #0
 155              		.cfi_def_cfa_register 7
ARM GAS  C:\Users\Admin\AppData\Local\Temp\cc4n2E7w.s 			page 6


 131:Generated_Source\PSoC5/RTC.c ****     /* Execute once in normal flow */
 132:Generated_Source\PSoC5/RTC.c ****     if(0u == RTC_initVar)
 156              		.loc 1 132 0
 157 0004 064B     		ldr	r3, .L3
 158 0006 1B78     		ldrb	r3, [r3]	@ zero_extendqisi2
 159 0008 002B     		cmp	r3, #0
 160 000a 04D1     		bne	.L2
 133:Generated_Source\PSoC5/RTC.c ****     {
 134:Generated_Source\PSoC5/RTC.c ****         RTC_Init();
 161              		.loc 1 134 0
 162 000c FFF7FEFF 		bl	RTC_Init
 135:Generated_Source\PSoC5/RTC.c ****         RTC_initVar = 1u;
 163              		.loc 1 135 0
 164 0010 034B     		ldr	r3, .L3
 165 0012 0122     		movs	r2, #1
 166 0014 1A70     		strb	r2, [r3]
 167              	.L2:
 136:Generated_Source\PSoC5/RTC.c ****     }
 137:Generated_Source\PSoC5/RTC.c **** 
 138:Generated_Source\PSoC5/RTC.c ****     /* Enable component's operation */
 139:Generated_Source\PSoC5/RTC.c ****     RTC_Enable();
 168              		.loc 1 139 0
 169 0016 FFF7FEFF 		bl	RTC_Enable
 140:Generated_Source\PSoC5/RTC.c **** }
 170              		.loc 1 140 0
 171 001a 00BF     		nop
 172 001c 80BD     		pop	{r7, pc}
 173              	.L4:
 174 001e 00BF     		.align	2
 175              	.L3:
 176 0020 00000000 		.word	RTC_initVar
 177              		.cfi_endproc
 178              	.LFE0:
 179              		.size	RTC_Start, .-RTC_Start
 180              		.section	.text.RTC_Stop,"ax",%progbits
 181              		.align	2
 182              		.global	RTC_Stop
 183              		.thumb
 184              		.thumb_func
 185              		.type	RTC_Stop, %function
 186              	RTC_Stop:
 187              	.LFB1:
 141:Generated_Source\PSoC5/RTC.c **** 
 142:Generated_Source\PSoC5/RTC.c **** 
 143:Generated_Source\PSoC5/RTC.c **** /*******************************************************************************
 144:Generated_Source\PSoC5/RTC.c **** * Function Name: RTC_Stop
 145:Generated_Source\PSoC5/RTC.c **** ********************************************************************************
 146:Generated_Source\PSoC5/RTC.c **** *
 147:Generated_Source\PSoC5/RTC.c **** * Summary:
 148:Generated_Source\PSoC5/RTC.c **** *  Stops the RTC component.
 149:Generated_Source\PSoC5/RTC.c **** *
 150:Generated_Source\PSoC5/RTC.c **** * Parameters:
 151:Generated_Source\PSoC5/RTC.c **** *  None.
 152:Generated_Source\PSoC5/RTC.c **** *
 153:Generated_Source\PSoC5/RTC.c **** * Return:
 154:Generated_Source\PSoC5/RTC.c **** *  None.
 155:Generated_Source\PSoC5/RTC.c **** *
ARM GAS  C:\Users\Admin\AppData\Local\Temp\cc4n2E7w.s 			page 7


 156:Generated_Source\PSoC5/RTC.c **** * Side Effects:
 157:Generated_Source\PSoC5/RTC.c **** *  Leaves the one pulse per second (for the RTC component) and the Central Time
 158:Generated_Source\PSoC5/RTC.c **** *  Wheel (for the Sleep Timer component) signals to wake up device from the low
 159:Generated_Source\PSoC5/RTC.c **** *  power (Sleep and Alternate Active) modes enabled after Sleep Time component
 160:Generated_Source\PSoC5/RTC.c **** *  is stopped.
 161:Generated_Source\PSoC5/RTC.c **** *
 162:Generated_Source\PSoC5/RTC.c **** *******************************************************************************/
 163:Generated_Source\PSoC5/RTC.c **** void RTC_Stop(void) 
 164:Generated_Source\PSoC5/RTC.c **** {
 188              		.loc 1 164 0
 189              		.cfi_startproc
 190              		@ args = 0, pretend = 0, frame = 8
 191              		@ frame_needed = 1, uses_anonymous_args = 0
 192 0000 80B5     		push	{r7, lr}
 193              		.cfi_def_cfa_offset 8
 194              		.cfi_offset 7, -8
 195              		.cfi_offset 14, -4
 196 0002 82B0     		sub	sp, sp, #8
 197              		.cfi_def_cfa_offset 16
 198 0004 00AF     		add	r7, sp, #0
 199              		.cfi_def_cfa_register 7
 165:Generated_Source\PSoC5/RTC.c ****     uint8 interruptState;
 166:Generated_Source\PSoC5/RTC.c **** 
 167:Generated_Source\PSoC5/RTC.c ****     /* Disable the interrupt. */
 168:Generated_Source\PSoC5/RTC.c ****     CyIntDisable(RTC_ISR_NUMBER);
 200              		.loc 1 168 0
 201 0006 0B4B     		ldr	r3, .L6
 202 0008 0122     		movs	r2, #1
 203 000a 1A60     		str	r2, [r3]
 169:Generated_Source\PSoC5/RTC.c **** 
 170:Generated_Source\PSoC5/RTC.c ****     /* Enter critical section */
 171:Generated_Source\PSoC5/RTC.c ****     interruptState = CyEnterCriticalSection();
 204              		.loc 1 171 0
 205 000c FFF7FEFF 		bl	CyEnterCriticalSection
 206 0010 0346     		mov	r3, r0
 207 0012 FB71     		strb	r3, [r7, #7]
 172:Generated_Source\PSoC5/RTC.c **** 
 173:Generated_Source\PSoC5/RTC.c ****     /* Stop one pulse per second counter and interrupt */
 174:Generated_Source\PSoC5/RTC.c ****     RTC_OPPS_CFG_REG &= (uint8)(~(RTC_OPPSIE_EN_MASK | RTC_OPPS_EN_MASK));
 208              		.loc 1 174 0
 209 0014 084A     		ldr	r2, .L6+4
 210 0016 084B     		ldr	r3, .L6+4
 211 0018 1B78     		ldrb	r3, [r3]
 212 001a DBB2     		uxtb	r3, r3
 213 001c 23F03003 		bic	r3, r3, #48
 214 0020 DBB2     		uxtb	r3, r3
 215 0022 1370     		strb	r3, [r2]
 175:Generated_Source\PSoC5/RTC.c **** 
 176:Generated_Source\PSoC5/RTC.c ****     /* Exit critical section */
 177:Generated_Source\PSoC5/RTC.c ****     CyExitCriticalSection(interruptState);
 216              		.loc 1 177 0
 217 0024 FB79     		ldrb	r3, [r7, #7]	@ zero_extendqisi2
 218 0026 1846     		mov	r0, r3
 219 0028 FFF7FEFF 		bl	CyExitCriticalSection
 178:Generated_Source\PSoC5/RTC.c **** }
 220              		.loc 1 178 0
 221 002c 00BF     		nop
ARM GAS  C:\Users\Admin\AppData\Local\Temp\cc4n2E7w.s 			page 8


 222 002e 0837     		adds	r7, r7, #8
 223              		.cfi_def_cfa_offset 8
 224 0030 BD46     		mov	sp, r7
 225              		.cfi_def_cfa_register 13
 226              		@ sp needed
 227 0032 80BD     		pop	{r7, pc}
 228              	.L7:
 229              		.align	2
 230              	.L6:
 231 0034 80E100E0 		.word	-536813184
 232 0038 82430040 		.word	1073759106
 233              		.cfi_endproc
 234              	.LFE1:
 235              		.size	RTC_Stop, .-RTC_Stop
 236              		.section	.text.RTC_EnableInt,"ax",%progbits
 237              		.align	2
 238              		.global	RTC_EnableInt
 239              		.thumb
 240              		.thumb_func
 241              		.type	RTC_EnableInt, %function
 242              	RTC_EnableInt:
 243              	.LFB2:
 179:Generated_Source\PSoC5/RTC.c **** 
 180:Generated_Source\PSoC5/RTC.c **** 
 181:Generated_Source\PSoC5/RTC.c **** /*******************************************************************************
 182:Generated_Source\PSoC5/RTC.c **** * Function Name:   RTC_EnableInt
 183:Generated_Source\PSoC5/RTC.c **** ********************************************************************************
 184:Generated_Source\PSoC5/RTC.c **** *
 185:Generated_Source\PSoC5/RTC.c **** * Summary:
 186:Generated_Source\PSoC5/RTC.c **** *  Enables interrupts of RTC Component.
 187:Generated_Source\PSoC5/RTC.c **** *
 188:Generated_Source\PSoC5/RTC.c **** * Parameters:
 189:Generated_Source\PSoC5/RTC.c **** *  None.
 190:Generated_Source\PSoC5/RTC.c **** *
 191:Generated_Source\PSoC5/RTC.c **** * Return:
 192:Generated_Source\PSoC5/RTC.c **** *  None.
 193:Generated_Source\PSoC5/RTC.c **** *
 194:Generated_Source\PSoC5/RTC.c **** *******************************************************************************/
 195:Generated_Source\PSoC5/RTC.c **** void RTC_EnableInt(void) 
 196:Generated_Source\PSoC5/RTC.c **** {
 244              		.loc 1 196 0
 245              		.cfi_startproc
 246              		@ args = 0, pretend = 0, frame = 0
 247              		@ frame_needed = 1, uses_anonymous_args = 0
 248              		@ link register save eliminated.
 249 0000 80B4     		push	{r7}
 250              		.cfi_def_cfa_offset 4
 251              		.cfi_offset 7, -4
 252 0002 00AF     		add	r7, sp, #0
 253              		.cfi_def_cfa_register 7
 197:Generated_Source\PSoC5/RTC.c ****     /* Enable the interrupt */
 198:Generated_Source\PSoC5/RTC.c ****     CyIntEnable(RTC_ISR_NUMBER);
 254              		.loc 1 198 0
 255 0004 034B     		ldr	r3, .L9
 256 0006 0122     		movs	r2, #1
 257 0008 1A60     		str	r2, [r3]
 199:Generated_Source\PSoC5/RTC.c **** }
ARM GAS  C:\Users\Admin\AppData\Local\Temp\cc4n2E7w.s 			page 9


 258              		.loc 1 199 0
 259 000a 00BF     		nop
 260 000c BD46     		mov	sp, r7
 261              		.cfi_def_cfa_register 13
 262              		@ sp needed
 263 000e 80BC     		pop	{r7}
 264              		.cfi_restore 7
 265              		.cfi_def_cfa_offset 0
 266 0010 7047     		bx	lr
 267              	.L10:
 268 0012 00BF     		.align	2
 269              	.L9:
 270 0014 00E100E0 		.word	-536813312
 271              		.cfi_endproc
 272              	.LFE2:
 273              		.size	RTC_EnableInt, .-RTC_EnableInt
 274              		.section	.text.RTC_DisableInt,"ax",%progbits
 275              		.align	2
 276              		.global	RTC_DisableInt
 277              		.thumb
 278              		.thumb_func
 279              		.type	RTC_DisableInt, %function
 280              	RTC_DisableInt:
 281              	.LFB3:
 200:Generated_Source\PSoC5/RTC.c **** 
 201:Generated_Source\PSoC5/RTC.c **** 
 202:Generated_Source\PSoC5/RTC.c **** /*******************************************************************************
 203:Generated_Source\PSoC5/RTC.c **** * Function Name:   RTC_DisableInt
 204:Generated_Source\PSoC5/RTC.c **** ********************************************************************************
 205:Generated_Source\PSoC5/RTC.c **** *
 206:Generated_Source\PSoC5/RTC.c **** * Summary:
 207:Generated_Source\PSoC5/RTC.c **** *  Disables interrupts of RTC Component, time and date stop running.
 208:Generated_Source\PSoC5/RTC.c **** *
 209:Generated_Source\PSoC5/RTC.c **** * Parameters:
 210:Generated_Source\PSoC5/RTC.c **** *  None.
 211:Generated_Source\PSoC5/RTC.c **** *
 212:Generated_Source\PSoC5/RTC.c **** * Return:
 213:Generated_Source\PSoC5/RTC.c **** *  None.
 214:Generated_Source\PSoC5/RTC.c **** *
 215:Generated_Source\PSoC5/RTC.c **** *******************************************************************************/
 216:Generated_Source\PSoC5/RTC.c **** void RTC_DisableInt(void) 
 217:Generated_Source\PSoC5/RTC.c **** {
 282              		.loc 1 217 0
 283              		.cfi_startproc
 284              		@ args = 0, pretend = 0, frame = 0
 285              		@ frame_needed = 1, uses_anonymous_args = 0
 286              		@ link register save eliminated.
 287 0000 80B4     		push	{r7}
 288              		.cfi_def_cfa_offset 4
 289              		.cfi_offset 7, -4
 290 0002 00AF     		add	r7, sp, #0
 291              		.cfi_def_cfa_register 7
 218:Generated_Source\PSoC5/RTC.c ****     /* Disable the interrupt. */
 219:Generated_Source\PSoC5/RTC.c ****     CyIntDisable(RTC_ISR_NUMBER);
 292              		.loc 1 219 0
 293 0004 034B     		ldr	r3, .L12
 294 0006 0122     		movs	r2, #1
ARM GAS  C:\Users\Admin\AppData\Local\Temp\cc4n2E7w.s 			page 10


 295 0008 1A60     		str	r2, [r3]
 220:Generated_Source\PSoC5/RTC.c **** }
 296              		.loc 1 220 0
 297 000a 00BF     		nop
 298 000c BD46     		mov	sp, r7
 299              		.cfi_def_cfa_register 13
 300              		@ sp needed
 301 000e 80BC     		pop	{r7}
 302              		.cfi_restore 7
 303              		.cfi_def_cfa_offset 0
 304 0010 7047     		bx	lr
 305              	.L13:
 306 0012 00BF     		.align	2
 307              	.L12:
 308 0014 80E100E0 		.word	-536813184
 309              		.cfi_endproc
 310              	.LFE3:
 311              		.size	RTC_DisableInt, .-RTC_DisableInt
 312              		.section	.text.RTC_DSTDateConversion,"ax",%progbits
 313              		.align	2
 314              		.thumb
 315              		.thumb_func
 316              		.type	RTC_DSTDateConversion, %function
 317              	RTC_DSTDateConversion:
 318              	.LFB4:
 221:Generated_Source\PSoC5/RTC.c **** 
 222:Generated_Source\PSoC5/RTC.c **** 
 223:Generated_Source\PSoC5/RTC.c **** #if (1u == RTC_DST_FUNC_ENABLE)
 224:Generated_Source\PSoC5/RTC.c ****     /*******************************************************************************
 225:Generated_Source\PSoC5/RTC.c ****     * Function Name:   RTC_DSTDateConversion
 226:Generated_Source\PSoC5/RTC.c ****     ********************************************************************************
 227:Generated_Source\PSoC5/RTC.c ****     *
 228:Generated_Source\PSoC5/RTC.c ****     * Summary:
 229:Generated_Source\PSoC5/RTC.c ****     * Converts relative to absolute date.
 230:Generated_Source\PSoC5/RTC.c ****     *
 231:Generated_Source\PSoC5/RTC.c ****     * Parameters:
 232:Generated_Source\PSoC5/RTC.c ****     *  None.
 233:Generated_Source\PSoC5/RTC.c ****     *
 234:Generated_Source\PSoC5/RTC.c ****     * Return:
 235:Generated_Source\PSoC5/RTC.c ****     *  None.
 236:Generated_Source\PSoC5/RTC.c ****     *
 237:Generated_Source\PSoC5/RTC.c ****     * Global variables:
 238:Generated_Source\PSoC5/RTC.c ****     *  RTC_dstTimeDateStart.Month,
 239:Generated_Source\PSoC5/RTC.c ****     *  RTC_dstTimeDateStart.DayOfWeek,
 240:Generated_Source\PSoC5/RTC.c ****     *  RTC_dstTimeDateStart.Week,
 241:Generated_Source\PSoC5/RTC.c ****     *  RTC_dstTimeDateStop.Month,
 242:Generated_Source\PSoC5/RTC.c ****     *  RTC_dstTimeDateStop.DayOfWeek,
 243:Generated_Source\PSoC5/RTC.c ****     *  RTC_dstTimeDateStop.Week,
 244:Generated_Source\PSoC5/RTC.c ****     *  RTC_currentTimeDate.Year: these global variables are
 245:Generated_Source\PSoC5/RTC.c ****     *  used to correct day of week.
 246:Generated_Source\PSoC5/RTC.c ****     *
 247:Generated_Source\PSoC5/RTC.c ****     *  RTC_dstTimeDateStart.DayOfMonth,
 248:Generated_Source\PSoC5/RTC.c ****     *  RTC_dstTimeDateStop.DayOfMonth: these global variables are
 249:Generated_Source\PSoC5/RTC.c ****     *  modified after convertion.
 250:Generated_Source\PSoC5/RTC.c ****     *
 251:Generated_Source\PSoC5/RTC.c ****     * Reentrant:
 252:Generated_Source\PSoC5/RTC.c ****     *  No.
ARM GAS  C:\Users\Admin\AppData\Local\Temp\cc4n2E7w.s 			page 11


 253:Generated_Source\PSoC5/RTC.c ****     *
 254:Generated_Source\PSoC5/RTC.c ****     *******************************************************************************/
 255:Generated_Source\PSoC5/RTC.c ****     static void RTC_DSTDateConversion(void) 
 256:Generated_Source\PSoC5/RTC.c ****     {
 319              		.loc 1 256 0
 320              		.cfi_startproc
 321              		@ args = 0, pretend = 0, frame = 8
 322              		@ frame_needed = 1, uses_anonymous_args = 0
 323 0000 80B5     		push	{r7, lr}
 324              		.cfi_def_cfa_offset 8
 325              		.cfi_offset 7, -8
 326              		.cfi_offset 14, -4
 327 0002 82B0     		sub	sp, sp, #8
 328              		.cfi_def_cfa_offset 16
 329 0004 00AF     		add	r7, sp, #0
 330              		.cfi_def_cfa_register 7
 257:Generated_Source\PSoC5/RTC.c ****         uint8 week = 1u;
 331              		.loc 1 257 0
 332 0006 0123     		movs	r3, #1
 333 0008 FB71     		strb	r3, [r7, #7]
 258:Generated_Source\PSoC5/RTC.c ****         uint8 day = 1u;
 334              		.loc 1 258 0
 335 000a 0123     		movs	r3, #1
 336 000c BB71     		strb	r3, [r7, #6]
 259:Generated_Source\PSoC5/RTC.c ****         uint8 dayOfWeek;
 260:Generated_Source\PSoC5/RTC.c **** 
 261:Generated_Source\PSoC5/RTC.c ****         /* Get day of week */
 262:Generated_Source\PSoC5/RTC.c ****         dayOfWeek = RTC_DayOfWeek(day, RTC_dstTimeDateStart.Month,
 337              		.loc 1 262 0
 338 000e 3F4B     		ldr	r3, .L27
 339 0010 1B79     		ldrb	r3, [r3, #4]
 340 0012 D9B2     		uxtb	r1, r3
 341 0014 3E4B     		ldr	r3, .L27+4
 342 0016 5B89     		ldrh	r3, [r3, #10]	@ movhi
 343 0018 9AB2     		uxth	r2, r3
 344 001a BB79     		ldrb	r3, [r7, #6]	@ zero_extendqisi2
 345 001c 1846     		mov	r0, r3
 346 001e FFF7FEFF 		bl	RTC_DayOfWeek
 347 0022 0346     		mov	r3, r0
 348 0024 0133     		adds	r3, r3, #1
 349 0026 7B71     		strb	r3, [r7, #5]
 263:Generated_Source\PSoC5/RTC.c ****                                                     RTC_currentTimeDate.Year) + 1u;
 264:Generated_Source\PSoC5/RTC.c **** 
 265:Generated_Source\PSoC5/RTC.c ****         #if (0u != RTC_START_OF_WEEK)
 266:Generated_Source\PSoC5/RTC.c ****         /* Normalize day of week if Start of week is not Sunday */
 267:Generated_Source\PSoC5/RTC.c ****         if(dayOfWeek > RTC_START_OF_WEEK)
 350              		.loc 1 267 0
 351 0028 7B79     		ldrb	r3, [r7, #5]	@ zero_extendqisi2
 352 002a 012B     		cmp	r3, #1
 353 002c 03D9     		bls	.L15
 268:Generated_Source\PSoC5/RTC.c ****         {
 269:Generated_Source\PSoC5/RTC.c ****             #if (6u != RTC_START_OF_WEEK)
 270:Generated_Source\PSoC5/RTC.c ****                 /* Start of week is not Saturday  */
 271:Generated_Source\PSoC5/RTC.c ****                 dayOfWeek -= RTC_START_OF_WEEK;
 354              		.loc 1 271 0
 355 002e 7B79     		ldrb	r3, [r7, #5]
 356 0030 013B     		subs	r3, r3, #1
ARM GAS  C:\Users\Admin\AppData\Local\Temp\cc4n2E7w.s 			page 12


 357 0032 7B71     		strb	r3, [r7, #5]
 358 0034 10E0     		b	.L17
 359              	.L15:
 272:Generated_Source\PSoC5/RTC.c ****             #else /* 6u == RTC_START_OF_WEEK */
 273:Generated_Source\PSoC5/RTC.c ****                 /* Start of week is Saturday  */
 274:Generated_Source\PSoC5/RTC.c ****                 dayOfWeek = 1u; /* Set day of week to Monday */
 275:Generated_Source\PSoC5/RTC.c ****             #endif /* 6u != RTC_START_OF_WEEK */
 276:Generated_Source\PSoC5/RTC.c ****         }
 277:Generated_Source\PSoC5/RTC.c ****         else
 278:Generated_Source\PSoC5/RTC.c ****         {
 279:Generated_Source\PSoC5/RTC.c ****             #if (1u != RTC_START_OF_WEEK)
 280:Generated_Source\PSoC5/RTC.c ****                 /* Start of week is not Monday  */
 281:Generated_Source\PSoC5/RTC.c ****                 dayOfWeek = (RTC_DAYS_IN_WEEK - RTC_START_OF_WEEK) - dayOfWeek;
 282:Generated_Source\PSoC5/RTC.c ****             #else /* 1u == RTC_START_OF_WEEK */
 283:Generated_Source\PSoC5/RTC.c ****                 /* Start of week is Monday  */
 284:Generated_Source\PSoC5/RTC.c ****                 dayOfWeek = 5u; /* Set day of week to Friday */
 360              		.loc 1 284 0
 361 0036 0523     		movs	r3, #5
 362 0038 7B71     		strb	r3, [r7, #5]
 285:Generated_Source\PSoC5/RTC.c ****             #endif /* 1u != RTC_START_OF_WEEK */
 286:Generated_Source\PSoC5/RTC.c ****         }
 287:Generated_Source\PSoC5/RTC.c ****         #endif /* 0u != RTC_START_OF_WEEK */
 288:Generated_Source\PSoC5/RTC.c **** 
 289:Generated_Source\PSoC5/RTC.c ****         /* Correct if out of DST range */
 290:Generated_Source\PSoC5/RTC.c ****         while(dayOfWeek != RTC_dstTimeDateStart.DayOfWeek)
 363              		.loc 1 290 0
 364 003a 0DE0     		b	.L17
 365              	.L18:
 291:Generated_Source\PSoC5/RTC.c ****         {
 292:Generated_Source\PSoC5/RTC.c ****             day++;
 366              		.loc 1 292 0
 367 003c BB79     		ldrb	r3, [r7, #6]	@ zero_extendqisi2
 368 003e 0133     		adds	r3, r3, #1
 369 0040 BB71     		strb	r3, [r7, #6]
 293:Generated_Source\PSoC5/RTC.c ****             dayOfWeek++;
 370              		.loc 1 293 0
 371 0042 7B79     		ldrb	r3, [r7, #5]	@ zero_extendqisi2
 372 0044 0133     		adds	r3, r3, #1
 373 0046 7B71     		strb	r3, [r7, #5]
 294:Generated_Source\PSoC5/RTC.c ****             if(dayOfWeek > RTC_WEEK_ELAPSED)
 374              		.loc 1 294 0
 375 0048 7B79     		ldrb	r3, [r7, #5]	@ zero_extendqisi2
 376 004a 072B     		cmp	r3, #7
 377 004c 04D9     		bls	.L17
 295:Generated_Source\PSoC5/RTC.c ****             {
 296:Generated_Source\PSoC5/RTC.c ****                 dayOfWeek = 1u;
 378              		.loc 1 296 0
 379 004e 0123     		movs	r3, #1
 380 0050 7B71     		strb	r3, [r7, #5]
 297:Generated_Source\PSoC5/RTC.c ****                 week++;
 381              		.loc 1 297 0
 382 0052 FB79     		ldrb	r3, [r7, #7]	@ zero_extendqisi2
 383 0054 0133     		adds	r3, r3, #1
 384 0056 FB71     		strb	r3, [r7, #7]
 385              	.L17:
 290:Generated_Source\PSoC5/RTC.c ****         {
 386              		.loc 1 290 0
ARM GAS  C:\Users\Admin\AppData\Local\Temp\cc4n2E7w.s 			page 13


 387 0058 2C4B     		ldr	r3, .L27
 388 005a 5B78     		ldrb	r3, [r3, #1]
 389 005c DBB2     		uxtb	r3, r3
 390 005e 7A79     		ldrb	r2, [r7, #5]	@ zero_extendqisi2
 391 0060 9A42     		cmp	r2, r3
 392 0062 EBD1     		bne	.L18
 298:Generated_Source\PSoC5/RTC.c ****             }
 299:Generated_Source\PSoC5/RTC.c ****         }
 300:Generated_Source\PSoC5/RTC.c **** 
 301:Generated_Source\PSoC5/RTC.c ****         while(week != RTC_dstTimeDateStart.Week)
 393              		.loc 1 301 0
 394 0064 05E0     		b	.L19
 395              	.L20:
 302:Generated_Source\PSoC5/RTC.c ****         {
 303:Generated_Source\PSoC5/RTC.c ****             day += RTC_DAYS_IN_WEEK;
 396              		.loc 1 303 0
 397 0066 BB79     		ldrb	r3, [r7, #6]
 398 0068 0733     		adds	r3, r3, #7
 399 006a BB71     		strb	r3, [r7, #6]
 304:Generated_Source\PSoC5/RTC.c ****             week++;
 400              		.loc 1 304 0
 401 006c FB79     		ldrb	r3, [r7, #7]	@ zero_extendqisi2
 402 006e 0133     		adds	r3, r3, #1
 403 0070 FB71     		strb	r3, [r7, #7]
 404              	.L19:
 301:Generated_Source\PSoC5/RTC.c ****         {
 405              		.loc 1 301 0
 406 0072 264B     		ldr	r3, .L27
 407 0074 9B78     		ldrb	r3, [r3, #2]
 408 0076 DBB2     		uxtb	r3, r3
 409 0078 FA79     		ldrb	r2, [r7, #7]	@ zero_extendqisi2
 410 007a 9A42     		cmp	r2, r3
 411 007c F3D1     		bne	.L20
 305:Generated_Source\PSoC5/RTC.c ****         }
 306:Generated_Source\PSoC5/RTC.c ****         RTC_dstTimeDateStart.DayOfMonth = day;
 412              		.loc 1 306 0
 413 007e 234A     		ldr	r2, .L27
 414 0080 BB79     		ldrb	r3, [r7, #6]
 415 0082 D370     		strb	r3, [r2, #3]
 307:Generated_Source\PSoC5/RTC.c **** 
 308:Generated_Source\PSoC5/RTC.c ****         /* Stop of DST time */
 309:Generated_Source\PSoC5/RTC.c ****         week = 1u;
 416              		.loc 1 309 0
 417 0084 0123     		movs	r3, #1
 418 0086 FB71     		strb	r3, [r7, #7]
 310:Generated_Source\PSoC5/RTC.c ****         day = 1u;
 419              		.loc 1 310 0
 420 0088 0123     		movs	r3, #1
 421 008a BB71     		strb	r3, [r7, #6]
 311:Generated_Source\PSoC5/RTC.c **** 
 312:Generated_Source\PSoC5/RTC.c ****         dayOfWeek = RTC_DayOfWeek(day, RTC_dstTimeDateStop.Month,
 422              		.loc 1 312 0
 423 008c 214B     		ldr	r3, .L27+8
 424 008e 1B79     		ldrb	r3, [r3, #4]
 425 0090 D9B2     		uxtb	r1, r3
 426 0092 1F4B     		ldr	r3, .L27+4
 427 0094 5B89     		ldrh	r3, [r3, #10]	@ movhi
ARM GAS  C:\Users\Admin\AppData\Local\Temp\cc4n2E7w.s 			page 14


 428 0096 9AB2     		uxth	r2, r3
 429 0098 BB79     		ldrb	r3, [r7, #6]	@ zero_extendqisi2
 430 009a 1846     		mov	r0, r3
 431 009c FFF7FEFF 		bl	RTC_DayOfWeek
 432 00a0 0346     		mov	r3, r0
 433 00a2 0133     		adds	r3, r3, #1
 434 00a4 7B71     		strb	r3, [r7, #5]
 313:Generated_Source\PSoC5/RTC.c ****                                                     RTC_currentTimeDate.Year) + 1u;
 314:Generated_Source\PSoC5/RTC.c ****         #if (0u != RTC_START_OF_WEEK)
 315:Generated_Source\PSoC5/RTC.c ****         /* Normalize day of week if Start of week is not Sunday */
 316:Generated_Source\PSoC5/RTC.c ****         if(dayOfWeek > RTC_START_OF_WEEK)
 435              		.loc 1 316 0
 436 00a6 7B79     		ldrb	r3, [r7, #5]	@ zero_extendqisi2
 437 00a8 012B     		cmp	r3, #1
 438 00aa 03D9     		bls	.L21
 317:Generated_Source\PSoC5/RTC.c ****         {
 318:Generated_Source\PSoC5/RTC.c ****             #if (6u != RTC_START_OF_WEEK)
 319:Generated_Source\PSoC5/RTC.c ****                 /* Start of week is not Saturday  */
 320:Generated_Source\PSoC5/RTC.c ****                 dayOfWeek -= RTC_START_OF_WEEK;
 439              		.loc 1 320 0
 440 00ac 7B79     		ldrb	r3, [r7, #5]
 441 00ae 013B     		subs	r3, r3, #1
 442 00b0 7B71     		strb	r3, [r7, #5]
 443 00b2 10E0     		b	.L23
 444              	.L21:
 321:Generated_Source\PSoC5/RTC.c ****             #else /* 6u == RTC_START_OF_WEEK */
 322:Generated_Source\PSoC5/RTC.c ****                 /* Start of week is Saturday  */
 323:Generated_Source\PSoC5/RTC.c ****                 dayOfWeek = 1u; /* Set day of week to Monday */
 324:Generated_Source\PSoC5/RTC.c ****             #endif /* 6u != RTC_START_OF_WEEK */
 325:Generated_Source\PSoC5/RTC.c ****         }
 326:Generated_Source\PSoC5/RTC.c ****         else
 327:Generated_Source\PSoC5/RTC.c ****         {
 328:Generated_Source\PSoC5/RTC.c ****             #if (1u != RTC_START_OF_WEEK)
 329:Generated_Source\PSoC5/RTC.c ****                 /* Start of week is not Monday  */
 330:Generated_Source\PSoC5/RTC.c ****                 dayOfWeek = (RTC_DAYS_IN_WEEK - RTC_START_OF_WEEK) - dayOfWeek;
 331:Generated_Source\PSoC5/RTC.c ****             #else /* 1u == RTC_START_OF_WEEK */
 332:Generated_Source\PSoC5/RTC.c ****                 /* Start of week is Monday  */
 333:Generated_Source\PSoC5/RTC.c ****                 dayOfWeek = 5u; /* Set day of week to Friday */
 445              		.loc 1 333 0
 446 00b4 0523     		movs	r3, #5
 447 00b6 7B71     		strb	r3, [r7, #5]
 334:Generated_Source\PSoC5/RTC.c ****             #endif /* 1u != RTC_START_OF_WEEK */
 335:Generated_Source\PSoC5/RTC.c ****         }
 336:Generated_Source\PSoC5/RTC.c ****         #endif /* 0u != RTC_START_OF_WEEK */
 337:Generated_Source\PSoC5/RTC.c **** 
 338:Generated_Source\PSoC5/RTC.c ****         while(dayOfWeek != RTC_dstTimeDateStop.DayOfWeek)
 448              		.loc 1 338 0
 449 00b8 0DE0     		b	.L23
 450              	.L24:
 339:Generated_Source\PSoC5/RTC.c ****         {
 340:Generated_Source\PSoC5/RTC.c ****             day++;
 451              		.loc 1 340 0
 452 00ba BB79     		ldrb	r3, [r7, #6]	@ zero_extendqisi2
 453 00bc 0133     		adds	r3, r3, #1
 454 00be BB71     		strb	r3, [r7, #6]
 341:Generated_Source\PSoC5/RTC.c ****             dayOfWeek++;
 455              		.loc 1 341 0
ARM GAS  C:\Users\Admin\AppData\Local\Temp\cc4n2E7w.s 			page 15


 456 00c0 7B79     		ldrb	r3, [r7, #5]	@ zero_extendqisi2
 457 00c2 0133     		adds	r3, r3, #1
 458 00c4 7B71     		strb	r3, [r7, #5]
 342:Generated_Source\PSoC5/RTC.c ****             if(dayOfWeek > RTC_WEEK_ELAPSED)
 459              		.loc 1 342 0
 460 00c6 7B79     		ldrb	r3, [r7, #5]	@ zero_extendqisi2
 461 00c8 072B     		cmp	r3, #7
 462 00ca 04D9     		bls	.L23
 343:Generated_Source\PSoC5/RTC.c ****             {
 344:Generated_Source\PSoC5/RTC.c ****                 dayOfWeek = 1u;
 463              		.loc 1 344 0
 464 00cc 0123     		movs	r3, #1
 465 00ce 7B71     		strb	r3, [r7, #5]
 345:Generated_Source\PSoC5/RTC.c ****                 week++;
 466              		.loc 1 345 0
 467 00d0 FB79     		ldrb	r3, [r7, #7]	@ zero_extendqisi2
 468 00d2 0133     		adds	r3, r3, #1
 469 00d4 FB71     		strb	r3, [r7, #7]
 470              	.L23:
 338:Generated_Source\PSoC5/RTC.c ****         {
 471              		.loc 1 338 0
 472 00d6 0F4B     		ldr	r3, .L27+8
 473 00d8 5B78     		ldrb	r3, [r3, #1]
 474 00da DBB2     		uxtb	r3, r3
 475 00dc 7A79     		ldrb	r2, [r7, #5]	@ zero_extendqisi2
 476 00de 9A42     		cmp	r2, r3
 477 00e0 EBD1     		bne	.L24
 346:Generated_Source\PSoC5/RTC.c ****             }
 347:Generated_Source\PSoC5/RTC.c ****         }
 348:Generated_Source\PSoC5/RTC.c **** 
 349:Generated_Source\PSoC5/RTC.c ****         while(week != RTC_dstTimeDateStop.Week)
 478              		.loc 1 349 0
 479 00e2 05E0     		b	.L25
 480              	.L26:
 350:Generated_Source\PSoC5/RTC.c ****         {
 351:Generated_Source\PSoC5/RTC.c ****             day += RTC_DAYS_IN_WEEK;
 481              		.loc 1 351 0
 482 00e4 BB79     		ldrb	r3, [r7, #6]
 483 00e6 0733     		adds	r3, r3, #7
 484 00e8 BB71     		strb	r3, [r7, #6]
 352:Generated_Source\PSoC5/RTC.c ****             week++;
 485              		.loc 1 352 0
 486 00ea FB79     		ldrb	r3, [r7, #7]	@ zero_extendqisi2
 487 00ec 0133     		adds	r3, r3, #1
 488 00ee FB71     		strb	r3, [r7, #7]
 489              	.L25:
 349:Generated_Source\PSoC5/RTC.c ****         {
 490              		.loc 1 349 0
 491 00f0 084B     		ldr	r3, .L27+8
 492 00f2 9B78     		ldrb	r3, [r3, #2]
 493 00f4 DBB2     		uxtb	r3, r3
 494 00f6 FA79     		ldrb	r2, [r7, #7]	@ zero_extendqisi2
 495 00f8 9A42     		cmp	r2, r3
 496 00fa F3D1     		bne	.L26
 353:Generated_Source\PSoC5/RTC.c ****         }
 354:Generated_Source\PSoC5/RTC.c **** 
 355:Generated_Source\PSoC5/RTC.c ****         RTC_dstTimeDateStop.DayOfMonth = day;
ARM GAS  C:\Users\Admin\AppData\Local\Temp\cc4n2E7w.s 			page 16


 497              		.loc 1 355 0
 498 00fc 054A     		ldr	r2, .L27+8
 499 00fe BB79     		ldrb	r3, [r7, #6]
 500 0100 D370     		strb	r3, [r2, #3]
 356:Generated_Source\PSoC5/RTC.c ****     }
 501              		.loc 1 356 0
 502 0102 00BF     		nop
 503 0104 0837     		adds	r7, r7, #8
 504              		.cfi_def_cfa_offset 8
 505 0106 BD46     		mov	sp, r7
 506              		.cfi_def_cfa_register 13
 507              		@ sp needed
 508 0108 80BD     		pop	{r7, pc}
 509              	.L28:
 510 010a 00BF     		.align	2
 511              	.L27:
 512 010c 00000000 		.word	RTC_dstTimeDateStart
 513 0110 00000000 		.word	RTC_currentTimeDate
 514 0114 00000000 		.word	RTC_dstTimeDateStop
 515              		.cfi_endproc
 516              	.LFE4:
 517              		.size	RTC_DSTDateConversion, .-RTC_DSTDateConversion
 518              		.section	.text.RTC_Init,"ax",%progbits
 519              		.align	2
 520              		.global	RTC_Init
 521              		.thumb
 522              		.thumb_func
 523              		.type	RTC_Init, %function
 524              	RTC_Init:
 525              	.LFB5:
 357:Generated_Source\PSoC5/RTC.c **** #endif /* 1u == RTC_DST_FUNC_ENABLE */
 358:Generated_Source\PSoC5/RTC.c **** 
 359:Generated_Source\PSoC5/RTC.c **** 
 360:Generated_Source\PSoC5/RTC.c **** /*******************************************************************************
 361:Generated_Source\PSoC5/RTC.c **** * Function Name:   RTC_Init
 362:Generated_Source\PSoC5/RTC.c **** ********************************************************************************
 363:Generated_Source\PSoC5/RTC.c **** *
 364:Generated_Source\PSoC5/RTC.c **** * Summary:
 365:Generated_Source\PSoC5/RTC.c **** *  Calculates required date and flags, sets interrupt vector and priority.
 366:Generated_Source\PSoC5/RTC.c **** *
 367:Generated_Source\PSoC5/RTC.c **** * Parameters:
 368:Generated_Source\PSoC5/RTC.c **** *  None.
 369:Generated_Source\PSoC5/RTC.c **** *
 370:Generated_Source\PSoC5/RTC.c **** * Return:
 371:Generated_Source\PSoC5/RTC.c **** *  None.
 372:Generated_Source\PSoC5/RTC.c **** *
 373:Generated_Source\PSoC5/RTC.c **** * Global variables:
 374:Generated_Source\PSoC5/RTC.c **** *  RTC_currentTimeDate, RTC_dstTimeDateStart,
 375:Generated_Source\PSoC5/RTC.c **** *  RTC_dstTimeDateStop, RTC_dstTimeDateStart,
 376:Generated_Source\PSoC5/RTC.c **** *  RTC_alarmCfgTimeDate, RTC_statusDateTime,
 377:Generated_Source\PSoC5/RTC.c **** *  RTC_dstStartStatus, RTC_dstStartStatus,
 378:Generated_Source\PSoC5/RTC.c **** *  RTC_dstStopStatus, RTC_alarmCurStatus:
 379:Generated_Source\PSoC5/RTC.c **** *  global variables are used by the RTC_SetInitValues().
 380:Generated_Source\PSoC5/RTC.c **** *
 381:Generated_Source\PSoC5/RTC.c **** *  RTC_dstTimeDateStart, RTC_currentTimeDate:
 382:Generated_Source\PSoC5/RTC.c **** *  RTC_statusDateTime, RTC_dstStartStatus,
 383:Generated_Source\PSoC5/RTC.c **** *  RTC_dstStartStatus, RTC_dstStopStatus,
ARM GAS  C:\Users\Admin\AppData\Local\Temp\cc4n2E7w.s 			page 17


 384:Generated_Source\PSoC5/RTC.c **** *  RTC_alarmCurStatus: are modified by the
 385:Generated_Source\PSoC5/RTC.c **** *  RTC_SetInitValues() function.
 386:Generated_Source\PSoC5/RTC.c **** *
 387:Generated_Source\PSoC5/RTC.c **** * Reentrant:
 388:Generated_Source\PSoC5/RTC.c **** *  No.
 389:Generated_Source\PSoC5/RTC.c **** *
 390:Generated_Source\PSoC5/RTC.c **** *******************************************************************************/
 391:Generated_Source\PSoC5/RTC.c **** void RTC_Init(void) 
 392:Generated_Source\PSoC5/RTC.c **** {
 526              		.loc 1 392 0
 527              		.cfi_startproc
 528              		@ args = 0, pretend = 0, frame = 0
 529              		@ frame_needed = 1, uses_anonymous_args = 0
 530 0000 80B5     		push	{r7, lr}
 531              		.cfi_def_cfa_offset 8
 532              		.cfi_offset 7, -8
 533              		.cfi_offset 14, -4
 534 0002 00AF     		add	r7, sp, #0
 535              		.cfi_def_cfa_register 7
 393:Generated_Source\PSoC5/RTC.c ****     /* Start calculation of required date and flags */
 394:Generated_Source\PSoC5/RTC.c ****     RTC_SetInitValues();
 536              		.loc 1 394 0
 537 0004 FFF7FEFF 		bl	RTC_SetInitValues
 395:Generated_Source\PSoC5/RTC.c **** 
 396:Generated_Source\PSoC5/RTC.c ****     /* Disable Interrupt. */
 397:Generated_Source\PSoC5/RTC.c ****     CyIntDisable(RTC_ISR_NUMBER);
 538              		.loc 1 397 0
 539 0008 064B     		ldr	r3, .L30
 540 000a 0122     		movs	r2, #1
 541 000c 1A60     		str	r2, [r3]
 398:Generated_Source\PSoC5/RTC.c **** 
 399:Generated_Source\PSoC5/RTC.c ****     /* Set the ISR to point to the RTC_SUT_isr Interrupt. */
 400:Generated_Source\PSoC5/RTC.c ****     (void) CyIntSetVector(RTC_ISR_NUMBER, & RTC_ISR);
 542              		.loc 1 400 0
 543 000e 0649     		ldr	r1, .L30+4
 544 0010 0020     		movs	r0, #0
 545 0012 FFF7FEFF 		bl	CyIntSetVector
 401:Generated_Source\PSoC5/RTC.c **** 
 402:Generated_Source\PSoC5/RTC.c ****     /* Set the priority. */
 403:Generated_Source\PSoC5/RTC.c ****     CyIntSetPriority(RTC_ISR_NUMBER, RTC_ISR_PRIORITY);
 546              		.loc 1 403 0
 547 0016 0721     		movs	r1, #7
 548 0018 0020     		movs	r0, #0
 549 001a FFF7FEFF 		bl	CyIntSetPriority
 404:Generated_Source\PSoC5/RTC.c **** }
 550              		.loc 1 404 0
 551 001e 00BF     		nop
 552 0020 80BD     		pop	{r7, pc}
 553              	.L31:
 554 0022 00BF     		.align	2
 555              	.L30:
 556 0024 80E100E0 		.word	-536813184
 557 0028 00000000 		.word	RTC_ISR
 558              		.cfi_endproc
 559              	.LFE5:
 560              		.size	RTC_Init, .-RTC_Init
 561              		.section	.text.RTC_Enable,"ax",%progbits
ARM GAS  C:\Users\Admin\AppData\Local\Temp\cc4n2E7w.s 			page 18


 562              		.align	2
 563              		.global	RTC_Enable
 564              		.thumb
 565              		.thumb_func
 566              		.type	RTC_Enable, %function
 567              	RTC_Enable:
 568              	.LFB6:
 405:Generated_Source\PSoC5/RTC.c **** 
 406:Generated_Source\PSoC5/RTC.c **** 
 407:Generated_Source\PSoC5/RTC.c **** /*******************************************************************************
 408:Generated_Source\PSoC5/RTC.c **** * Function Name: RTC_Enable
 409:Generated_Source\PSoC5/RTC.c **** ********************************************************************************
 410:Generated_Source\PSoC5/RTC.c **** *
 411:Generated_Source\PSoC5/RTC.c **** * Summary:
 412:Generated_Source\PSoC5/RTC.c **** *  Enables the interrupts, one pulse per second and interrupt generation on OPPS
 413:Generated_Source\PSoC5/RTC.c **** *  event.
 414:Generated_Source\PSoC5/RTC.c **** *
 415:Generated_Source\PSoC5/RTC.c **** * Parameters:
 416:Generated_Source\PSoC5/RTC.c **** *  None.
 417:Generated_Source\PSoC5/RTC.c **** *
 418:Generated_Source\PSoC5/RTC.c **** * Return:
 419:Generated_Source\PSoC5/RTC.c **** *  None.
 420:Generated_Source\PSoC5/RTC.c **** *
 421:Generated_Source\PSoC5/RTC.c **** * Side Effects:
 422:Generated_Source\PSoC5/RTC.c **** *  Enables for the one pulse per second and central time wheel signals to wake
 423:Generated_Source\PSoC5/RTC.c **** *  up device from the low power (Sleep and Alternate Active) modes and leaves
 424:Generated_Source\PSoC5/RTC.c **** *  them enabled.
 425:Generated_Source\PSoC5/RTC.c **** *
 426:Generated_Source\PSoC5/RTC.c **** *******************************************************************************/
 427:Generated_Source\PSoC5/RTC.c **** void RTC_Enable(void) 
 428:Generated_Source\PSoC5/RTC.c **** {
 569              		.loc 1 428 0
 570              		.cfi_startproc
 571              		@ args = 0, pretend = 0, frame = 8
 572              		@ frame_needed = 1, uses_anonymous_args = 0
 573 0000 80B5     		push	{r7, lr}
 574              		.cfi_def_cfa_offset 8
 575              		.cfi_offset 7, -8
 576              		.cfi_offset 14, -4
 577 0002 82B0     		sub	sp, sp, #8
 578              		.cfi_def_cfa_offset 16
 579 0004 00AF     		add	r7, sp, #0
 580              		.cfi_def_cfa_register 7
 429:Generated_Source\PSoC5/RTC.c ****     uint8 interruptState;
 430:Generated_Source\PSoC5/RTC.c **** 
 431:Generated_Source\PSoC5/RTC.c ****     /* Enter critical section */
 432:Generated_Source\PSoC5/RTC.c ****     interruptState = CyEnterCriticalSection();
 581              		.loc 1 432 0
 582 0006 FFF7FEFF 		bl	CyEnterCriticalSection
 583 000a 0346     		mov	r3, r0
 584 000c FB71     		strb	r3, [r7, #7]
 433:Generated_Source\PSoC5/RTC.c **** 
 434:Generated_Source\PSoC5/RTC.c ****     /* Enable one pulse per second event and interrupt */
 435:Generated_Source\PSoC5/RTC.c ****     RTC_OPPS_CFG_REG |= (RTC_OPPS_EN_MASK | RTC_OPPSIE_EN_MASK);
 585              		.loc 1 435 0
 586 000e 094A     		ldr	r2, .L33
 587 0010 084B     		ldr	r3, .L33
ARM GAS  C:\Users\Admin\AppData\Local\Temp\cc4n2E7w.s 			page 19


 588 0012 1B78     		ldrb	r3, [r3]
 589 0014 DBB2     		uxtb	r3, r3
 590 0016 43F03003 		orr	r3, r3, #48
 591 001a DBB2     		uxtb	r3, r3
 592 001c 1370     		strb	r3, [r2]
 436:Generated_Source\PSoC5/RTC.c **** 
 437:Generated_Source\PSoC5/RTC.c ****     /* Exit critical section */
 438:Generated_Source\PSoC5/RTC.c ****     CyExitCriticalSection(interruptState);
 593              		.loc 1 438 0
 594 001e FB79     		ldrb	r3, [r7, #7]	@ zero_extendqisi2
 595 0020 1846     		mov	r0, r3
 596 0022 FFF7FEFF 		bl	CyExitCriticalSection
 439:Generated_Source\PSoC5/RTC.c **** 
 440:Generated_Source\PSoC5/RTC.c ****     /* Enable interrupt */
 441:Generated_Source\PSoC5/RTC.c ****     CyIntEnable(RTC_ISR_NUMBER);
 597              		.loc 1 441 0
 598 0026 044B     		ldr	r3, .L33+4
 599 0028 0122     		movs	r2, #1
 600 002a 1A60     		str	r2, [r3]
 442:Generated_Source\PSoC5/RTC.c **** }
 601              		.loc 1 442 0
 602 002c 00BF     		nop
 603 002e 0837     		adds	r7, r7, #8
 604              		.cfi_def_cfa_offset 8
 605 0030 BD46     		mov	sp, r7
 606              		.cfi_def_cfa_register 13
 607              		@ sp needed
 608 0032 80BD     		pop	{r7, pc}
 609              	.L34:
 610              		.align	2
 611              	.L33:
 612 0034 82430040 		.word	1073759106
 613 0038 00E100E0 		.word	-536813312
 614              		.cfi_endproc
 615              	.LFE6:
 616              		.size	RTC_Enable, .-RTC_Enable
 617              		.section	.text.RTC_ReadTime,"ax",%progbits
 618              		.align	2
 619              		.global	RTC_ReadTime
 620              		.thumb
 621              		.thumb_func
 622              		.type	RTC_ReadTime, %function
 623              	RTC_ReadTime:
 624              	.LFB7:
 443:Generated_Source\PSoC5/RTC.c **** 
 444:Generated_Source\PSoC5/RTC.c **** 
 445:Generated_Source\PSoC5/RTC.c **** /*******************************************************************************
 446:Generated_Source\PSoC5/RTC.c **** * Function Name:   RTC_ReadTime
 447:Generated_Source\PSoC5/RTC.c **** ********************************************************************************
 448:Generated_Source\PSoC5/RTC.c **** *
 449:Generated_Source\PSoC5/RTC.c **** * Summary:
 450:Generated_Source\PSoC5/RTC.c **** *  Returns a pointer to the current time and date structure.
 451:Generated_Source\PSoC5/RTC.c **** *
 452:Generated_Source\PSoC5/RTC.c **** * Parameters:
 453:Generated_Source\PSoC5/RTC.c **** *  None.
 454:Generated_Source\PSoC5/RTC.c **** *
 455:Generated_Source\PSoC5/RTC.c **** * Return:
ARM GAS  C:\Users\Admin\AppData\Local\Temp\cc4n2E7w.s 			page 20


 456:Generated_Source\PSoC5/RTC.c **** *  RTC_currentTimeDate: pointer to the global structure with the
 457:Generated_Source\PSoC5/RTC.c **** *  current date and time values.
 458:Generated_Source\PSoC5/RTC.c **** *
 459:Generated_Source\PSoC5/RTC.c **** * Global variables:
 460:Generated_Source\PSoC5/RTC.c **** *  RTC_currentTimeDate: global variable with current date and
 461:Generated_Source\PSoC5/RTC.c **** *   time is used.
 462:Generated_Source\PSoC5/RTC.c **** *
 463:Generated_Source\PSoC5/RTC.c **** * Side Effects:
 464:Generated_Source\PSoC5/RTC.c **** *  You should disable the interrupt for the RTC component before calling any
 465:Generated_Source\PSoC5/RTC.c **** *  read API to avoid an RTC Counter increment in the middle of a time or date
 466:Generated_Source\PSoC5/RTC.c **** *  read operation. Re-enable the interrupts after the data is read.
 467:Generated_Source\PSoC5/RTC.c **** *
 468:Generated_Source\PSoC5/RTC.c **** *******************************************************************************/
 469:Generated_Source\PSoC5/RTC.c **** RTC_TIME_DATE * RTC_ReadTime(void) 
 470:Generated_Source\PSoC5/RTC.c **** {
 625              		.loc 1 470 0
 626              		.cfi_startproc
 627              		@ args = 0, pretend = 0, frame = 0
 628              		@ frame_needed = 1, uses_anonymous_args = 0
 629              		@ link register save eliminated.
 630 0000 80B4     		push	{r7}
 631              		.cfi_def_cfa_offset 4
 632              		.cfi_offset 7, -4
 633 0002 00AF     		add	r7, sp, #0
 634              		.cfi_def_cfa_register 7
 471:Generated_Source\PSoC5/RTC.c ****     /* Returns a pointer to the current time and date structure */
 472:Generated_Source\PSoC5/RTC.c ****     return (&RTC_currentTimeDate);
 635              		.loc 1 472 0
 636 0004 024B     		ldr	r3, .L37
 473:Generated_Source\PSoC5/RTC.c **** }
 637              		.loc 1 473 0
 638 0006 1846     		mov	r0, r3
 639 0008 BD46     		mov	sp, r7
 640              		.cfi_def_cfa_register 13
 641              		@ sp needed
 642 000a 80BC     		pop	{r7}
 643              		.cfi_restore 7
 644              		.cfi_def_cfa_offset 0
 645 000c 7047     		bx	lr
 646              	.L38:
 647 000e 00BF     		.align	2
 648              	.L37:
 649 0010 00000000 		.word	RTC_currentTimeDate
 650              		.cfi_endproc
 651              	.LFE7:
 652              		.size	RTC_ReadTime, .-RTC_ReadTime
 653              		.section	.text.RTC_WriteTime,"ax",%progbits
 654              		.align	2
 655              		.global	RTC_WriteTime
 656              		.thumb
 657              		.thumb_func
 658              		.type	RTC_WriteTime, %function
 659              	RTC_WriteTime:
 660              	.LFB8:
 474:Generated_Source\PSoC5/RTC.c **** 
 475:Generated_Source\PSoC5/RTC.c **** 
 476:Generated_Source\PSoC5/RTC.c **** /*******************************************************************************
ARM GAS  C:\Users\Admin\AppData\Local\Temp\cc4n2E7w.s 			page 21


 477:Generated_Source\PSoC5/RTC.c **** * Function Name:   RTC_WriteTime
 478:Generated_Source\PSoC5/RTC.c **** ********************************************************************************
 479:Generated_Source\PSoC5/RTC.c **** *
 480:Generated_Source\PSoC5/RTC.c **** * Summary:
 481:Generated_Source\PSoC5/RTC.c **** *  Writes time and date values as current time and date. Only
 482:Generated_Source\PSoC5/RTC.c **** *  passes Milliseconds(optionally), Seconds, Minutes, Hours, Month,
 483:Generated_Source\PSoC5/RTC.c **** *  Day Of Month and Year.
 484:Generated_Source\PSoC5/RTC.c **** *
 485:Generated_Source\PSoC5/RTC.c **** * Parameters:
 486:Generated_Source\PSoC5/RTC.c **** *  timeDate: Pointer to RTC_TIME_DATE global structure where new
 487:Generated_Source\PSoC5/RTC.c **** *  values of time and date are stored.
 488:Generated_Source\PSoC5/RTC.c **** *
 489:Generated_Source\PSoC5/RTC.c **** * Return:
 490:Generated_Source\PSoC5/RTC.c **** *  None.
 491:Generated_Source\PSoC5/RTC.c **** *
 492:Generated_Source\PSoC5/RTC.c **** * Global variables:
 493:Generated_Source\PSoC5/RTC.c **** *  RTC_currentTimeDate: global structure is modified with the new
 494:Generated_Source\PSoC5/RTC.c **** *  values of current date and time.
 495:Generated_Source\PSoC5/RTC.c **** *
 496:Generated_Source\PSoC5/RTC.c **** * Reentrant:
 497:Generated_Source\PSoC5/RTC.c **** *  No.
 498:Generated_Source\PSoC5/RTC.c **** *
 499:Generated_Source\PSoC5/RTC.c **** *******************************************************************************/
 500:Generated_Source\PSoC5/RTC.c **** void RTC_WriteTime(const RTC_TIME_DATE * timeDate)
 501:Generated_Source\PSoC5/RTC.c ****      
 502:Generated_Source\PSoC5/RTC.c **** {
 661              		.loc 1 502 0
 662              		.cfi_startproc
 663              		@ args = 0, pretend = 0, frame = 8
 664              		@ frame_needed = 1, uses_anonymous_args = 0
 665 0000 80B5     		push	{r7, lr}
 666              		.cfi_def_cfa_offset 8
 667              		.cfi_offset 7, -8
 668              		.cfi_offset 14, -4
 669 0002 82B0     		sub	sp, sp, #8
 670              		.cfi_def_cfa_offset 16
 671 0004 00AF     		add	r7, sp, #0
 672              		.cfi_def_cfa_register 7
 673 0006 7860     		str	r0, [r7, #4]
 503:Generated_Source\PSoC5/RTC.c ****     /* Disable Interrupt of RTC Component */
 504:Generated_Source\PSoC5/RTC.c ****     RTC_DisableInt();
 674              		.loc 1 504 0
 675 0008 FFF7FEFF 		bl	RTC_DisableInt
 505:Generated_Source\PSoC5/RTC.c **** 
 506:Generated_Source\PSoC5/RTC.c ****     /* Write current time and date */
 507:Generated_Source\PSoC5/RTC.c ****     RTC_currentTimeDate.Sec = timeDate->Sec;
 676              		.loc 1 507 0
 677 000c 7B68     		ldr	r3, [r7, #4]
 678 000e 1B78     		ldrb	r3, [r3]
 679 0010 DAB2     		uxtb	r2, r3
 680 0012 104B     		ldr	r3, .L40
 681 0014 1A70     		strb	r2, [r3]
 508:Generated_Source\PSoC5/RTC.c ****     RTC_currentTimeDate.Min = timeDate->Min;
 682              		.loc 1 508 0
 683 0016 7B68     		ldr	r3, [r7, #4]
 684 0018 5B78     		ldrb	r3, [r3, #1]
 685 001a DAB2     		uxtb	r2, r3
ARM GAS  C:\Users\Admin\AppData\Local\Temp\cc4n2E7w.s 			page 22


 686 001c 0D4B     		ldr	r3, .L40
 687 001e 5A70     		strb	r2, [r3, #1]
 509:Generated_Source\PSoC5/RTC.c ****     RTC_currentTimeDate.Hour = timeDate->Hour;
 688              		.loc 1 509 0
 689 0020 7B68     		ldr	r3, [r7, #4]
 690 0022 9B78     		ldrb	r3, [r3, #2]
 691 0024 DAB2     		uxtb	r2, r3
 692 0026 0B4B     		ldr	r3, .L40
 693 0028 9A70     		strb	r2, [r3, #2]
 510:Generated_Source\PSoC5/RTC.c ****     RTC_currentTimeDate.DayOfMonth = timeDate->DayOfMonth;
 694              		.loc 1 510 0
 695 002a 7B68     		ldr	r3, [r7, #4]
 696 002c 1B79     		ldrb	r3, [r3, #4]
 697 002e DAB2     		uxtb	r2, r3
 698 0030 084B     		ldr	r3, .L40
 699 0032 1A71     		strb	r2, [r3, #4]
 511:Generated_Source\PSoC5/RTC.c ****     RTC_currentTimeDate.Month = timeDate->Month;
 700              		.loc 1 511 0
 701 0034 7B68     		ldr	r3, [r7, #4]
 702 0036 1B7A     		ldrb	r3, [r3, #8]
 703 0038 DAB2     		uxtb	r2, r3
 704 003a 064B     		ldr	r3, .L40
 705 003c 1A72     		strb	r2, [r3, #8]
 512:Generated_Source\PSoC5/RTC.c ****     RTC_currentTimeDate.Year = timeDate->Year;
 706              		.loc 1 512 0
 707 003e 7B68     		ldr	r3, [r7, #4]
 708 0040 5B89     		ldrh	r3, [r3, #10]	@ movhi
 709 0042 9AB2     		uxth	r2, r3
 710 0044 034B     		ldr	r3, .L40
 711 0046 5A81     		strh	r2, [r3, #10]	@ movhi
 513:Generated_Source\PSoC5/RTC.c **** 
 514:Generated_Source\PSoC5/RTC.c ****     /* Enable Interrupt of RTC Component */
 515:Generated_Source\PSoC5/RTC.c ****     RTC_EnableInt();
 712              		.loc 1 515 0
 713 0048 FFF7FEFF 		bl	RTC_EnableInt
 516:Generated_Source\PSoC5/RTC.c **** }
 714              		.loc 1 516 0
 715 004c 00BF     		nop
 716 004e 0837     		adds	r7, r7, #8
 717              		.cfi_def_cfa_offset 8
 718 0050 BD46     		mov	sp, r7
 719              		.cfi_def_cfa_register 13
 720              		@ sp needed
 721 0052 80BD     		pop	{r7, pc}
 722              	.L41:
 723              		.align	2
 724              	.L40:
 725 0054 00000000 		.word	RTC_currentTimeDate
 726              		.cfi_endproc
 727              	.LFE8:
 728              		.size	RTC_WriteTime, .-RTC_WriteTime
 729              		.section	.text.RTC_WriteSecond,"ax",%progbits
 730              		.align	2
 731              		.global	RTC_WriteSecond
 732              		.thumb
 733              		.thumb_func
 734              		.type	RTC_WriteSecond, %function
ARM GAS  C:\Users\Admin\AppData\Local\Temp\cc4n2E7w.s 			page 23


 735              	RTC_WriteSecond:
 736              	.LFB9:
 517:Generated_Source\PSoC5/RTC.c **** 
 518:Generated_Source\PSoC5/RTC.c **** 
 519:Generated_Source\PSoC5/RTC.c **** /*******************************************************************************
 520:Generated_Source\PSoC5/RTC.c **** * Function Name:   RTC_WriteSecond
 521:Generated_Source\PSoC5/RTC.c **** ********************************************************************************
 522:Generated_Source\PSoC5/RTC.c **** *
 523:Generated_Source\PSoC5/RTC.c **** * Summary:
 524:Generated_Source\PSoC5/RTC.c **** *  Writes Sec software register value.
 525:Generated_Source\PSoC5/RTC.c **** *
 526:Generated_Source\PSoC5/RTC.c **** * Parameters:
 527:Generated_Source\PSoC5/RTC.c **** *  second: Seconds value.
 528:Generated_Source\PSoC5/RTC.c **** *
 529:Generated_Source\PSoC5/RTC.c **** * Return:
 530:Generated_Source\PSoC5/RTC.c **** *  None.
 531:Generated_Source\PSoC5/RTC.c **** *
 532:Generated_Source\PSoC5/RTC.c **** * Global variables:
 533:Generated_Source\PSoC5/RTC.c **** *  RTC_currentTimeDate.Sec: global structure's field where current
 534:Generated_Source\PSoC5/RTC.c **** *  second's value is modified.
 535:Generated_Source\PSoC5/RTC.c **** *
 536:Generated_Source\PSoC5/RTC.c **** * Reentrant:
 537:Generated_Source\PSoC5/RTC.c **** *  No.
 538:Generated_Source\PSoC5/RTC.c **** *
 539:Generated_Source\PSoC5/RTC.c **** *******************************************************************************/
 540:Generated_Source\PSoC5/RTC.c **** void RTC_WriteSecond(uint8 second) 
 541:Generated_Source\PSoC5/RTC.c **** {
 737              		.loc 1 541 0
 738              		.cfi_startproc
 739              		@ args = 0, pretend = 0, frame = 8
 740              		@ frame_needed = 1, uses_anonymous_args = 0
 741              		@ link register save eliminated.
 742 0000 80B4     		push	{r7}
 743              		.cfi_def_cfa_offset 4
 744              		.cfi_offset 7, -4
 745 0002 83B0     		sub	sp, sp, #12
 746              		.cfi_def_cfa_offset 16
 747 0004 00AF     		add	r7, sp, #0
 748              		.cfi_def_cfa_register 7
 749 0006 0346     		mov	r3, r0
 750 0008 FB71     		strb	r3, [r7, #7]
 542:Generated_Source\PSoC5/RTC.c ****     /* Save seconds to the current time and date structure */
 543:Generated_Source\PSoC5/RTC.c ****     RTC_currentTimeDate.Sec = second;
 751              		.loc 1 543 0
 752 000a 044A     		ldr	r2, .L43
 753 000c FB79     		ldrb	r3, [r7, #7]
 754 000e 1370     		strb	r3, [r2]
 544:Generated_Source\PSoC5/RTC.c **** }
 755              		.loc 1 544 0
 756 0010 00BF     		nop
 757 0012 0C37     		adds	r7, r7, #12
 758              		.cfi_def_cfa_offset 4
 759 0014 BD46     		mov	sp, r7
 760              		.cfi_def_cfa_register 13
 761              		@ sp needed
 762 0016 80BC     		pop	{r7}
 763              		.cfi_restore 7
ARM GAS  C:\Users\Admin\AppData\Local\Temp\cc4n2E7w.s 			page 24


 764              		.cfi_def_cfa_offset 0
 765 0018 7047     		bx	lr
 766              	.L44:
 767 001a 00BF     		.align	2
 768              	.L43:
 769 001c 00000000 		.word	RTC_currentTimeDate
 770              		.cfi_endproc
 771              	.LFE9:
 772              		.size	RTC_WriteSecond, .-RTC_WriteSecond
 773              		.section	.text.RTC_WriteMinute,"ax",%progbits
 774              		.align	2
 775              		.global	RTC_WriteMinute
 776              		.thumb
 777              		.thumb_func
 778              		.type	RTC_WriteMinute, %function
 779              	RTC_WriteMinute:
 780              	.LFB10:
 545:Generated_Source\PSoC5/RTC.c **** 
 546:Generated_Source\PSoC5/RTC.c **** 
 547:Generated_Source\PSoC5/RTC.c **** /*******************************************************************************
 548:Generated_Source\PSoC5/RTC.c **** * Function Name:   RTC_WriteMinute
 549:Generated_Source\PSoC5/RTC.c **** ********************************************************************************
 550:Generated_Source\PSoC5/RTC.c **** *
 551:Generated_Source\PSoC5/RTC.c **** * Summary:
 552:Generated_Source\PSoC5/RTC.c **** *  Writes Minute value in minutes counter register.
 553:Generated_Source\PSoC5/RTC.c **** *
 554:Generated_Source\PSoC5/RTC.c **** * Parameters:
 555:Generated_Source\PSoC5/RTC.c **** *  minute: Minutes value.
 556:Generated_Source\PSoC5/RTC.c **** *
 557:Generated_Source\PSoC5/RTC.c **** * Return:
 558:Generated_Source\PSoC5/RTC.c **** *  None.
 559:Generated_Source\PSoC5/RTC.c **** *
 560:Generated_Source\PSoC5/RTC.c **** * Global variables:
 561:Generated_Source\PSoC5/RTC.c **** *  RTC_currentTimeDate.Min: global structure's field where
 562:Generated_Source\PSoC5/RTC.c **** *  current minute's value is modified.
 563:Generated_Source\PSoC5/RTC.c **** *
 564:Generated_Source\PSoC5/RTC.c **** * Reentrant:
 565:Generated_Source\PSoC5/RTC.c **** *  No.
 566:Generated_Source\PSoC5/RTC.c **** *
 567:Generated_Source\PSoC5/RTC.c **** *******************************************************************************/
 568:Generated_Source\PSoC5/RTC.c **** void RTC_WriteMinute(uint8 minute) 
 569:Generated_Source\PSoC5/RTC.c **** {
 781              		.loc 1 569 0
 782              		.cfi_startproc
 783              		@ args = 0, pretend = 0, frame = 8
 784              		@ frame_needed = 1, uses_anonymous_args = 0
 785              		@ link register save eliminated.
 786 0000 80B4     		push	{r7}
 787              		.cfi_def_cfa_offset 4
 788              		.cfi_offset 7, -4
 789 0002 83B0     		sub	sp, sp, #12
 790              		.cfi_def_cfa_offset 16
 791 0004 00AF     		add	r7, sp, #0
 792              		.cfi_def_cfa_register 7
 793 0006 0346     		mov	r3, r0
 794 0008 FB71     		strb	r3, [r7, #7]
 570:Generated_Source\PSoC5/RTC.c ****     /* Save minutes to the current time and date structure */
ARM GAS  C:\Users\Admin\AppData\Local\Temp\cc4n2E7w.s 			page 25


 571:Generated_Source\PSoC5/RTC.c ****     RTC_currentTimeDate.Min = minute;
 795              		.loc 1 571 0
 796 000a 044A     		ldr	r2, .L46
 797 000c FB79     		ldrb	r3, [r7, #7]
 798 000e 5370     		strb	r3, [r2, #1]
 572:Generated_Source\PSoC5/RTC.c **** }
 799              		.loc 1 572 0
 800 0010 00BF     		nop
 801 0012 0C37     		adds	r7, r7, #12
 802              		.cfi_def_cfa_offset 4
 803 0014 BD46     		mov	sp, r7
 804              		.cfi_def_cfa_register 13
 805              		@ sp needed
 806 0016 80BC     		pop	{r7}
 807              		.cfi_restore 7
 808              		.cfi_def_cfa_offset 0
 809 0018 7047     		bx	lr
 810              	.L47:
 811 001a 00BF     		.align	2
 812              	.L46:
 813 001c 00000000 		.word	RTC_currentTimeDate
 814              		.cfi_endproc
 815              	.LFE10:
 816              		.size	RTC_WriteMinute, .-RTC_WriteMinute
 817              		.section	.text.RTC_WriteHour,"ax",%progbits
 818              		.align	2
 819              		.global	RTC_WriteHour
 820              		.thumb
 821              		.thumb_func
 822              		.type	RTC_WriteHour, %function
 823              	RTC_WriteHour:
 824              	.LFB11:
 573:Generated_Source\PSoC5/RTC.c **** 
 574:Generated_Source\PSoC5/RTC.c **** 
 575:Generated_Source\PSoC5/RTC.c **** /*******************************************************************************
 576:Generated_Source\PSoC5/RTC.c **** * Function Name:   RTC_WriteHour
 577:Generated_Source\PSoC5/RTC.c **** ********************************************************************************
 578:Generated_Source\PSoC5/RTC.c **** *
 579:Generated_Source\PSoC5/RTC.c **** * Summary:
 580:Generated_Source\PSoC5/RTC.c **** *  Writes Hour software register value.
 581:Generated_Source\PSoC5/RTC.c **** *
 582:Generated_Source\PSoC5/RTC.c **** * Parameters:
 583:Generated_Source\PSoC5/RTC.c **** *  hour: Hours value.
 584:Generated_Source\PSoC5/RTC.c **** *
 585:Generated_Source\PSoC5/RTC.c **** * Return:
 586:Generated_Source\PSoC5/RTC.c **** *  None.
 587:Generated_Source\PSoC5/RTC.c **** *
 588:Generated_Source\PSoC5/RTC.c **** * Global variables:
 589:Generated_Source\PSoC5/RTC.c **** *  RTC_currentTimeDate.Hour: global structure's field where
 590:Generated_Source\PSoC5/RTC.c **** *  current hour's value is modified.
 591:Generated_Source\PSoC5/RTC.c **** *
 592:Generated_Source\PSoC5/RTC.c **** * Reentrant:
 593:Generated_Source\PSoC5/RTC.c **** *  No.
 594:Generated_Source\PSoC5/RTC.c **** *
 595:Generated_Source\PSoC5/RTC.c **** *******************************************************************************/
 596:Generated_Source\PSoC5/RTC.c **** void RTC_WriteHour(uint8 hour) 
 597:Generated_Source\PSoC5/RTC.c **** {
ARM GAS  C:\Users\Admin\AppData\Local\Temp\cc4n2E7w.s 			page 26


 825              		.loc 1 597 0
 826              		.cfi_startproc
 827              		@ args = 0, pretend = 0, frame = 8
 828              		@ frame_needed = 1, uses_anonymous_args = 0
 829              		@ link register save eliminated.
 830 0000 80B4     		push	{r7}
 831              		.cfi_def_cfa_offset 4
 832              		.cfi_offset 7, -4
 833 0002 83B0     		sub	sp, sp, #12
 834              		.cfi_def_cfa_offset 16
 835 0004 00AF     		add	r7, sp, #0
 836              		.cfi_def_cfa_register 7
 837 0006 0346     		mov	r3, r0
 838 0008 FB71     		strb	r3, [r7, #7]
 598:Generated_Source\PSoC5/RTC.c ****     /* Save hours to the current time and date structure */
 599:Generated_Source\PSoC5/RTC.c ****     RTC_currentTimeDate.Hour = hour;
 839              		.loc 1 599 0
 840 000a 044A     		ldr	r2, .L49
 841 000c FB79     		ldrb	r3, [r7, #7]
 842 000e 9370     		strb	r3, [r2, #2]
 600:Generated_Source\PSoC5/RTC.c **** }
 843              		.loc 1 600 0
 844 0010 00BF     		nop
 845 0012 0C37     		adds	r7, r7, #12
 846              		.cfi_def_cfa_offset 4
 847 0014 BD46     		mov	sp, r7
 848              		.cfi_def_cfa_register 13
 849              		@ sp needed
 850 0016 80BC     		pop	{r7}
 851              		.cfi_restore 7
 852              		.cfi_def_cfa_offset 0
 853 0018 7047     		bx	lr
 854              	.L50:
 855 001a 00BF     		.align	2
 856              	.L49:
 857 001c 00000000 		.word	RTC_currentTimeDate
 858              		.cfi_endproc
 859              	.LFE11:
 860              		.size	RTC_WriteHour, .-RTC_WriteHour
 861              		.section	.text.RTC_WriteDayOfMonth,"ax",%progbits
 862              		.align	2
 863              		.global	RTC_WriteDayOfMonth
 864              		.thumb
 865              		.thumb_func
 866              		.type	RTC_WriteDayOfMonth, %function
 867              	RTC_WriteDayOfMonth:
 868              	.LFB12:
 601:Generated_Source\PSoC5/RTC.c **** 
 602:Generated_Source\PSoC5/RTC.c **** 
 603:Generated_Source\PSoC5/RTC.c **** /*******************************************************************************
 604:Generated_Source\PSoC5/RTC.c **** * Function Name:   RTC_WriteDayOfMonth
 605:Generated_Source\PSoC5/RTC.c **** ********************************************************************************
 606:Generated_Source\PSoC5/RTC.c **** *
 607:Generated_Source\PSoC5/RTC.c **** * Summary:
 608:Generated_Source\PSoC5/RTC.c **** *  Writes DayOfMonth software register value.
 609:Generated_Source\PSoC5/RTC.c **** *
 610:Generated_Source\PSoC5/RTC.c **** * Parameters:
ARM GAS  C:\Users\Admin\AppData\Local\Temp\cc4n2E7w.s 			page 27


 611:Generated_Source\PSoC5/RTC.c **** *  dayOfMonth: Day Of Month value.
 612:Generated_Source\PSoC5/RTC.c **** *
 613:Generated_Source\PSoC5/RTC.c **** * Return:
 614:Generated_Source\PSoC5/RTC.c **** *  None.
 615:Generated_Source\PSoC5/RTC.c **** *
 616:Generated_Source\PSoC5/RTC.c **** * Global variables:
 617:Generated_Source\PSoC5/RTC.c **** *  RTC_currentTimeDate.DayOfMonth: global structure's field where
 618:Generated_Source\PSoC5/RTC.c **** *  current day of month's value is modified.
 619:Generated_Source\PSoC5/RTC.c **** *
 620:Generated_Source\PSoC5/RTC.c **** * Reentrant:
 621:Generated_Source\PSoC5/RTC.c **** *  No.
 622:Generated_Source\PSoC5/RTC.c **** *
 623:Generated_Source\PSoC5/RTC.c **** *******************************************************************************/
 624:Generated_Source\PSoC5/RTC.c **** void RTC_WriteDayOfMonth(uint8 dayOfMonth) 
 625:Generated_Source\PSoC5/RTC.c **** {
 869              		.loc 1 625 0
 870              		.cfi_startproc
 871              		@ args = 0, pretend = 0, frame = 8
 872              		@ frame_needed = 1, uses_anonymous_args = 0
 873              		@ link register save eliminated.
 874 0000 80B4     		push	{r7}
 875              		.cfi_def_cfa_offset 4
 876              		.cfi_offset 7, -4
 877 0002 83B0     		sub	sp, sp, #12
 878              		.cfi_def_cfa_offset 16
 879 0004 00AF     		add	r7, sp, #0
 880              		.cfi_def_cfa_register 7
 881 0006 0346     		mov	r3, r0
 882 0008 FB71     		strb	r3, [r7, #7]
 626:Generated_Source\PSoC5/RTC.c ****     /* Save day of month to the current time and date structure */
 627:Generated_Source\PSoC5/RTC.c ****     RTC_currentTimeDate.DayOfMonth = dayOfMonth;
 883              		.loc 1 627 0
 884 000a 044A     		ldr	r2, .L52
 885 000c FB79     		ldrb	r3, [r7, #7]
 886 000e 1371     		strb	r3, [r2, #4]
 628:Generated_Source\PSoC5/RTC.c **** }
 887              		.loc 1 628 0
 888 0010 00BF     		nop
 889 0012 0C37     		adds	r7, r7, #12
 890              		.cfi_def_cfa_offset 4
 891 0014 BD46     		mov	sp, r7
 892              		.cfi_def_cfa_register 13
 893              		@ sp needed
 894 0016 80BC     		pop	{r7}
 895              		.cfi_restore 7
 896              		.cfi_def_cfa_offset 0
 897 0018 7047     		bx	lr
 898              	.L53:
 899 001a 00BF     		.align	2
 900              	.L52:
 901 001c 00000000 		.word	RTC_currentTimeDate
 902              		.cfi_endproc
 903              	.LFE12:
 904              		.size	RTC_WriteDayOfMonth, .-RTC_WriteDayOfMonth
 905              		.section	.text.RTC_WriteMonth,"ax",%progbits
 906              		.align	2
 907              		.global	RTC_WriteMonth
ARM GAS  C:\Users\Admin\AppData\Local\Temp\cc4n2E7w.s 			page 28


 908              		.thumb
 909              		.thumb_func
 910              		.type	RTC_WriteMonth, %function
 911              	RTC_WriteMonth:
 912              	.LFB13:
 629:Generated_Source\PSoC5/RTC.c **** 
 630:Generated_Source\PSoC5/RTC.c **** 
 631:Generated_Source\PSoC5/RTC.c **** /*******************************************************************************
 632:Generated_Source\PSoC5/RTC.c **** * Function Name:   RTC_WriteMonth
 633:Generated_Source\PSoC5/RTC.c **** ********************************************************************************
 634:Generated_Source\PSoC5/RTC.c **** *
 635:Generated_Source\PSoC5/RTC.c **** * Summary:
 636:Generated_Source\PSoC5/RTC.c **** *  Writes Month software register value.
 637:Generated_Source\PSoC5/RTC.c **** *
 638:Generated_Source\PSoC5/RTC.c **** * Parameters:
 639:Generated_Source\PSoC5/RTC.c **** *  month: Month value.
 640:Generated_Source\PSoC5/RTC.c **** *
 641:Generated_Source\PSoC5/RTC.c **** * Return:
 642:Generated_Source\PSoC5/RTC.c **** *  None.
 643:Generated_Source\PSoC5/RTC.c **** *
 644:Generated_Source\PSoC5/RTC.c **** * Global variables:
 645:Generated_Source\PSoC5/RTC.c **** *  RTC_currentTimeDate.Month: global structure's field where
 646:Generated_Source\PSoC5/RTC.c **** *  current day of month's value is modified.
 647:Generated_Source\PSoC5/RTC.c **** *
 648:Generated_Source\PSoC5/RTC.c **** * Reentrant:
 649:Generated_Source\PSoC5/RTC.c **** *  No.
 650:Generated_Source\PSoC5/RTC.c **** *
 651:Generated_Source\PSoC5/RTC.c **** *******************************************************************************/
 652:Generated_Source\PSoC5/RTC.c **** void RTC_WriteMonth(uint8 month) 
 653:Generated_Source\PSoC5/RTC.c **** {
 913              		.loc 1 653 0
 914              		.cfi_startproc
 915              		@ args = 0, pretend = 0, frame = 8
 916              		@ frame_needed = 1, uses_anonymous_args = 0
 917              		@ link register save eliminated.
 918 0000 80B4     		push	{r7}
 919              		.cfi_def_cfa_offset 4
 920              		.cfi_offset 7, -4
 921 0002 83B0     		sub	sp, sp, #12
 922              		.cfi_def_cfa_offset 16
 923 0004 00AF     		add	r7, sp, #0
 924              		.cfi_def_cfa_register 7
 925 0006 0346     		mov	r3, r0
 926 0008 FB71     		strb	r3, [r7, #7]
 654:Generated_Source\PSoC5/RTC.c ****     /* Save months to the current time and date structure */
 655:Generated_Source\PSoC5/RTC.c ****     RTC_currentTimeDate.Month = month;
 927              		.loc 1 655 0
 928 000a 044A     		ldr	r2, .L55
 929 000c FB79     		ldrb	r3, [r7, #7]
 930 000e 1372     		strb	r3, [r2, #8]
 656:Generated_Source\PSoC5/RTC.c **** }
 931              		.loc 1 656 0
 932 0010 00BF     		nop
 933 0012 0C37     		adds	r7, r7, #12
 934              		.cfi_def_cfa_offset 4
 935 0014 BD46     		mov	sp, r7
 936              		.cfi_def_cfa_register 13
ARM GAS  C:\Users\Admin\AppData\Local\Temp\cc4n2E7w.s 			page 29


 937              		@ sp needed
 938 0016 80BC     		pop	{r7}
 939              		.cfi_restore 7
 940              		.cfi_def_cfa_offset 0
 941 0018 7047     		bx	lr
 942              	.L56:
 943 001a 00BF     		.align	2
 944              	.L55:
 945 001c 00000000 		.word	RTC_currentTimeDate
 946              		.cfi_endproc
 947              	.LFE13:
 948              		.size	RTC_WriteMonth, .-RTC_WriteMonth
 949              		.section	.text.RTC_WriteYear,"ax",%progbits
 950              		.align	2
 951              		.global	RTC_WriteYear
 952              		.thumb
 953              		.thumb_func
 954              		.type	RTC_WriteYear, %function
 955              	RTC_WriteYear:
 956              	.LFB14:
 657:Generated_Source\PSoC5/RTC.c **** 
 658:Generated_Source\PSoC5/RTC.c **** 
 659:Generated_Source\PSoC5/RTC.c **** /*******************************************************************************
 660:Generated_Source\PSoC5/RTC.c **** * Function Name:   RTC_WriteYear
 661:Generated_Source\PSoC5/RTC.c **** ********************************************************************************
 662:Generated_Source\PSoC5/RTC.c **** *
 663:Generated_Source\PSoC5/RTC.c **** * Summary:
 664:Generated_Source\PSoC5/RTC.c **** *  Writes Year software register value.
 665:Generated_Source\PSoC5/RTC.c **** *
 666:Generated_Source\PSoC5/RTC.c **** * Parameters:
 667:Generated_Source\PSoC5/RTC.c **** *  year: Years value.
 668:Generated_Source\PSoC5/RTC.c **** *
 669:Generated_Source\PSoC5/RTC.c **** * Return:
 670:Generated_Source\PSoC5/RTC.c **** *  None.
 671:Generated_Source\PSoC5/RTC.c **** *
 672:Generated_Source\PSoC5/RTC.c **** * Global variables:
 673:Generated_Source\PSoC5/RTC.c **** *  RTC_currentTimeDate.Year: global structure's field where
 674:Generated_Source\PSoC5/RTC.c **** *  current year's value is modified.
 675:Generated_Source\PSoC5/RTC.c **** *
 676:Generated_Source\PSoC5/RTC.c **** * Reentrant:
 677:Generated_Source\PSoC5/RTC.c **** *  No.
 678:Generated_Source\PSoC5/RTC.c **** *
 679:Generated_Source\PSoC5/RTC.c **** *******************************************************************************/
 680:Generated_Source\PSoC5/RTC.c **** void RTC_WriteYear(uint16 year) 
 681:Generated_Source\PSoC5/RTC.c **** {
 957              		.loc 1 681 0
 958              		.cfi_startproc
 959              		@ args = 0, pretend = 0, frame = 8
 960              		@ frame_needed = 1, uses_anonymous_args = 0
 961              		@ link register save eliminated.
 962 0000 80B4     		push	{r7}
 963              		.cfi_def_cfa_offset 4
 964              		.cfi_offset 7, -4
 965 0002 83B0     		sub	sp, sp, #12
 966              		.cfi_def_cfa_offset 16
 967 0004 00AF     		add	r7, sp, #0
 968              		.cfi_def_cfa_register 7
ARM GAS  C:\Users\Admin\AppData\Local\Temp\cc4n2E7w.s 			page 30


 969 0006 0346     		mov	r3, r0
 970 0008 FB80     		strh	r3, [r7, #6]	@ movhi
 682:Generated_Source\PSoC5/RTC.c ****     /* Save years to the current time and date structure */
 683:Generated_Source\PSoC5/RTC.c ****     RTC_currentTimeDate.Year = year;
 971              		.loc 1 683 0
 972 000a 044A     		ldr	r2, .L58
 973 000c FB88     		ldrh	r3, [r7, #6]	@ movhi
 974 000e 5381     		strh	r3, [r2, #10]	@ movhi
 684:Generated_Source\PSoC5/RTC.c **** }
 975              		.loc 1 684 0
 976 0010 00BF     		nop
 977 0012 0C37     		adds	r7, r7, #12
 978              		.cfi_def_cfa_offset 4
 979 0014 BD46     		mov	sp, r7
 980              		.cfi_def_cfa_register 13
 981              		@ sp needed
 982 0016 80BC     		pop	{r7}
 983              		.cfi_restore 7
 984              		.cfi_def_cfa_offset 0
 985 0018 7047     		bx	lr
 986              	.L59:
 987 001a 00BF     		.align	2
 988              	.L58:
 989 001c 00000000 		.word	RTC_currentTimeDate
 990              		.cfi_endproc
 991              	.LFE14:
 992              		.size	RTC_WriteYear, .-RTC_WriteYear
 993              		.section	.text.RTC_WriteAlarmSecond,"ax",%progbits
 994              		.align	2
 995              		.global	RTC_WriteAlarmSecond
 996              		.thumb
 997              		.thumb_func
 998              		.type	RTC_WriteAlarmSecond, %function
 999              	RTC_WriteAlarmSecond:
 1000              	.LFB15:
 685:Generated_Source\PSoC5/RTC.c **** 
 686:Generated_Source\PSoC5/RTC.c **** 
 687:Generated_Source\PSoC5/RTC.c **** /*******************************************************************************
 688:Generated_Source\PSoC5/RTC.c **** * Function Name:   RTC_WriteAlarmSecond
 689:Generated_Source\PSoC5/RTC.c **** ********************************************************************************
 690:Generated_Source\PSoC5/RTC.c **** *
 691:Generated_Source\PSoC5/RTC.c **** * Summary:
 692:Generated_Source\PSoC5/RTC.c **** *  Writes Alarm Sec software register value.
 693:Generated_Source\PSoC5/RTC.c **** *
 694:Generated_Source\PSoC5/RTC.c **** * Parameters:
 695:Generated_Source\PSoC5/RTC.c **** *  second: Alarm Seconds value.
 696:Generated_Source\PSoC5/RTC.c **** *
 697:Generated_Source\PSoC5/RTC.c **** * Return:
 698:Generated_Source\PSoC5/RTC.c **** *  None.
 699:Generated_Source\PSoC5/RTC.c **** *
 700:Generated_Source\PSoC5/RTC.c **** * Global variables:
 701:Generated_Source\PSoC5/RTC.c **** *  RTC_currentTimeDate.Sec: this global variable is used for
 702:Generated_Source\PSoC5/RTC.c **** *  comparison while setting and clearing seconds alarm status variable.
 703:Generated_Source\PSoC5/RTC.c **** *
 704:Generated_Source\PSoC5/RTC.c **** *  RTC_alarmCfgTimeDate.Sec: this global variable is modified to
 705:Generated_Source\PSoC5/RTC.c **** *  store of the new seconds alarm.
 706:Generated_Source\PSoC5/RTC.c **** *
ARM GAS  C:\Users\Admin\AppData\Local\Temp\cc4n2E7w.s 			page 31


 707:Generated_Source\PSoC5/RTC.c **** *  RTC_alarmCurStatus: this global variable could be changed if
 708:Generated_Source\PSoC5/RTC.c **** *  second's alarm will be raised.
 709:Generated_Source\PSoC5/RTC.c **** *
 710:Generated_Source\PSoC5/RTC.c **** * Reentrant:
 711:Generated_Source\PSoC5/RTC.c **** *  No.
 712:Generated_Source\PSoC5/RTC.c **** *
 713:Generated_Source\PSoC5/RTC.c **** *******************************************************************************/
 714:Generated_Source\PSoC5/RTC.c **** void RTC_WriteAlarmSecond(uint8 second) 
 715:Generated_Source\PSoC5/RTC.c **** {
 1001              		.loc 1 715 0
 1002              		.cfi_startproc
 1003              		@ args = 0, pretend = 0, frame = 8
 1004              		@ frame_needed = 1, uses_anonymous_args = 0
 1005              		@ link register save eliminated.
 1006 0000 80B4     		push	{r7}
 1007              		.cfi_def_cfa_offset 4
 1008              		.cfi_offset 7, -4
 1009 0002 83B0     		sub	sp, sp, #12
 1010              		.cfi_def_cfa_offset 16
 1011 0004 00AF     		add	r7, sp, #0
 1012              		.cfi_def_cfa_register 7
 1013 0006 0346     		mov	r3, r0
 1014 0008 FB71     		strb	r3, [r7, #7]
 716:Generated_Source\PSoC5/RTC.c ****     RTC_alarmCfgTimeDate.Sec = second;
 1015              		.loc 1 716 0
 1016 000a 104A     		ldr	r2, .L64
 1017 000c FB79     		ldrb	r3, [r7, #7]
 1018 000e 1370     		strb	r3, [r2]
 717:Generated_Source\PSoC5/RTC.c **** 
 718:Generated_Source\PSoC5/RTC.c ****     /* Check second alarm */
 719:Generated_Source\PSoC5/RTC.c ****     if(RTC_alarmCfgTimeDate.Sec == RTC_currentTimeDate.Sec)
 1019              		.loc 1 719 0
 1020 0010 0E4B     		ldr	r3, .L64
 1021 0012 1B78     		ldrb	r3, [r3]
 1022 0014 DAB2     		uxtb	r2, r3
 1023 0016 0E4B     		ldr	r3, .L64+4
 1024 0018 1B78     		ldrb	r3, [r3]
 1025 001a DBB2     		uxtb	r3, r3
 1026 001c 9A42     		cmp	r2, r3
 1027 001e 08D1     		bne	.L61
 720:Generated_Source\PSoC5/RTC.c ****     {
 721:Generated_Source\PSoC5/RTC.c ****         /* Set second alarm */
 722:Generated_Source\PSoC5/RTC.c ****         RTC_alarmCurStatus |= RTC_ALARM_SEC_MASK;
 1028              		.loc 1 722 0
 1029 0020 0C4B     		ldr	r3, .L64+8
 1030 0022 1B78     		ldrb	r3, [r3]
 1031 0024 DBB2     		uxtb	r3, r3
 1032 0026 43F00103 		orr	r3, r3, #1
 1033 002a DAB2     		uxtb	r2, r3
 1034 002c 094B     		ldr	r3, .L64+8
 1035 002e 1A70     		strb	r2, [r3]
 723:Generated_Source\PSoC5/RTC.c ****     }
 724:Generated_Source\PSoC5/RTC.c ****     else /* no second alarm */
 725:Generated_Source\PSoC5/RTC.c ****     {
 726:Generated_Source\PSoC5/RTC.c ****         /* Clear second alarm */
 727:Generated_Source\PSoC5/RTC.c ****         RTC_alarmCurStatus &= (uint8)(~RTC_ALARM_SEC_MASK);
 728:Generated_Source\PSoC5/RTC.c ****     }
ARM GAS  C:\Users\Admin\AppData\Local\Temp\cc4n2E7w.s 			page 32


 729:Generated_Source\PSoC5/RTC.c **** }
 1036              		.loc 1 729 0
 1037 0030 07E0     		b	.L63
 1038              	.L61:
 727:Generated_Source\PSoC5/RTC.c ****     }
 1039              		.loc 1 727 0
 1040 0032 084B     		ldr	r3, .L64+8
 1041 0034 1B78     		ldrb	r3, [r3]
 1042 0036 DBB2     		uxtb	r3, r3
 1043 0038 23F00103 		bic	r3, r3, #1
 1044 003c DAB2     		uxtb	r2, r3
 1045 003e 054B     		ldr	r3, .L64+8
 1046 0040 1A70     		strb	r2, [r3]
 1047              	.L63:
 1048              		.loc 1 729 0
 1049 0042 00BF     		nop
 1050 0044 0C37     		adds	r7, r7, #12
 1051              		.cfi_def_cfa_offset 4
 1052 0046 BD46     		mov	sp, r7
 1053              		.cfi_def_cfa_register 13
 1054              		@ sp needed
 1055 0048 80BC     		pop	{r7}
 1056              		.cfi_restore 7
 1057              		.cfi_def_cfa_offset 0
 1058 004a 7047     		bx	lr
 1059              	.L65:
 1060              		.align	2
 1061              	.L64:
 1062 004c 00000000 		.word	RTC_alarmCfgTimeDate
 1063 0050 00000000 		.word	RTC_currentTimeDate
 1064 0054 00000000 		.word	RTC_alarmCurStatus
 1065              		.cfi_endproc
 1066              	.LFE15:
 1067              		.size	RTC_WriteAlarmSecond, .-RTC_WriteAlarmSecond
 1068              		.section	.text.RTC_WriteAlarmMinute,"ax",%progbits
 1069              		.align	2
 1070              		.global	RTC_WriteAlarmMinute
 1071              		.thumb
 1072              		.thumb_func
 1073              		.type	RTC_WriteAlarmMinute, %function
 1074              	RTC_WriteAlarmMinute:
 1075              	.LFB16:
 730:Generated_Source\PSoC5/RTC.c **** 
 731:Generated_Source\PSoC5/RTC.c **** 
 732:Generated_Source\PSoC5/RTC.c **** /*******************************************************************************
 733:Generated_Source\PSoC5/RTC.c **** * Function Name:   RTC_WriteAlarmMinute
 734:Generated_Source\PSoC5/RTC.c **** ********************************************************************************
 735:Generated_Source\PSoC5/RTC.c **** *
 736:Generated_Source\PSoC5/RTC.c **** * Summary:
 737:Generated_Source\PSoC5/RTC.c **** *  Writes Alarm Min software register value.
 738:Generated_Source\PSoC5/RTC.c **** *
 739:Generated_Source\PSoC5/RTC.c **** * Parameters:
 740:Generated_Source\PSoC5/RTC.c **** *  minute: Alarm minutes value.
 741:Generated_Source\PSoC5/RTC.c **** *
 742:Generated_Source\PSoC5/RTC.c **** * Return:
 743:Generated_Source\PSoC5/RTC.c **** *  None.
 744:Generated_Source\PSoC5/RTC.c **** *
ARM GAS  C:\Users\Admin\AppData\Local\Temp\cc4n2E7w.s 			page 33


 745:Generated_Source\PSoC5/RTC.c **** * Global variables:
 746:Generated_Source\PSoC5/RTC.c **** *  RTC_currentTimeDate.Min: this global variable is used for
 747:Generated_Source\PSoC5/RTC.c **** *  comparison while setting and clearing minutes alarm status variable.
 748:Generated_Source\PSoC5/RTC.c **** *
 749:Generated_Source\PSoC5/RTC.c **** *  RTC_alarmCfgTimeDate.Min: this global variable is modified to
 750:Generated_Source\PSoC5/RTC.c **** *  store of the new minutes alarm.
 751:Generated_Source\PSoC5/RTC.c **** *
 752:Generated_Source\PSoC5/RTC.c **** *  RTC_alarmCurStatus: this global variable could be changed if
 753:Generated_Source\PSoC5/RTC.c **** *  minute's alarm will be raised.
 754:Generated_Source\PSoC5/RTC.c **** *
 755:Generated_Source\PSoC5/RTC.c **** * Reentrant:
 756:Generated_Source\PSoC5/RTC.c **** *  No.
 757:Generated_Source\PSoC5/RTC.c **** *
 758:Generated_Source\PSoC5/RTC.c **** *******************************************************************************/
 759:Generated_Source\PSoC5/RTC.c **** void RTC_WriteAlarmMinute(uint8 minute) 
 760:Generated_Source\PSoC5/RTC.c **** {
 1076              		.loc 1 760 0
 1077              		.cfi_startproc
 1078              		@ args = 0, pretend = 0, frame = 8
 1079              		@ frame_needed = 1, uses_anonymous_args = 0
 1080              		@ link register save eliminated.
 1081 0000 80B4     		push	{r7}
 1082              		.cfi_def_cfa_offset 4
 1083              		.cfi_offset 7, -4
 1084 0002 83B0     		sub	sp, sp, #12
 1085              		.cfi_def_cfa_offset 16
 1086 0004 00AF     		add	r7, sp, #0
 1087              		.cfi_def_cfa_register 7
 1088 0006 0346     		mov	r3, r0
 1089 0008 FB71     		strb	r3, [r7, #7]
 761:Generated_Source\PSoC5/RTC.c ****     RTC_alarmCfgTimeDate.Min = minute;
 1090              		.loc 1 761 0
 1091 000a 104A     		ldr	r2, .L70
 1092 000c FB79     		ldrb	r3, [r7, #7]
 1093 000e 5370     		strb	r3, [r2, #1]
 762:Generated_Source\PSoC5/RTC.c **** 
 763:Generated_Source\PSoC5/RTC.c ****     /* Check minute alarm */
 764:Generated_Source\PSoC5/RTC.c ****     if(RTC_alarmCfgTimeDate.Min == RTC_currentTimeDate.Min)
 1094              		.loc 1 764 0
 1095 0010 0E4B     		ldr	r3, .L70
 1096 0012 5B78     		ldrb	r3, [r3, #1]
 1097 0014 DAB2     		uxtb	r2, r3
 1098 0016 0E4B     		ldr	r3, .L70+4
 1099 0018 5B78     		ldrb	r3, [r3, #1]
 1100 001a DBB2     		uxtb	r3, r3
 1101 001c 9A42     		cmp	r2, r3
 1102 001e 08D1     		bne	.L67
 765:Generated_Source\PSoC5/RTC.c ****     {
 766:Generated_Source\PSoC5/RTC.c ****         /* Set minute alarm */
 767:Generated_Source\PSoC5/RTC.c ****         RTC_alarmCurStatus |= RTC_ALARM_MIN_MASK;
 1103              		.loc 1 767 0
 1104 0020 0C4B     		ldr	r3, .L70+8
 1105 0022 1B78     		ldrb	r3, [r3]
 1106 0024 DBB2     		uxtb	r3, r3
 1107 0026 43F00203 		orr	r3, r3, #2
 1108 002a DAB2     		uxtb	r2, r3
 1109 002c 094B     		ldr	r3, .L70+8
ARM GAS  C:\Users\Admin\AppData\Local\Temp\cc4n2E7w.s 			page 34


 1110 002e 1A70     		strb	r2, [r3]
 768:Generated_Source\PSoC5/RTC.c ****     }
 769:Generated_Source\PSoC5/RTC.c ****     else /* no minute alarm */
 770:Generated_Source\PSoC5/RTC.c ****     {
 771:Generated_Source\PSoC5/RTC.c ****         /* Clear minute alarm */
 772:Generated_Source\PSoC5/RTC.c ****         RTC_alarmCurStatus &= (uint8)(~RTC_ALARM_MIN_MASK);
 773:Generated_Source\PSoC5/RTC.c ****     }
 774:Generated_Source\PSoC5/RTC.c **** }
 1111              		.loc 1 774 0
 1112 0030 07E0     		b	.L69
 1113              	.L67:
 772:Generated_Source\PSoC5/RTC.c ****     }
 1114              		.loc 1 772 0
 1115 0032 084B     		ldr	r3, .L70+8
 1116 0034 1B78     		ldrb	r3, [r3]
 1117 0036 DBB2     		uxtb	r3, r3
 1118 0038 23F00203 		bic	r3, r3, #2
 1119 003c DAB2     		uxtb	r2, r3
 1120 003e 054B     		ldr	r3, .L70+8
 1121 0040 1A70     		strb	r2, [r3]
 1122              	.L69:
 1123              		.loc 1 774 0
 1124 0042 00BF     		nop
 1125 0044 0C37     		adds	r7, r7, #12
 1126              		.cfi_def_cfa_offset 4
 1127 0046 BD46     		mov	sp, r7
 1128              		.cfi_def_cfa_register 13
 1129              		@ sp needed
 1130 0048 80BC     		pop	{r7}
 1131              		.cfi_restore 7
 1132              		.cfi_def_cfa_offset 0
 1133 004a 7047     		bx	lr
 1134              	.L71:
 1135              		.align	2
 1136              	.L70:
 1137 004c 00000000 		.word	RTC_alarmCfgTimeDate
 1138 0050 00000000 		.word	RTC_currentTimeDate
 1139 0054 00000000 		.word	RTC_alarmCurStatus
 1140              		.cfi_endproc
 1141              	.LFE16:
 1142              		.size	RTC_WriteAlarmMinute, .-RTC_WriteAlarmMinute
 1143              		.section	.text.RTC_WriteAlarmHour,"ax",%progbits
 1144              		.align	2
 1145              		.global	RTC_WriteAlarmHour
 1146              		.thumb
 1147              		.thumb_func
 1148              		.type	RTC_WriteAlarmHour, %function
 1149              	RTC_WriteAlarmHour:
 1150              	.LFB17:
 775:Generated_Source\PSoC5/RTC.c **** 
 776:Generated_Source\PSoC5/RTC.c **** 
 777:Generated_Source\PSoC5/RTC.c **** /*******************************************************************************
 778:Generated_Source\PSoC5/RTC.c **** * Function Name:   RTC_WriteAlarmHour
 779:Generated_Source\PSoC5/RTC.c **** ********************************************************************************
 780:Generated_Source\PSoC5/RTC.c **** *
 781:Generated_Source\PSoC5/RTC.c **** * Summary:
 782:Generated_Source\PSoC5/RTC.c **** *  Writes Alarm Hour software register value.
ARM GAS  C:\Users\Admin\AppData\Local\Temp\cc4n2E7w.s 			page 35


 783:Generated_Source\PSoC5/RTC.c **** *
 784:Generated_Source\PSoC5/RTC.c **** * Parameters:
 785:Generated_Source\PSoC5/RTC.c **** *  hour: Alarm hours value.
 786:Generated_Source\PSoC5/RTC.c **** *
 787:Generated_Source\PSoC5/RTC.c **** * Return:
 788:Generated_Source\PSoC5/RTC.c **** *  None.
 789:Generated_Source\PSoC5/RTC.c **** *
 790:Generated_Source\PSoC5/RTC.c **** * Global variables:
 791:Generated_Source\PSoC5/RTC.c **** *  RTC_currentTimeDate.Hour: this global variable is used for
 792:Generated_Source\PSoC5/RTC.c **** *  comparison while setting and clearing hours alarm status variable.
 793:Generated_Source\PSoC5/RTC.c **** *
 794:Generated_Source\PSoC5/RTC.c **** *  RTC_alarmCfgTimeDate.Hour: this global variable is modified to
 795:Generated_Source\PSoC5/RTC.c **** *  store of the new hours alarm.
 796:Generated_Source\PSoC5/RTC.c **** *
 797:Generated_Source\PSoC5/RTC.c **** *  RTC_alarmCurStatus: this global variable could be changed if
 798:Generated_Source\PSoC5/RTC.c **** *  hours alarm will be raised.
 799:Generated_Source\PSoC5/RTC.c **** *
 800:Generated_Source\PSoC5/RTC.c **** * Reentrant:
 801:Generated_Source\PSoC5/RTC.c **** *  No.
 802:Generated_Source\PSoC5/RTC.c **** *
 803:Generated_Source\PSoC5/RTC.c **** *******************************************************************************/
 804:Generated_Source\PSoC5/RTC.c **** void RTC_WriteAlarmHour(uint8 hour) 
 805:Generated_Source\PSoC5/RTC.c **** {
 1151              		.loc 1 805 0
 1152              		.cfi_startproc
 1153              		@ args = 0, pretend = 0, frame = 8
 1154              		@ frame_needed = 1, uses_anonymous_args = 0
 1155              		@ link register save eliminated.
 1156 0000 80B4     		push	{r7}
 1157              		.cfi_def_cfa_offset 4
 1158              		.cfi_offset 7, -4
 1159 0002 83B0     		sub	sp, sp, #12
 1160              		.cfi_def_cfa_offset 16
 1161 0004 00AF     		add	r7, sp, #0
 1162              		.cfi_def_cfa_register 7
 1163 0006 0346     		mov	r3, r0
 1164 0008 FB71     		strb	r3, [r7, #7]
 806:Generated_Source\PSoC5/RTC.c ****     RTC_alarmCfgTimeDate.Hour = hour;
 1165              		.loc 1 806 0
 1166 000a 104A     		ldr	r2, .L76
 1167 000c FB79     		ldrb	r3, [r7, #7]
 1168 000e 9370     		strb	r3, [r2, #2]
 807:Generated_Source\PSoC5/RTC.c **** 
 808:Generated_Source\PSoC5/RTC.c ****     /* Check hour alarm */
 809:Generated_Source\PSoC5/RTC.c ****     if(RTC_alarmCfgTimeDate.Hour == RTC_currentTimeDate.Hour)
 1169              		.loc 1 809 0
 1170 0010 0E4B     		ldr	r3, .L76
 1171 0012 9B78     		ldrb	r3, [r3, #2]
 1172 0014 DAB2     		uxtb	r2, r3
 1173 0016 0E4B     		ldr	r3, .L76+4
 1174 0018 9B78     		ldrb	r3, [r3, #2]
 1175 001a DBB2     		uxtb	r3, r3
 1176 001c 9A42     		cmp	r2, r3
 1177 001e 08D1     		bne	.L73
 810:Generated_Source\PSoC5/RTC.c ****     {
 811:Generated_Source\PSoC5/RTC.c ****         /* Set hour alarm */
 812:Generated_Source\PSoC5/RTC.c ****         RTC_alarmCurStatus |= RTC_ALARM_HOUR_MASK;
ARM GAS  C:\Users\Admin\AppData\Local\Temp\cc4n2E7w.s 			page 36


 1178              		.loc 1 812 0
 1179 0020 0C4B     		ldr	r3, .L76+8
 1180 0022 1B78     		ldrb	r3, [r3]
 1181 0024 DBB2     		uxtb	r3, r3
 1182 0026 43F00403 		orr	r3, r3, #4
 1183 002a DAB2     		uxtb	r2, r3
 1184 002c 094B     		ldr	r3, .L76+8
 1185 002e 1A70     		strb	r2, [r3]
 813:Generated_Source\PSoC5/RTC.c ****     }
 814:Generated_Source\PSoC5/RTC.c ****     else /* no hour alarm */
 815:Generated_Source\PSoC5/RTC.c ****     {
 816:Generated_Source\PSoC5/RTC.c ****         /* Clear hour alarm */
 817:Generated_Source\PSoC5/RTC.c ****         RTC_alarmCurStatus &= (uint8)(~RTC_ALARM_HOUR_MASK);
 818:Generated_Source\PSoC5/RTC.c ****     }
 819:Generated_Source\PSoC5/RTC.c **** }
 1186              		.loc 1 819 0
 1187 0030 07E0     		b	.L75
 1188              	.L73:
 817:Generated_Source\PSoC5/RTC.c ****     }
 1189              		.loc 1 817 0
 1190 0032 084B     		ldr	r3, .L76+8
 1191 0034 1B78     		ldrb	r3, [r3]
 1192 0036 DBB2     		uxtb	r3, r3
 1193 0038 23F00403 		bic	r3, r3, #4
 1194 003c DAB2     		uxtb	r2, r3
 1195 003e 054B     		ldr	r3, .L76+8
 1196 0040 1A70     		strb	r2, [r3]
 1197              	.L75:
 1198              		.loc 1 819 0
 1199 0042 00BF     		nop
 1200 0044 0C37     		adds	r7, r7, #12
 1201              		.cfi_def_cfa_offset 4
 1202 0046 BD46     		mov	sp, r7
 1203              		.cfi_def_cfa_register 13
 1204              		@ sp needed
 1205 0048 80BC     		pop	{r7}
 1206              		.cfi_restore 7
 1207              		.cfi_def_cfa_offset 0
 1208 004a 7047     		bx	lr
 1209              	.L77:
 1210              		.align	2
 1211              	.L76:
 1212 004c 00000000 		.word	RTC_alarmCfgTimeDate
 1213 0050 00000000 		.word	RTC_currentTimeDate
 1214 0054 00000000 		.word	RTC_alarmCurStatus
 1215              		.cfi_endproc
 1216              	.LFE17:
 1217              		.size	RTC_WriteAlarmHour, .-RTC_WriteAlarmHour
 1218              		.section	.text.RTC_WriteAlarmDayOfMonth,"ax",%progbits
 1219              		.align	2
 1220              		.global	RTC_WriteAlarmDayOfMonth
 1221              		.thumb
 1222              		.thumb_func
 1223              		.type	RTC_WriteAlarmDayOfMonth, %function
 1224              	RTC_WriteAlarmDayOfMonth:
 1225              	.LFB18:
 820:Generated_Source\PSoC5/RTC.c **** 
ARM GAS  C:\Users\Admin\AppData\Local\Temp\cc4n2E7w.s 			page 37


 821:Generated_Source\PSoC5/RTC.c **** 
 822:Generated_Source\PSoC5/RTC.c **** /*******************************************************************************
 823:Generated_Source\PSoC5/RTC.c **** * Function Name:   RTC_WriteAlarmDayOfMonth
 824:Generated_Source\PSoC5/RTC.c **** ********************************************************************************
 825:Generated_Source\PSoC5/RTC.c **** *
 826:Generated_Source\PSoC5/RTC.c **** * Summary:
 827:Generated_Source\PSoC5/RTC.c **** *  Writes Alarm DayOfMonth software register value.
 828:Generated_Source\PSoC5/RTC.c **** *
 829:Generated_Source\PSoC5/RTC.c **** * Parameters:
 830:Generated_Source\PSoC5/RTC.c **** *  dayOfMonth: Alarm day of month value.
 831:Generated_Source\PSoC5/RTC.c **** *
 832:Generated_Source\PSoC5/RTC.c **** * Return:
 833:Generated_Source\PSoC5/RTC.c **** *  None.
 834:Generated_Source\PSoC5/RTC.c **** *
 835:Generated_Source\PSoC5/RTC.c **** * Global variables:
 836:Generated_Source\PSoC5/RTC.c **** *  RTC_currentTimeDate.DayOfMonth: this global variable is used for
 837:Generated_Source\PSoC5/RTC.c **** *  comparison while setting and clearing day of month alarm status variable.
 838:Generated_Source\PSoC5/RTC.c **** *
 839:Generated_Source\PSoC5/RTC.c **** *  RTC_alarmCfgTimeDate.DayOfMonth: this global variable is
 840:Generated_Source\PSoC5/RTC.c **** *  modified to store of the new day of month alarm.
 841:Generated_Source\PSoC5/RTC.c **** *
 842:Generated_Source\PSoC5/RTC.c **** *  RTC_alarmCurStatus: this global variable could be changed if
 843:Generated_Source\PSoC5/RTC.c **** *  day of month alarm will be raised.
 844:Generated_Source\PSoC5/RTC.c **** *
 845:Generated_Source\PSoC5/RTC.c **** * Reentrant:
 846:Generated_Source\PSoC5/RTC.c **** *  No.
 847:Generated_Source\PSoC5/RTC.c **** *
 848:Generated_Source\PSoC5/RTC.c **** *******************************************************************************/
 849:Generated_Source\PSoC5/RTC.c **** void RTC_WriteAlarmDayOfMonth(uint8 dayOfMonth) 
 850:Generated_Source\PSoC5/RTC.c **** {
 1226              		.loc 1 850 0
 1227              		.cfi_startproc
 1228              		@ args = 0, pretend = 0, frame = 8
 1229              		@ frame_needed = 1, uses_anonymous_args = 0
 1230              		@ link register save eliminated.
 1231 0000 80B4     		push	{r7}
 1232              		.cfi_def_cfa_offset 4
 1233              		.cfi_offset 7, -4
 1234 0002 83B0     		sub	sp, sp, #12
 1235              		.cfi_def_cfa_offset 16
 1236 0004 00AF     		add	r7, sp, #0
 1237              		.cfi_def_cfa_register 7
 1238 0006 0346     		mov	r3, r0
 1239 0008 FB71     		strb	r3, [r7, #7]
 851:Generated_Source\PSoC5/RTC.c ****     RTC_alarmCfgTimeDate.DayOfMonth = dayOfMonth;
 1240              		.loc 1 851 0
 1241 000a 104A     		ldr	r2, .L82
 1242 000c FB79     		ldrb	r3, [r7, #7]
 1243 000e 1371     		strb	r3, [r2, #4]
 852:Generated_Source\PSoC5/RTC.c **** 
 853:Generated_Source\PSoC5/RTC.c ****     /* Check day of month alarm */
 854:Generated_Source\PSoC5/RTC.c ****     if(RTC_alarmCfgTimeDate.DayOfMonth == RTC_currentTimeDate.DayOfMonth)
 1244              		.loc 1 854 0
 1245 0010 0E4B     		ldr	r3, .L82
 1246 0012 1B79     		ldrb	r3, [r3, #4]
 1247 0014 DAB2     		uxtb	r2, r3
 1248 0016 0E4B     		ldr	r3, .L82+4
ARM GAS  C:\Users\Admin\AppData\Local\Temp\cc4n2E7w.s 			page 38


 1249 0018 1B79     		ldrb	r3, [r3, #4]
 1250 001a DBB2     		uxtb	r3, r3
 1251 001c 9A42     		cmp	r2, r3
 1252 001e 08D1     		bne	.L79
 855:Generated_Source\PSoC5/RTC.c ****     {
 856:Generated_Source\PSoC5/RTC.c ****         /* Set day of month alarm */
 857:Generated_Source\PSoC5/RTC.c ****         RTC_alarmCurStatus |= RTC_ALARM_DAYOFMONTH_MASK;
 1253              		.loc 1 857 0
 1254 0020 0C4B     		ldr	r3, .L82+8
 1255 0022 1B78     		ldrb	r3, [r3]
 1256 0024 DBB2     		uxtb	r3, r3
 1257 0026 43F01003 		orr	r3, r3, #16
 1258 002a DAB2     		uxtb	r2, r3
 1259 002c 094B     		ldr	r3, .L82+8
 1260 002e 1A70     		strb	r2, [r3]
 858:Generated_Source\PSoC5/RTC.c ****     }
 859:Generated_Source\PSoC5/RTC.c ****     else /* no day of month alarm */
 860:Generated_Source\PSoC5/RTC.c ****     {
 861:Generated_Source\PSoC5/RTC.c ****         /* Clear day of month alarm */
 862:Generated_Source\PSoC5/RTC.c ****         RTC_alarmCurStatus &= (uint8)(~RTC_ALARM_DAYOFMONTH_MASK);
 863:Generated_Source\PSoC5/RTC.c ****     }
 864:Generated_Source\PSoC5/RTC.c **** }
 1261              		.loc 1 864 0
 1262 0030 07E0     		b	.L81
 1263              	.L79:
 862:Generated_Source\PSoC5/RTC.c ****     }
 1264              		.loc 1 862 0
 1265 0032 084B     		ldr	r3, .L82+8
 1266 0034 1B78     		ldrb	r3, [r3]
 1267 0036 DBB2     		uxtb	r3, r3
 1268 0038 23F01003 		bic	r3, r3, #16
 1269 003c DAB2     		uxtb	r2, r3
 1270 003e 054B     		ldr	r3, .L82+8
 1271 0040 1A70     		strb	r2, [r3]
 1272              	.L81:
 1273              		.loc 1 864 0
 1274 0042 00BF     		nop
 1275 0044 0C37     		adds	r7, r7, #12
 1276              		.cfi_def_cfa_offset 4
 1277 0046 BD46     		mov	sp, r7
 1278              		.cfi_def_cfa_register 13
 1279              		@ sp needed
 1280 0048 80BC     		pop	{r7}
 1281              		.cfi_restore 7
 1282              		.cfi_def_cfa_offset 0
 1283 004a 7047     		bx	lr
 1284              	.L83:
 1285              		.align	2
 1286              	.L82:
 1287 004c 00000000 		.word	RTC_alarmCfgTimeDate
 1288 0050 00000000 		.word	RTC_currentTimeDate
 1289 0054 00000000 		.word	RTC_alarmCurStatus
 1290              		.cfi_endproc
 1291              	.LFE18:
 1292              		.size	RTC_WriteAlarmDayOfMonth, .-RTC_WriteAlarmDayOfMonth
 1293              		.section	.text.RTC_WriteAlarmMonth,"ax",%progbits
 1294              		.align	2
ARM GAS  C:\Users\Admin\AppData\Local\Temp\cc4n2E7w.s 			page 39


 1295              		.global	RTC_WriteAlarmMonth
 1296              		.thumb
 1297              		.thumb_func
 1298              		.type	RTC_WriteAlarmMonth, %function
 1299              	RTC_WriteAlarmMonth:
 1300              	.LFB19:
 865:Generated_Source\PSoC5/RTC.c **** 
 866:Generated_Source\PSoC5/RTC.c **** 
 867:Generated_Source\PSoC5/RTC.c **** /*******************************************************************************
 868:Generated_Source\PSoC5/RTC.c **** * Function Name:   RTC_WriteAlarmMonth
 869:Generated_Source\PSoC5/RTC.c **** ********************************************************************************
 870:Generated_Source\PSoC5/RTC.c **** *
 871:Generated_Source\PSoC5/RTC.c **** * Summary:
 872:Generated_Source\PSoC5/RTC.c **** *  Writes Alarm Month software register value.
 873:Generated_Source\PSoC5/RTC.c **** *
 874:Generated_Source\PSoC5/RTC.c **** * Parameters:
 875:Generated_Source\PSoC5/RTC.c **** *  month: Alarm month value.
 876:Generated_Source\PSoC5/RTC.c **** *
 877:Generated_Source\PSoC5/RTC.c **** * Return:
 878:Generated_Source\PSoC5/RTC.c **** *  None.
 879:Generated_Source\PSoC5/RTC.c **** *
 880:Generated_Source\PSoC5/RTC.c **** * Global variables:
 881:Generated_Source\PSoC5/RTC.c **** *  RTC_currentTimeDate.Month: this global variable is used for
 882:Generated_Source\PSoC5/RTC.c **** *  comparison while setting and clearing month alarm status variable.
 883:Generated_Source\PSoC5/RTC.c **** *
 884:Generated_Source\PSoC5/RTC.c **** *  RTC_alarmCfgTimeDate.Month: this global variable is modified
 885:Generated_Source\PSoC5/RTC.c **** *  to store of the new month alarm.
 886:Generated_Source\PSoC5/RTC.c **** *
 887:Generated_Source\PSoC5/RTC.c **** *  RTC_alarmCurStatus: this global variable could be changed if
 888:Generated_Source\PSoC5/RTC.c **** *  month alarm will be raised.
 889:Generated_Source\PSoC5/RTC.c **** *
 890:Generated_Source\PSoC5/RTC.c **** * Reentrant:
 891:Generated_Source\PSoC5/RTC.c **** *  No.
 892:Generated_Source\PSoC5/RTC.c **** *
 893:Generated_Source\PSoC5/RTC.c **** *******************************************************************************/
 894:Generated_Source\PSoC5/RTC.c **** void RTC_WriteAlarmMonth(uint8 month) 
 895:Generated_Source\PSoC5/RTC.c **** {
 1301              		.loc 1 895 0
 1302              		.cfi_startproc
 1303              		@ args = 0, pretend = 0, frame = 8
 1304              		@ frame_needed = 1, uses_anonymous_args = 0
 1305              		@ link register save eliminated.
 1306 0000 80B4     		push	{r7}
 1307              		.cfi_def_cfa_offset 4
 1308              		.cfi_offset 7, -4
 1309 0002 83B0     		sub	sp, sp, #12
 1310              		.cfi_def_cfa_offset 16
 1311 0004 00AF     		add	r7, sp, #0
 1312              		.cfi_def_cfa_register 7
 1313 0006 0346     		mov	r3, r0
 1314 0008 FB71     		strb	r3, [r7, #7]
 896:Generated_Source\PSoC5/RTC.c ****     RTC_alarmCfgTimeDate.Month = month;
 1315              		.loc 1 896 0
 1316 000a 104A     		ldr	r2, .L88
 1317 000c FB79     		ldrb	r3, [r7, #7]
 1318 000e 1372     		strb	r3, [r2, #8]
 897:Generated_Source\PSoC5/RTC.c **** 
ARM GAS  C:\Users\Admin\AppData\Local\Temp\cc4n2E7w.s 			page 40


 898:Generated_Source\PSoC5/RTC.c ****     /* Check month alarm */
 899:Generated_Source\PSoC5/RTC.c ****     if(RTC_alarmCfgTimeDate.Month == RTC_currentTimeDate.Month)
 1319              		.loc 1 899 0
 1320 0010 0E4B     		ldr	r3, .L88
 1321 0012 1B7A     		ldrb	r3, [r3, #8]
 1322 0014 DAB2     		uxtb	r2, r3
 1323 0016 0E4B     		ldr	r3, .L88+4
 1324 0018 1B7A     		ldrb	r3, [r3, #8]
 1325 001a DBB2     		uxtb	r3, r3
 1326 001c 9A42     		cmp	r2, r3
 1327 001e 08D1     		bne	.L85
 900:Generated_Source\PSoC5/RTC.c ****     {
 901:Generated_Source\PSoC5/RTC.c ****         /* Set month alarm */
 902:Generated_Source\PSoC5/RTC.c ****         RTC_alarmCurStatus |= RTC_ALARM_MONTH_MASK;
 1328              		.loc 1 902 0
 1329 0020 0C4B     		ldr	r3, .L88+8
 1330 0022 1B78     		ldrb	r3, [r3]
 1331 0024 DBB2     		uxtb	r3, r3
 1332 0026 43F04003 		orr	r3, r3, #64
 1333 002a DAB2     		uxtb	r2, r3
 1334 002c 094B     		ldr	r3, .L88+8
 1335 002e 1A70     		strb	r2, [r3]
 903:Generated_Source\PSoC5/RTC.c ****     }
 904:Generated_Source\PSoC5/RTC.c ****     else /* no month alarm */
 905:Generated_Source\PSoC5/RTC.c ****     {
 906:Generated_Source\PSoC5/RTC.c ****         /* Clear month alarm */
 907:Generated_Source\PSoC5/RTC.c ****         RTC_alarmCurStatus &= (uint8)(~RTC_ALARM_MONTH_MASK);
 908:Generated_Source\PSoC5/RTC.c ****     }
 909:Generated_Source\PSoC5/RTC.c **** }
 1336              		.loc 1 909 0
 1337 0030 07E0     		b	.L87
 1338              	.L85:
 907:Generated_Source\PSoC5/RTC.c ****     }
 1339              		.loc 1 907 0
 1340 0032 084B     		ldr	r3, .L88+8
 1341 0034 1B78     		ldrb	r3, [r3]
 1342 0036 DBB2     		uxtb	r3, r3
 1343 0038 23F04003 		bic	r3, r3, #64
 1344 003c DAB2     		uxtb	r2, r3
 1345 003e 054B     		ldr	r3, .L88+8
 1346 0040 1A70     		strb	r2, [r3]
 1347              	.L87:
 1348              		.loc 1 909 0
 1349 0042 00BF     		nop
 1350 0044 0C37     		adds	r7, r7, #12
 1351              		.cfi_def_cfa_offset 4
 1352 0046 BD46     		mov	sp, r7
 1353              		.cfi_def_cfa_register 13
 1354              		@ sp needed
 1355 0048 80BC     		pop	{r7}
 1356              		.cfi_restore 7
 1357              		.cfi_def_cfa_offset 0
 1358 004a 7047     		bx	lr
 1359              	.L89:
 1360              		.align	2
 1361              	.L88:
 1362 004c 00000000 		.word	RTC_alarmCfgTimeDate
ARM GAS  C:\Users\Admin\AppData\Local\Temp\cc4n2E7w.s 			page 41


 1363 0050 00000000 		.word	RTC_currentTimeDate
 1364 0054 00000000 		.word	RTC_alarmCurStatus
 1365              		.cfi_endproc
 1366              	.LFE19:
 1367              		.size	RTC_WriteAlarmMonth, .-RTC_WriteAlarmMonth
 1368              		.section	.text.RTC_WriteAlarmYear,"ax",%progbits
 1369              		.align	2
 1370              		.global	RTC_WriteAlarmYear
 1371              		.thumb
 1372              		.thumb_func
 1373              		.type	RTC_WriteAlarmYear, %function
 1374              	RTC_WriteAlarmYear:
 1375              	.LFB20:
 910:Generated_Source\PSoC5/RTC.c **** 
 911:Generated_Source\PSoC5/RTC.c **** 
 912:Generated_Source\PSoC5/RTC.c **** /*******************************************************************************
 913:Generated_Source\PSoC5/RTC.c **** * Function Name:   RTC_WriteAlarmYear
 914:Generated_Source\PSoC5/RTC.c **** ********************************************************************************
 915:Generated_Source\PSoC5/RTC.c **** *
 916:Generated_Source\PSoC5/RTC.c **** * Summary:
 917:Generated_Source\PSoC5/RTC.c **** *  Writes Alarm Year software register value.
 918:Generated_Source\PSoC5/RTC.c **** *
 919:Generated_Source\PSoC5/RTC.c **** * Parameters:
 920:Generated_Source\PSoC5/RTC.c **** *  year: Alarm year value.
 921:Generated_Source\PSoC5/RTC.c **** *
 922:Generated_Source\PSoC5/RTC.c **** * Return:
 923:Generated_Source\PSoC5/RTC.c **** *  None.
 924:Generated_Source\PSoC5/RTC.c **** *
 925:Generated_Source\PSoC5/RTC.c **** * Global variables:
 926:Generated_Source\PSoC5/RTC.c **** *  RTC_currentTimeDate.Year: this global variable is used for
 927:Generated_Source\PSoC5/RTC.c **** *  comparison while setting and clearing year alarm status variable.
 928:Generated_Source\PSoC5/RTC.c **** *
 929:Generated_Source\PSoC5/RTC.c **** *  RTC_alarmCfgTimeDate.Year: this global variable is modified
 930:Generated_Source\PSoC5/RTC.c **** *  to store of the new year alarm.
 931:Generated_Source\PSoC5/RTC.c **** *
 932:Generated_Source\PSoC5/RTC.c **** *  RTC_alarmCurStatus: this global variable could be changed if
 933:Generated_Source\PSoC5/RTC.c **** *  year alarm will be raised.
 934:Generated_Source\PSoC5/RTC.c **** *
 935:Generated_Source\PSoC5/RTC.c **** * Reentrant:
 936:Generated_Source\PSoC5/RTC.c **** *  No.
 937:Generated_Source\PSoC5/RTC.c **** *
 938:Generated_Source\PSoC5/RTC.c **** *******************************************************************************/
 939:Generated_Source\PSoC5/RTC.c **** void RTC_WriteAlarmYear(uint16 year) 
 940:Generated_Source\PSoC5/RTC.c **** {
 1376              		.loc 1 940 0
 1377              		.cfi_startproc
 1378              		@ args = 0, pretend = 0, frame = 8
 1379              		@ frame_needed = 1, uses_anonymous_args = 0
 1380              		@ link register save eliminated.
 1381 0000 80B4     		push	{r7}
 1382              		.cfi_def_cfa_offset 4
 1383              		.cfi_offset 7, -4
 1384 0002 83B0     		sub	sp, sp, #12
 1385              		.cfi_def_cfa_offset 16
 1386 0004 00AF     		add	r7, sp, #0
 1387              		.cfi_def_cfa_register 7
 1388 0006 0346     		mov	r3, r0
ARM GAS  C:\Users\Admin\AppData\Local\Temp\cc4n2E7w.s 			page 42


 1389 0008 FB80     		strh	r3, [r7, #6]	@ movhi
 941:Generated_Source\PSoC5/RTC.c ****    RTC_alarmCfgTimeDate.Year = year;
 1390              		.loc 1 941 0
 1391 000a 104A     		ldr	r2, .L94
 1392 000c FB88     		ldrh	r3, [r7, #6]	@ movhi
 1393 000e 5381     		strh	r3, [r2, #10]	@ movhi
 942:Generated_Source\PSoC5/RTC.c **** 
 943:Generated_Source\PSoC5/RTC.c ****     /* Check year alarm */
 944:Generated_Source\PSoC5/RTC.c ****     if(RTC_alarmCfgTimeDate.Year == RTC_currentTimeDate.Year)
 1394              		.loc 1 944 0
 1395 0010 0E4B     		ldr	r3, .L94
 1396 0012 5B89     		ldrh	r3, [r3, #10]	@ movhi
 1397 0014 9AB2     		uxth	r2, r3
 1398 0016 0E4B     		ldr	r3, .L94+4
 1399 0018 5B89     		ldrh	r3, [r3, #10]	@ movhi
 1400 001a 9BB2     		uxth	r3, r3
 1401 001c 9A42     		cmp	r2, r3
 1402 001e 08D1     		bne	.L91
 945:Generated_Source\PSoC5/RTC.c ****     {
 946:Generated_Source\PSoC5/RTC.c ****         /* Set year alarm */
 947:Generated_Source\PSoC5/RTC.c ****         RTC_alarmCurStatus |= RTC_ALARM_YEAR_MASK;
 1403              		.loc 1 947 0
 1404 0020 0C4B     		ldr	r3, .L94+8
 1405 0022 1B78     		ldrb	r3, [r3]
 1406 0024 DBB2     		uxtb	r3, r3
 1407 0026 63F07F03 		orn	r3, r3, #127
 1408 002a DAB2     		uxtb	r2, r3
 1409 002c 094B     		ldr	r3, .L94+8
 1410 002e 1A70     		strb	r2, [r3]
 948:Generated_Source\PSoC5/RTC.c ****     }
 949:Generated_Source\PSoC5/RTC.c ****     else /* no year alarm */
 950:Generated_Source\PSoC5/RTC.c ****     {
 951:Generated_Source\PSoC5/RTC.c ****         /* Set year alarm */
 952:Generated_Source\PSoC5/RTC.c ****         RTC_alarmCurStatus &= (uint8)(~RTC_ALARM_YEAR_MASK);
 953:Generated_Source\PSoC5/RTC.c ****     }
 954:Generated_Source\PSoC5/RTC.c **** }
 1411              		.loc 1 954 0
 1412 0030 07E0     		b	.L93
 1413              	.L91:
 952:Generated_Source\PSoC5/RTC.c ****     }
 1414              		.loc 1 952 0
 1415 0032 084B     		ldr	r3, .L94+8
 1416 0034 1B78     		ldrb	r3, [r3]
 1417 0036 DBB2     		uxtb	r3, r3
 1418 0038 03F07F03 		and	r3, r3, #127
 1419 003c DAB2     		uxtb	r2, r3
 1420 003e 054B     		ldr	r3, .L94+8
 1421 0040 1A70     		strb	r2, [r3]
 1422              	.L93:
 1423              		.loc 1 954 0
 1424 0042 00BF     		nop
 1425 0044 0C37     		adds	r7, r7, #12
 1426              		.cfi_def_cfa_offset 4
 1427 0046 BD46     		mov	sp, r7
 1428              		.cfi_def_cfa_register 13
 1429              		@ sp needed
 1430 0048 80BC     		pop	{r7}
ARM GAS  C:\Users\Admin\AppData\Local\Temp\cc4n2E7w.s 			page 43


 1431              		.cfi_restore 7
 1432              		.cfi_def_cfa_offset 0
 1433 004a 7047     		bx	lr
 1434              	.L95:
 1435              		.align	2
 1436              	.L94:
 1437 004c 00000000 		.word	RTC_alarmCfgTimeDate
 1438 0050 00000000 		.word	RTC_currentTimeDate
 1439 0054 00000000 		.word	RTC_alarmCurStatus
 1440              		.cfi_endproc
 1441              	.LFE20:
 1442              		.size	RTC_WriteAlarmYear, .-RTC_WriteAlarmYear
 1443              		.section	.text.RTC_WriteAlarmDayOfWeek,"ax",%progbits
 1444              		.align	2
 1445              		.global	RTC_WriteAlarmDayOfWeek
 1446              		.thumb
 1447              		.thumb_func
 1448              		.type	RTC_WriteAlarmDayOfWeek, %function
 1449              	RTC_WriteAlarmDayOfWeek:
 1450              	.LFB21:
 955:Generated_Source\PSoC5/RTC.c **** 
 956:Generated_Source\PSoC5/RTC.c **** 
 957:Generated_Source\PSoC5/RTC.c **** /*******************************************************************************
 958:Generated_Source\PSoC5/RTC.c **** * Function Name:   RTC_WriteAlarmDayOfWeek
 959:Generated_Source\PSoC5/RTC.c **** ********************************************************************************
 960:Generated_Source\PSoC5/RTC.c **** *
 961:Generated_Source\PSoC5/RTC.c **** * Summary:
 962:Generated_Source\PSoC5/RTC.c **** *   Writes Alarm DayOfWeek software register value.
 963:Generated_Source\PSoC5/RTC.c **** *   Days values {Sun = 1, Mon = 2, Tue = 3, Wen = 4, Thu = 5, Fri = 6, Sat = 7}
 964:Generated_Source\PSoC5/RTC.c **** *
 965:Generated_Source\PSoC5/RTC.c **** * Parameters:
 966:Generated_Source\PSoC5/RTC.c **** *  dayOfWeek: Alarm day of week value.
 967:Generated_Source\PSoC5/RTC.c **** *
 968:Generated_Source\PSoC5/RTC.c **** * Return:
 969:Generated_Source\PSoC5/RTC.c **** *  None.
 970:Generated_Source\PSoC5/RTC.c **** *
 971:Generated_Source\PSoC5/RTC.c **** * Global variables:
 972:Generated_Source\PSoC5/RTC.c **** *  RTC_currentTimeDate.DayOfWeek: this global variable is used for
 973:Generated_Source\PSoC5/RTC.c **** *  comparison while setting and clearing day of week alarm status variable.
 974:Generated_Source\PSoC5/RTC.c **** *
 975:Generated_Source\PSoC5/RTC.c **** *  RTC_alarmCfgTimeDate.DayOfWeek: this global variable is modified
 976:Generated_Source\PSoC5/RTC.c **** *  to store of the new day of week alarm.
 977:Generated_Source\PSoC5/RTC.c **** *
 978:Generated_Source\PSoC5/RTC.c **** *  RTC_alarmCurStatus: this global variable could be changed if
 979:Generated_Source\PSoC5/RTC.c **** *  day of week alarm will be raised.
 980:Generated_Source\PSoC5/RTC.c **** *
 981:Generated_Source\PSoC5/RTC.c **** * Reentrant:
 982:Generated_Source\PSoC5/RTC.c **** *  No.
 983:Generated_Source\PSoC5/RTC.c **** *
 984:Generated_Source\PSoC5/RTC.c **** *******************************************************************************/
 985:Generated_Source\PSoC5/RTC.c **** void RTC_WriteAlarmDayOfWeek(uint8 dayOfWeek) 
 986:Generated_Source\PSoC5/RTC.c **** {
 1451              		.loc 1 986 0
 1452              		.cfi_startproc
 1453              		@ args = 0, pretend = 0, frame = 8
 1454              		@ frame_needed = 1, uses_anonymous_args = 0
 1455              		@ link register save eliminated.
ARM GAS  C:\Users\Admin\AppData\Local\Temp\cc4n2E7w.s 			page 44


 1456 0000 80B4     		push	{r7}
 1457              		.cfi_def_cfa_offset 4
 1458              		.cfi_offset 7, -4
 1459 0002 83B0     		sub	sp, sp, #12
 1460              		.cfi_def_cfa_offset 16
 1461 0004 00AF     		add	r7, sp, #0
 1462              		.cfi_def_cfa_register 7
 1463 0006 0346     		mov	r3, r0
 1464 0008 FB71     		strb	r3, [r7, #7]
 987:Generated_Source\PSoC5/RTC.c ****     RTC_alarmCfgTimeDate.DayOfWeek = dayOfWeek;
 1465              		.loc 1 987 0
 1466 000a 104A     		ldr	r2, .L100
 1467 000c FB79     		ldrb	r3, [r7, #7]
 1468 000e D370     		strb	r3, [r2, #3]
 988:Generated_Source\PSoC5/RTC.c **** 
 989:Generated_Source\PSoC5/RTC.c ****     /* Check day of week alarm */
 990:Generated_Source\PSoC5/RTC.c ****     if(RTC_alarmCfgTimeDate.DayOfWeek == RTC_currentTimeDate.DayOfWeek)
 1469              		.loc 1 990 0
 1470 0010 0E4B     		ldr	r3, .L100
 1471 0012 DB78     		ldrb	r3, [r3, #3]
 1472 0014 DAB2     		uxtb	r2, r3
 1473 0016 0E4B     		ldr	r3, .L100+4
 1474 0018 DB78     		ldrb	r3, [r3, #3]
 1475 001a DBB2     		uxtb	r3, r3
 1476 001c 9A42     		cmp	r2, r3
 1477 001e 08D1     		bne	.L97
 991:Generated_Source\PSoC5/RTC.c ****     {
 992:Generated_Source\PSoC5/RTC.c ****         /* Set day of week alarm */
 993:Generated_Source\PSoC5/RTC.c ****         RTC_alarmCurStatus |= RTC_ALARM_DAYOFWEEK_MASK;
 1478              		.loc 1 993 0
 1479 0020 0C4B     		ldr	r3, .L100+8
 1480 0022 1B78     		ldrb	r3, [r3]
 1481 0024 DBB2     		uxtb	r3, r3
 1482 0026 43F00803 		orr	r3, r3, #8
 1483 002a DAB2     		uxtb	r2, r3
 1484 002c 094B     		ldr	r3, .L100+8
 1485 002e 1A70     		strb	r2, [r3]
 994:Generated_Source\PSoC5/RTC.c ****     }
 995:Generated_Source\PSoC5/RTC.c ****     else /* no day of week alarm */
 996:Generated_Source\PSoC5/RTC.c ****     {
 997:Generated_Source\PSoC5/RTC.c ****         /* Set day of week alarm */
 998:Generated_Source\PSoC5/RTC.c ****         RTC_alarmCurStatus &= (uint8)(~RTC_ALARM_DAYOFWEEK_MASK);
 999:Generated_Source\PSoC5/RTC.c ****     }
1000:Generated_Source\PSoC5/RTC.c **** }
 1486              		.loc 1 1000 0
 1487 0030 07E0     		b	.L99
 1488              	.L97:
 998:Generated_Source\PSoC5/RTC.c ****     }
 1489              		.loc 1 998 0
 1490 0032 084B     		ldr	r3, .L100+8
 1491 0034 1B78     		ldrb	r3, [r3]
 1492 0036 DBB2     		uxtb	r3, r3
 1493 0038 23F00803 		bic	r3, r3, #8
 1494 003c DAB2     		uxtb	r2, r3
 1495 003e 054B     		ldr	r3, .L100+8
 1496 0040 1A70     		strb	r2, [r3]
 1497              	.L99:
ARM GAS  C:\Users\Admin\AppData\Local\Temp\cc4n2E7w.s 			page 45


 1498              		.loc 1 1000 0
 1499 0042 00BF     		nop
 1500 0044 0C37     		adds	r7, r7, #12
 1501              		.cfi_def_cfa_offset 4
 1502 0046 BD46     		mov	sp, r7
 1503              		.cfi_def_cfa_register 13
 1504              		@ sp needed
 1505 0048 80BC     		pop	{r7}
 1506              		.cfi_restore 7
 1507              		.cfi_def_cfa_offset 0
 1508 004a 7047     		bx	lr
 1509              	.L101:
 1510              		.align	2
 1511              	.L100:
 1512 004c 00000000 		.word	RTC_alarmCfgTimeDate
 1513 0050 00000000 		.word	RTC_currentTimeDate
 1514 0054 00000000 		.word	RTC_alarmCurStatus
 1515              		.cfi_endproc
 1516              	.LFE21:
 1517              		.size	RTC_WriteAlarmDayOfWeek, .-RTC_WriteAlarmDayOfWeek
 1518              		.section	.text.RTC_WriteAlarmDayOfYear,"ax",%progbits
 1519              		.align	2
 1520              		.global	RTC_WriteAlarmDayOfYear
 1521              		.thumb
 1522              		.thumb_func
 1523              		.type	RTC_WriteAlarmDayOfYear, %function
 1524              	RTC_WriteAlarmDayOfYear:
 1525              	.LFB22:
1001:Generated_Source\PSoC5/RTC.c **** 
1002:Generated_Source\PSoC5/RTC.c **** 
1003:Generated_Source\PSoC5/RTC.c **** /*******************************************************************************
1004:Generated_Source\PSoC5/RTC.c **** * Function Name:   RTC_WriteAlarmDayOfYear
1005:Generated_Source\PSoC5/RTC.c **** ********************************************************************************
1006:Generated_Source\PSoC5/RTC.c **** *
1007:Generated_Source\PSoC5/RTC.c **** * Summary:
1008:Generated_Source\PSoC5/RTC.c **** *  Writes Alarm DayOfYear software register value.
1009:Generated_Source\PSoC5/RTC.c **** *
1010:Generated_Source\PSoC5/RTC.c **** * Parameters:
1011:Generated_Source\PSoC5/RTC.c **** *  dayOfYear: Alarm day of year value.
1012:Generated_Source\PSoC5/RTC.c **** *
1013:Generated_Source\PSoC5/RTC.c **** * Return:
1014:Generated_Source\PSoC5/RTC.c **** *  None.
1015:Generated_Source\PSoC5/RTC.c **** *
1016:Generated_Source\PSoC5/RTC.c **** * Global variables:
1017:Generated_Source\PSoC5/RTC.c **** *  RTC_currentTimeDate.DayOfYear: this global variable is used for
1018:Generated_Source\PSoC5/RTC.c **** *  comparison while setting and clearing day of year alarm status variable.
1019:Generated_Source\PSoC5/RTC.c **** *
1020:Generated_Source\PSoC5/RTC.c **** *  RTC_alarmCfgTimeDate.DayOfYear: this global variable is modified
1021:Generated_Source\PSoC5/RTC.c **** *  to store of the new day of year alarm.
1022:Generated_Source\PSoC5/RTC.c **** *
1023:Generated_Source\PSoC5/RTC.c **** *  RTC_alarmCurStatus: this global variable could be changed if
1024:Generated_Source\PSoC5/RTC.c **** *  day of year alarm will be raised.
1025:Generated_Source\PSoC5/RTC.c **** *
1026:Generated_Source\PSoC5/RTC.c **** * Reentrant:
1027:Generated_Source\PSoC5/RTC.c **** *  No.
1028:Generated_Source\PSoC5/RTC.c **** *
1029:Generated_Source\PSoC5/RTC.c **** *******************************************************************************/
ARM GAS  C:\Users\Admin\AppData\Local\Temp\cc4n2E7w.s 			page 46


1030:Generated_Source\PSoC5/RTC.c **** void RTC_WriteAlarmDayOfYear(uint16 dayOfYear) 
1031:Generated_Source\PSoC5/RTC.c **** {
 1526              		.loc 1 1031 0
 1527              		.cfi_startproc
 1528              		@ args = 0, pretend = 0, frame = 8
 1529              		@ frame_needed = 1, uses_anonymous_args = 0
 1530              		@ link register save eliminated.
 1531 0000 80B4     		push	{r7}
 1532              		.cfi_def_cfa_offset 4
 1533              		.cfi_offset 7, -4
 1534 0002 83B0     		sub	sp, sp, #12
 1535              		.cfi_def_cfa_offset 16
 1536 0004 00AF     		add	r7, sp, #0
 1537              		.cfi_def_cfa_register 7
 1538 0006 0346     		mov	r3, r0
 1539 0008 FB80     		strh	r3, [r7, #6]	@ movhi
1032:Generated_Source\PSoC5/RTC.c ****   RTC_alarmCfgTimeDate.DayOfYear = dayOfYear;
 1540              		.loc 1 1032 0
 1541 000a 104A     		ldr	r2, .L106
 1542 000c FB88     		ldrh	r3, [r7, #6]	@ movhi
 1543 000e D380     		strh	r3, [r2, #6]	@ movhi
1033:Generated_Source\PSoC5/RTC.c **** 
1034:Generated_Source\PSoC5/RTC.c ****     /* Check day of year alarm */
1035:Generated_Source\PSoC5/RTC.c ****     if(RTC_alarmCfgTimeDate.DayOfYear == RTC_currentTimeDate.DayOfYear)
 1544              		.loc 1 1035 0
 1545 0010 0E4B     		ldr	r3, .L106
 1546 0012 DB88     		ldrh	r3, [r3, #6]	@ movhi
 1547 0014 9AB2     		uxth	r2, r3
 1548 0016 0E4B     		ldr	r3, .L106+4
 1549 0018 DB88     		ldrh	r3, [r3, #6]	@ movhi
 1550 001a 9BB2     		uxth	r3, r3
 1551 001c 9A42     		cmp	r2, r3
 1552 001e 08D1     		bne	.L103
1036:Generated_Source\PSoC5/RTC.c ****     {
1037:Generated_Source\PSoC5/RTC.c ****         /* Set day of year alarm */
1038:Generated_Source\PSoC5/RTC.c ****         RTC_alarmCurStatus |= RTC_ALARM_DAYOFYEAR_MASK;
 1553              		.loc 1 1038 0
 1554 0020 0C4B     		ldr	r3, .L106+8
 1555 0022 1B78     		ldrb	r3, [r3]
 1556 0024 DBB2     		uxtb	r3, r3
 1557 0026 43F02003 		orr	r3, r3, #32
 1558 002a DAB2     		uxtb	r2, r3
 1559 002c 094B     		ldr	r3, .L106+8
 1560 002e 1A70     		strb	r2, [r3]
1039:Generated_Source\PSoC5/RTC.c ****     }
1040:Generated_Source\PSoC5/RTC.c ****     else /* no day of year alarm */
1041:Generated_Source\PSoC5/RTC.c ****     {
1042:Generated_Source\PSoC5/RTC.c ****         /* Set day of year alarm */
1043:Generated_Source\PSoC5/RTC.c ****         RTC_alarmCurStatus &= (uint8)(~RTC_ALARM_DAYOFYEAR_MASK);
1044:Generated_Source\PSoC5/RTC.c ****     }
1045:Generated_Source\PSoC5/RTC.c **** }
 1561              		.loc 1 1045 0
 1562 0030 07E0     		b	.L105
 1563              	.L103:
1043:Generated_Source\PSoC5/RTC.c ****     }
 1564              		.loc 1 1043 0
 1565 0032 084B     		ldr	r3, .L106+8
ARM GAS  C:\Users\Admin\AppData\Local\Temp\cc4n2E7w.s 			page 47


 1566 0034 1B78     		ldrb	r3, [r3]
 1567 0036 DBB2     		uxtb	r3, r3
 1568 0038 23F02003 		bic	r3, r3, #32
 1569 003c DAB2     		uxtb	r2, r3
 1570 003e 054B     		ldr	r3, .L106+8
 1571 0040 1A70     		strb	r2, [r3]
 1572              	.L105:
 1573              		.loc 1 1045 0
 1574 0042 00BF     		nop
 1575 0044 0C37     		adds	r7, r7, #12
 1576              		.cfi_def_cfa_offset 4
 1577 0046 BD46     		mov	sp, r7
 1578              		.cfi_def_cfa_register 13
 1579              		@ sp needed
 1580 0048 80BC     		pop	{r7}
 1581              		.cfi_restore 7
 1582              		.cfi_def_cfa_offset 0
 1583 004a 7047     		bx	lr
 1584              	.L107:
 1585              		.align	2
 1586              	.L106:
 1587 004c 00000000 		.word	RTC_alarmCfgTimeDate
 1588 0050 00000000 		.word	RTC_currentTimeDate
 1589 0054 00000000 		.word	RTC_alarmCurStatus
 1590              		.cfi_endproc
 1591              	.LFE22:
 1592              		.size	RTC_WriteAlarmDayOfYear, .-RTC_WriteAlarmDayOfYear
 1593              		.section	.text.RTC_ReadSecond,"ax",%progbits
 1594              		.align	2
 1595              		.global	RTC_ReadSecond
 1596              		.thumb
 1597              		.thumb_func
 1598              		.type	RTC_ReadSecond, %function
 1599              	RTC_ReadSecond:
 1600              	.LFB23:
1046:Generated_Source\PSoC5/RTC.c **** 
1047:Generated_Source\PSoC5/RTC.c **** 
1048:Generated_Source\PSoC5/RTC.c **** /*******************************************************************************
1049:Generated_Source\PSoC5/RTC.c **** * Function Name:   RTC_ReadSecond
1050:Generated_Source\PSoC5/RTC.c **** ********************************************************************************
1051:Generated_Source\PSoC5/RTC.c **** *
1052:Generated_Source\PSoC5/RTC.c **** * Summary:
1053:Generated_Source\PSoC5/RTC.c **** *  Reads Sec software register value.
1054:Generated_Source\PSoC5/RTC.c **** *
1055:Generated_Source\PSoC5/RTC.c **** * Parameters:
1056:Generated_Source\PSoC5/RTC.c **** *  None.
1057:Generated_Source\PSoC5/RTC.c **** *
1058:Generated_Source\PSoC5/RTC.c **** * Return:
1059:Generated_Source\PSoC5/RTC.c **** *  Current seconds value.
1060:Generated_Source\PSoC5/RTC.c **** *
1061:Generated_Source\PSoC5/RTC.c **** * Global variables:
1062:Generated_Source\PSoC5/RTC.c **** *  RTC_currentTimeDate.Sec: the current second's value is used.
1063:Generated_Source\PSoC5/RTC.c **** *
1064:Generated_Source\PSoC5/RTC.c **** *******************************************************************************/
1065:Generated_Source\PSoC5/RTC.c **** uint8 RTC_ReadSecond(void) 
1066:Generated_Source\PSoC5/RTC.c **** {
 1601              		.loc 1 1066 0
ARM GAS  C:\Users\Admin\AppData\Local\Temp\cc4n2E7w.s 			page 48


 1602              		.cfi_startproc
 1603              		@ args = 0, pretend = 0, frame = 0
 1604              		@ frame_needed = 1, uses_anonymous_args = 0
 1605              		@ link register save eliminated.
 1606 0000 80B4     		push	{r7}
 1607              		.cfi_def_cfa_offset 4
 1608              		.cfi_offset 7, -4
 1609 0002 00AF     		add	r7, sp, #0
 1610              		.cfi_def_cfa_register 7
1067:Generated_Source\PSoC5/RTC.c ****     /* Return current second */
1068:Generated_Source\PSoC5/RTC.c ****     return (RTC_currentTimeDate.Sec);
 1611              		.loc 1 1068 0
 1612 0004 034B     		ldr	r3, .L110
 1613 0006 1B78     		ldrb	r3, [r3]
 1614 0008 DBB2     		uxtb	r3, r3
1069:Generated_Source\PSoC5/RTC.c **** }
 1615              		.loc 1 1069 0
 1616 000a 1846     		mov	r0, r3
 1617 000c BD46     		mov	sp, r7
 1618              		.cfi_def_cfa_register 13
 1619              		@ sp needed
 1620 000e 80BC     		pop	{r7}
 1621              		.cfi_restore 7
 1622              		.cfi_def_cfa_offset 0
 1623 0010 7047     		bx	lr
 1624              	.L111:
 1625 0012 00BF     		.align	2
 1626              	.L110:
 1627 0014 00000000 		.word	RTC_currentTimeDate
 1628              		.cfi_endproc
 1629              	.LFE23:
 1630              		.size	RTC_ReadSecond, .-RTC_ReadSecond
 1631              		.section	.text.RTC_ReadMinute,"ax",%progbits
 1632              		.align	2
 1633              		.global	RTC_ReadMinute
 1634              		.thumb
 1635              		.thumb_func
 1636              		.type	RTC_ReadMinute, %function
 1637              	RTC_ReadMinute:
 1638              	.LFB24:
1070:Generated_Source\PSoC5/RTC.c **** 
1071:Generated_Source\PSoC5/RTC.c **** 
1072:Generated_Source\PSoC5/RTC.c **** /*******************************************************************************
1073:Generated_Source\PSoC5/RTC.c **** * Function Name:   RTC_ReadMinute
1074:Generated_Source\PSoC5/RTC.c **** ********************************************************************************
1075:Generated_Source\PSoC5/RTC.c **** *
1076:Generated_Source\PSoC5/RTC.c **** * Summary:
1077:Generated_Source\PSoC5/RTC.c **** *  Reads Min software register value.
1078:Generated_Source\PSoC5/RTC.c **** *
1079:Generated_Source\PSoC5/RTC.c **** * Parameters:
1080:Generated_Source\PSoC5/RTC.c **** *  None.
1081:Generated_Source\PSoC5/RTC.c **** *
1082:Generated_Source\PSoC5/RTC.c **** * Return:
1083:Generated_Source\PSoC5/RTC.c **** *  Current field's value is returned.
1084:Generated_Source\PSoC5/RTC.c **** *
1085:Generated_Source\PSoC5/RTC.c **** * Global variables:
1086:Generated_Source\PSoC5/RTC.c **** *  RTC_currentTimeDate.Min: the current field's value is used.
ARM GAS  C:\Users\Admin\AppData\Local\Temp\cc4n2E7w.s 			page 49


1087:Generated_Source\PSoC5/RTC.c **** *
1088:Generated_Source\PSoC5/RTC.c **** *******************************************************************************/
1089:Generated_Source\PSoC5/RTC.c **** uint8 RTC_ReadMinute(void) 
1090:Generated_Source\PSoC5/RTC.c **** {
 1639              		.loc 1 1090 0
 1640              		.cfi_startproc
 1641              		@ args = 0, pretend = 0, frame = 0
 1642              		@ frame_needed = 1, uses_anonymous_args = 0
 1643              		@ link register save eliminated.
 1644 0000 80B4     		push	{r7}
 1645              		.cfi_def_cfa_offset 4
 1646              		.cfi_offset 7, -4
 1647 0002 00AF     		add	r7, sp, #0
 1648              		.cfi_def_cfa_register 7
1091:Generated_Source\PSoC5/RTC.c ****     /* Return current minute */
1092:Generated_Source\PSoC5/RTC.c ****     return (RTC_currentTimeDate.Min);
 1649              		.loc 1 1092 0
 1650 0004 034B     		ldr	r3, .L114
 1651 0006 5B78     		ldrb	r3, [r3, #1]
 1652 0008 DBB2     		uxtb	r3, r3
1093:Generated_Source\PSoC5/RTC.c **** }
 1653              		.loc 1 1093 0
 1654 000a 1846     		mov	r0, r3
 1655 000c BD46     		mov	sp, r7
 1656              		.cfi_def_cfa_register 13
 1657              		@ sp needed
 1658 000e 80BC     		pop	{r7}
 1659              		.cfi_restore 7
 1660              		.cfi_def_cfa_offset 0
 1661 0010 7047     		bx	lr
 1662              	.L115:
 1663 0012 00BF     		.align	2
 1664              	.L114:
 1665 0014 00000000 		.word	RTC_currentTimeDate
 1666              		.cfi_endproc
 1667              	.LFE24:
 1668              		.size	RTC_ReadMinute, .-RTC_ReadMinute
 1669              		.section	.text.RTC_ReadHour,"ax",%progbits
 1670              		.align	2
 1671              		.global	RTC_ReadHour
 1672              		.thumb
 1673              		.thumb_func
 1674              		.type	RTC_ReadHour, %function
 1675              	RTC_ReadHour:
 1676              	.LFB25:
1094:Generated_Source\PSoC5/RTC.c **** 
1095:Generated_Source\PSoC5/RTC.c **** 
1096:Generated_Source\PSoC5/RTC.c **** /*******************************************************************************
1097:Generated_Source\PSoC5/RTC.c **** * Function Name:   RTC_ReadHour
1098:Generated_Source\PSoC5/RTC.c **** ********************************************************************************
1099:Generated_Source\PSoC5/RTC.c **** *
1100:Generated_Source\PSoC5/RTC.c **** * Summary:
1101:Generated_Source\PSoC5/RTC.c **** *  Reads Hour software register value.
1102:Generated_Source\PSoC5/RTC.c **** *
1103:Generated_Source\PSoC5/RTC.c **** * Parameters:
1104:Generated_Source\PSoC5/RTC.c **** *  None.
1105:Generated_Source\PSoC5/RTC.c **** *
ARM GAS  C:\Users\Admin\AppData\Local\Temp\cc4n2E7w.s 			page 50


1106:Generated_Source\PSoC5/RTC.c **** * Return:
1107:Generated_Source\PSoC5/RTC.c **** *  Current hour's value.
1108:Generated_Source\PSoC5/RTC.c **** *
1109:Generated_Source\PSoC5/RTC.c **** * Global variables:
1110:Generated_Source\PSoC5/RTC.c **** *  RTC_currentTimeDate.Hour: the current field's value is used.
1111:Generated_Source\PSoC5/RTC.c **** *
1112:Generated_Source\PSoC5/RTC.c **** *******************************************************************************/
1113:Generated_Source\PSoC5/RTC.c **** uint8 RTC_ReadHour(void) 
1114:Generated_Source\PSoC5/RTC.c **** {
 1677              		.loc 1 1114 0
 1678              		.cfi_startproc
 1679              		@ args = 0, pretend = 0, frame = 0
 1680              		@ frame_needed = 1, uses_anonymous_args = 0
 1681              		@ link register save eliminated.
 1682 0000 80B4     		push	{r7}
 1683              		.cfi_def_cfa_offset 4
 1684              		.cfi_offset 7, -4
 1685 0002 00AF     		add	r7, sp, #0
 1686              		.cfi_def_cfa_register 7
1115:Generated_Source\PSoC5/RTC.c ****     /* Return current hour */
1116:Generated_Source\PSoC5/RTC.c ****     return (RTC_currentTimeDate.Hour);
 1687              		.loc 1 1116 0
 1688 0004 034B     		ldr	r3, .L118
 1689 0006 9B78     		ldrb	r3, [r3, #2]
 1690 0008 DBB2     		uxtb	r3, r3
1117:Generated_Source\PSoC5/RTC.c **** }
 1691              		.loc 1 1117 0
 1692 000a 1846     		mov	r0, r3
 1693 000c BD46     		mov	sp, r7
 1694              		.cfi_def_cfa_register 13
 1695              		@ sp needed
 1696 000e 80BC     		pop	{r7}
 1697              		.cfi_restore 7
 1698              		.cfi_def_cfa_offset 0
 1699 0010 7047     		bx	lr
 1700              	.L119:
 1701 0012 00BF     		.align	2
 1702              	.L118:
 1703 0014 00000000 		.word	RTC_currentTimeDate
 1704              		.cfi_endproc
 1705              	.LFE25:
 1706              		.size	RTC_ReadHour, .-RTC_ReadHour
 1707              		.section	.text.RTC_ReadDayOfMonth,"ax",%progbits
 1708              		.align	2
 1709              		.global	RTC_ReadDayOfMonth
 1710              		.thumb
 1711              		.thumb_func
 1712              		.type	RTC_ReadDayOfMonth, %function
 1713              	RTC_ReadDayOfMonth:
 1714              	.LFB26:
1118:Generated_Source\PSoC5/RTC.c **** 
1119:Generated_Source\PSoC5/RTC.c **** 
1120:Generated_Source\PSoC5/RTC.c **** /*******************************************************************************
1121:Generated_Source\PSoC5/RTC.c **** * Function Name:   RTC_ReadDayOfMonth
1122:Generated_Source\PSoC5/RTC.c **** ********************************************************************************
1123:Generated_Source\PSoC5/RTC.c **** *
1124:Generated_Source\PSoC5/RTC.c **** * Summary:
ARM GAS  C:\Users\Admin\AppData\Local\Temp\cc4n2E7w.s 			page 51


1125:Generated_Source\PSoC5/RTC.c **** *  Reads DayOfMonth software register value.
1126:Generated_Source\PSoC5/RTC.c **** *
1127:Generated_Source\PSoC5/RTC.c **** * Parameters:
1128:Generated_Source\PSoC5/RTC.c **** *  None.
1129:Generated_Source\PSoC5/RTC.c **** *
1130:Generated_Source\PSoC5/RTC.c **** * Return:
1131:Generated_Source\PSoC5/RTC.c **** *  Current value of the day of month.
1132:Generated_Source\PSoC5/RTC.c **** *  returned.
1133:Generated_Source\PSoC5/RTC.c **** *
1134:Generated_Source\PSoC5/RTC.c **** * Global variables:
1135:Generated_Source\PSoC5/RTC.c **** *  RTC_currentTimeDate.DayOfMonth: the current day of month's
1136:Generated_Source\PSoC5/RTC.c **** *  value is used.
1137:Generated_Source\PSoC5/RTC.c **** *
1138:Generated_Source\PSoC5/RTC.c **** *******************************************************************************/
1139:Generated_Source\PSoC5/RTC.c **** uint8 RTC_ReadDayOfMonth(void) 
1140:Generated_Source\PSoC5/RTC.c **** {
 1715              		.loc 1 1140 0
 1716              		.cfi_startproc
 1717              		@ args = 0, pretend = 0, frame = 0
 1718              		@ frame_needed = 1, uses_anonymous_args = 0
 1719              		@ link register save eliminated.
 1720 0000 80B4     		push	{r7}
 1721              		.cfi_def_cfa_offset 4
 1722              		.cfi_offset 7, -4
 1723 0002 00AF     		add	r7, sp, #0
 1724              		.cfi_def_cfa_register 7
1141:Generated_Source\PSoC5/RTC.c ****     /* Return current day of the month */
1142:Generated_Source\PSoC5/RTC.c ****     return (RTC_currentTimeDate.DayOfMonth);
 1725              		.loc 1 1142 0
 1726 0004 034B     		ldr	r3, .L122
 1727 0006 1B79     		ldrb	r3, [r3, #4]
 1728 0008 DBB2     		uxtb	r3, r3
1143:Generated_Source\PSoC5/RTC.c **** }
 1729              		.loc 1 1143 0
 1730 000a 1846     		mov	r0, r3
 1731 000c BD46     		mov	sp, r7
 1732              		.cfi_def_cfa_register 13
 1733              		@ sp needed
 1734 000e 80BC     		pop	{r7}
 1735              		.cfi_restore 7
 1736              		.cfi_def_cfa_offset 0
 1737 0010 7047     		bx	lr
 1738              	.L123:
 1739 0012 00BF     		.align	2
 1740              	.L122:
 1741 0014 00000000 		.word	RTC_currentTimeDate
 1742              		.cfi_endproc
 1743              	.LFE26:
 1744              		.size	RTC_ReadDayOfMonth, .-RTC_ReadDayOfMonth
 1745              		.section	.text.RTC_ReadMonth,"ax",%progbits
 1746              		.align	2
 1747              		.global	RTC_ReadMonth
 1748              		.thumb
 1749              		.thumb_func
 1750              		.type	RTC_ReadMonth, %function
 1751              	RTC_ReadMonth:
 1752              	.LFB27:
ARM GAS  C:\Users\Admin\AppData\Local\Temp\cc4n2E7w.s 			page 52


1144:Generated_Source\PSoC5/RTC.c **** 
1145:Generated_Source\PSoC5/RTC.c **** 
1146:Generated_Source\PSoC5/RTC.c **** /*******************************************************************************
1147:Generated_Source\PSoC5/RTC.c **** * Function Name:   RTC_ReadMonth
1148:Generated_Source\PSoC5/RTC.c **** ********************************************************************************
1149:Generated_Source\PSoC5/RTC.c **** *
1150:Generated_Source\PSoC5/RTC.c **** * Summary:
1151:Generated_Source\PSoC5/RTC.c **** *  Reads Month software register value.
1152:Generated_Source\PSoC5/RTC.c **** *
1153:Generated_Source\PSoC5/RTC.c **** * Parameters:
1154:Generated_Source\PSoC5/RTC.c **** *  None.
1155:Generated_Source\PSoC5/RTC.c **** *
1156:Generated_Source\PSoC5/RTC.c **** * Return:
1157:Generated_Source\PSoC5/RTC.c **** *  Current value of the month.
1158:Generated_Source\PSoC5/RTC.c **** *
1159:Generated_Source\PSoC5/RTC.c **** * Global variables:
1160:Generated_Source\PSoC5/RTC.c **** *  RTC_currentTimeDate.Month: the current month's value is used.
1161:Generated_Source\PSoC5/RTC.c **** *
1162:Generated_Source\PSoC5/RTC.c **** *******************************************************************************/
1163:Generated_Source\PSoC5/RTC.c **** uint8 RTC_ReadMonth(void) 
1164:Generated_Source\PSoC5/RTC.c **** {
 1753              		.loc 1 1164 0
 1754              		.cfi_startproc
 1755              		@ args = 0, pretend = 0, frame = 0
 1756              		@ frame_needed = 1, uses_anonymous_args = 0
 1757              		@ link register save eliminated.
 1758 0000 80B4     		push	{r7}
 1759              		.cfi_def_cfa_offset 4
 1760              		.cfi_offset 7, -4
 1761 0002 00AF     		add	r7, sp, #0
 1762              		.cfi_def_cfa_register 7
1165:Generated_Source\PSoC5/RTC.c ****     /* Return current month */
1166:Generated_Source\PSoC5/RTC.c ****     return (RTC_currentTimeDate.Month);
 1763              		.loc 1 1166 0
 1764 0004 034B     		ldr	r3, .L126
 1765 0006 1B7A     		ldrb	r3, [r3, #8]
 1766 0008 DBB2     		uxtb	r3, r3
1167:Generated_Source\PSoC5/RTC.c **** }
 1767              		.loc 1 1167 0
 1768 000a 1846     		mov	r0, r3
 1769 000c BD46     		mov	sp, r7
 1770              		.cfi_def_cfa_register 13
 1771              		@ sp needed
 1772 000e 80BC     		pop	{r7}
 1773              		.cfi_restore 7
 1774              		.cfi_def_cfa_offset 0
 1775 0010 7047     		bx	lr
 1776              	.L127:
 1777 0012 00BF     		.align	2
 1778              	.L126:
 1779 0014 00000000 		.word	RTC_currentTimeDate
 1780              		.cfi_endproc
 1781              	.LFE27:
 1782              		.size	RTC_ReadMonth, .-RTC_ReadMonth
 1783              		.section	.text.RTC_ReadYear,"ax",%progbits
 1784              		.align	2
 1785              		.global	RTC_ReadYear
ARM GAS  C:\Users\Admin\AppData\Local\Temp\cc4n2E7w.s 			page 53


 1786              		.thumb
 1787              		.thumb_func
 1788              		.type	RTC_ReadYear, %function
 1789              	RTC_ReadYear:
 1790              	.LFB28:
1168:Generated_Source\PSoC5/RTC.c **** 
1169:Generated_Source\PSoC5/RTC.c **** 
1170:Generated_Source\PSoC5/RTC.c **** /*******************************************************************************
1171:Generated_Source\PSoC5/RTC.c **** * Function Name:   RTC_ReadYear
1172:Generated_Source\PSoC5/RTC.c **** ********************************************************************************
1173:Generated_Source\PSoC5/RTC.c **** *
1174:Generated_Source\PSoC5/RTC.c **** * Summary:
1175:Generated_Source\PSoC5/RTC.c **** *  Reads Year software register value.
1176:Generated_Source\PSoC5/RTC.c **** *
1177:Generated_Source\PSoC5/RTC.c **** * Parameters:
1178:Generated_Source\PSoC5/RTC.c **** *  None.
1179:Generated_Source\PSoC5/RTC.c **** *
1180:Generated_Source\PSoC5/RTC.c **** * Return:
1181:Generated_Source\PSoC5/RTC.c **** *  Current value of the year.
1182:Generated_Source\PSoC5/RTC.c **** *
1183:Generated_Source\PSoC5/RTC.c **** * Global variables:
1184:Generated_Source\PSoC5/RTC.c **** *  RTC_currentTimeDate.Year: the current year's value is used.
1185:Generated_Source\PSoC5/RTC.c **** *
1186:Generated_Source\PSoC5/RTC.c **** *******************************************************************************/
1187:Generated_Source\PSoC5/RTC.c **** uint16 RTC_ReadYear(void) 
1188:Generated_Source\PSoC5/RTC.c **** {
 1791              		.loc 1 1188 0
 1792              		.cfi_startproc
 1793              		@ args = 0, pretend = 0, frame = 0
 1794              		@ frame_needed = 1, uses_anonymous_args = 0
 1795              		@ link register save eliminated.
 1796 0000 80B4     		push	{r7}
 1797              		.cfi_def_cfa_offset 4
 1798              		.cfi_offset 7, -4
 1799 0002 00AF     		add	r7, sp, #0
 1800              		.cfi_def_cfa_register 7
1189:Generated_Source\PSoC5/RTC.c ****     /* Return current year */
1190:Generated_Source\PSoC5/RTC.c ****     return (RTC_currentTimeDate.Year);
 1801              		.loc 1 1190 0
 1802 0004 034B     		ldr	r3, .L130
 1803 0006 5B89     		ldrh	r3, [r3, #10]	@ movhi
 1804 0008 9BB2     		uxth	r3, r3
1191:Generated_Source\PSoC5/RTC.c **** }
 1805              		.loc 1 1191 0
 1806 000a 1846     		mov	r0, r3
 1807 000c BD46     		mov	sp, r7
 1808              		.cfi_def_cfa_register 13
 1809              		@ sp needed
 1810 000e 80BC     		pop	{r7}
 1811              		.cfi_restore 7
 1812              		.cfi_def_cfa_offset 0
 1813 0010 7047     		bx	lr
 1814              	.L131:
 1815 0012 00BF     		.align	2
 1816              	.L130:
 1817 0014 00000000 		.word	RTC_currentTimeDate
 1818              		.cfi_endproc
ARM GAS  C:\Users\Admin\AppData\Local\Temp\cc4n2E7w.s 			page 54


 1819              	.LFE28:
 1820              		.size	RTC_ReadYear, .-RTC_ReadYear
 1821              		.section	.text.RTC_ReadAlarmSecond,"ax",%progbits
 1822              		.align	2
 1823              		.global	RTC_ReadAlarmSecond
 1824              		.thumb
 1825              		.thumb_func
 1826              		.type	RTC_ReadAlarmSecond, %function
 1827              	RTC_ReadAlarmSecond:
 1828              	.LFB29:
1192:Generated_Source\PSoC5/RTC.c **** 
1193:Generated_Source\PSoC5/RTC.c **** 
1194:Generated_Source\PSoC5/RTC.c **** /*******************************************************************************
1195:Generated_Source\PSoC5/RTC.c **** * Function Name:   RTC_ReadAlarmSecond
1196:Generated_Source\PSoC5/RTC.c **** ********************************************************************************
1197:Generated_Source\PSoC5/RTC.c **** *
1198:Generated_Source\PSoC5/RTC.c **** * Summary:
1199:Generated_Source\PSoC5/RTC.c **** *  Reads Alarm Sec software register value.
1200:Generated_Source\PSoC5/RTC.c **** *
1201:Generated_Source\PSoC5/RTC.c **** * Parameters:
1202:Generated_Source\PSoC5/RTC.c **** *  None.
1203:Generated_Source\PSoC5/RTC.c **** *
1204:Generated_Source\PSoC5/RTC.c **** * Return:
1205:Generated_Source\PSoC5/RTC.c **** *  Current alarm value of the seconds.
1206:Generated_Source\PSoC5/RTC.c **** *
1207:Generated_Source\PSoC5/RTC.c **** * Global variables:
1208:Generated_Source\PSoC5/RTC.c **** *  RTC_alarmCfgTimeDate.Sec: the current second alarm value is
1209:Generated_Source\PSoC5/RTC.c **** *  used.
1210:Generated_Source\PSoC5/RTC.c **** *
1211:Generated_Source\PSoC5/RTC.c **** ********************************************************************************/
1212:Generated_Source\PSoC5/RTC.c **** uint8 RTC_ReadAlarmSecond(void) 
1213:Generated_Source\PSoC5/RTC.c **** {
 1829              		.loc 1 1213 0
 1830              		.cfi_startproc
 1831              		@ args = 0, pretend = 0, frame = 0
 1832              		@ frame_needed = 1, uses_anonymous_args = 0
 1833              		@ link register save eliminated.
 1834 0000 80B4     		push	{r7}
 1835              		.cfi_def_cfa_offset 4
 1836              		.cfi_offset 7, -4
 1837 0002 00AF     		add	r7, sp, #0
 1838              		.cfi_def_cfa_register 7
1214:Generated_Source\PSoC5/RTC.c ****     /* Return current alarm second */
1215:Generated_Source\PSoC5/RTC.c ****     return (RTC_alarmCfgTimeDate.Sec);
 1839              		.loc 1 1215 0
 1840 0004 034B     		ldr	r3, .L134
 1841 0006 1B78     		ldrb	r3, [r3]
 1842 0008 DBB2     		uxtb	r3, r3
1216:Generated_Source\PSoC5/RTC.c **** }
 1843              		.loc 1 1216 0
 1844 000a 1846     		mov	r0, r3
 1845 000c BD46     		mov	sp, r7
 1846              		.cfi_def_cfa_register 13
 1847              		@ sp needed
 1848 000e 80BC     		pop	{r7}
 1849              		.cfi_restore 7
 1850              		.cfi_def_cfa_offset 0
ARM GAS  C:\Users\Admin\AppData\Local\Temp\cc4n2E7w.s 			page 55


 1851 0010 7047     		bx	lr
 1852              	.L135:
 1853 0012 00BF     		.align	2
 1854              	.L134:
 1855 0014 00000000 		.word	RTC_alarmCfgTimeDate
 1856              		.cfi_endproc
 1857              	.LFE29:
 1858              		.size	RTC_ReadAlarmSecond, .-RTC_ReadAlarmSecond
 1859              		.section	.text.RTC_ReadAlarmMinute,"ax",%progbits
 1860              		.align	2
 1861              		.global	RTC_ReadAlarmMinute
 1862              		.thumb
 1863              		.thumb_func
 1864              		.type	RTC_ReadAlarmMinute, %function
 1865              	RTC_ReadAlarmMinute:
 1866              	.LFB30:
1217:Generated_Source\PSoC5/RTC.c **** 
1218:Generated_Source\PSoC5/RTC.c **** 
1219:Generated_Source\PSoC5/RTC.c **** /*******************************************************************************
1220:Generated_Source\PSoC5/RTC.c **** * Function Name:   RTC_ReadAlarmMinute
1221:Generated_Source\PSoC5/RTC.c **** ********************************************************************************
1222:Generated_Source\PSoC5/RTC.c **** *
1223:Generated_Source\PSoC5/RTC.c **** * Summary:
1224:Generated_Source\PSoC5/RTC.c **** *  Reads Alarm Min software register value.
1225:Generated_Source\PSoC5/RTC.c **** *
1226:Generated_Source\PSoC5/RTC.c **** * Parameters:
1227:Generated_Source\PSoC5/RTC.c **** *  None.
1228:Generated_Source\PSoC5/RTC.c **** *
1229:Generated_Source\PSoC5/RTC.c **** * Return:
1230:Generated_Source\PSoC5/RTC.c **** *  Current alarm value of the minutes.
1231:Generated_Source\PSoC5/RTC.c **** *
1232:Generated_Source\PSoC5/RTC.c **** * Global variables:
1233:Generated_Source\PSoC5/RTC.c **** *  RTC_alarmCfgTimeDate.Min: the current minute alarm is used.
1234:Generated_Source\PSoC5/RTC.c **** *
1235:Generated_Source\PSoC5/RTC.c **** *******************************************************************************/
1236:Generated_Source\PSoC5/RTC.c **** uint8 RTC_ReadAlarmMinute(void) 
1237:Generated_Source\PSoC5/RTC.c **** {
 1867              		.loc 1 1237 0
 1868              		.cfi_startproc
 1869              		@ args = 0, pretend = 0, frame = 0
 1870              		@ frame_needed = 1, uses_anonymous_args = 0
 1871              		@ link register save eliminated.
 1872 0000 80B4     		push	{r7}
 1873              		.cfi_def_cfa_offset 4
 1874              		.cfi_offset 7, -4
 1875 0002 00AF     		add	r7, sp, #0
 1876              		.cfi_def_cfa_register 7
1238:Generated_Source\PSoC5/RTC.c ****     /* Return current alarm minute */
1239:Generated_Source\PSoC5/RTC.c ****     return (RTC_alarmCfgTimeDate.Min);
 1877              		.loc 1 1239 0
 1878 0004 034B     		ldr	r3, .L138
 1879 0006 5B78     		ldrb	r3, [r3, #1]
 1880 0008 DBB2     		uxtb	r3, r3
1240:Generated_Source\PSoC5/RTC.c **** }
 1881              		.loc 1 1240 0
 1882 000a 1846     		mov	r0, r3
 1883 000c BD46     		mov	sp, r7
ARM GAS  C:\Users\Admin\AppData\Local\Temp\cc4n2E7w.s 			page 56


 1884              		.cfi_def_cfa_register 13
 1885              		@ sp needed
 1886 000e 80BC     		pop	{r7}
 1887              		.cfi_restore 7
 1888              		.cfi_def_cfa_offset 0
 1889 0010 7047     		bx	lr
 1890              	.L139:
 1891 0012 00BF     		.align	2
 1892              	.L138:
 1893 0014 00000000 		.word	RTC_alarmCfgTimeDate
 1894              		.cfi_endproc
 1895              	.LFE30:
 1896              		.size	RTC_ReadAlarmMinute, .-RTC_ReadAlarmMinute
 1897              		.section	.text.RTC_ReadAlarmHour,"ax",%progbits
 1898              		.align	2
 1899              		.global	RTC_ReadAlarmHour
 1900              		.thumb
 1901              		.thumb_func
 1902              		.type	RTC_ReadAlarmHour, %function
 1903              	RTC_ReadAlarmHour:
 1904              	.LFB31:
1241:Generated_Source\PSoC5/RTC.c **** 
1242:Generated_Source\PSoC5/RTC.c **** 
1243:Generated_Source\PSoC5/RTC.c **** /*******************************************************************************
1244:Generated_Source\PSoC5/RTC.c **** * Function Name:   RTC_ReadAlarmHour
1245:Generated_Source\PSoC5/RTC.c **** ********************************************************************************
1246:Generated_Source\PSoC5/RTC.c **** *
1247:Generated_Source\PSoC5/RTC.c **** * Summary:
1248:Generated_Source\PSoC5/RTC.c **** *  Reads Alarm Hour software register value.
1249:Generated_Source\PSoC5/RTC.c **** *
1250:Generated_Source\PSoC5/RTC.c **** * Parameters:
1251:Generated_Source\PSoC5/RTC.c **** *  None.
1252:Generated_Source\PSoC5/RTC.c **** *
1253:Generated_Source\PSoC5/RTC.c **** * Return:
1254:Generated_Source\PSoC5/RTC.c **** *  Current alarm value of the hours.
1255:Generated_Source\PSoC5/RTC.c **** *
1256:Generated_Source\PSoC5/RTC.c **** * Global variables:
1257:Generated_Source\PSoC5/RTC.c **** *  RTC_alarmCfgTimeDate.Hour: the current hour alarm value is used.
1258:Generated_Source\PSoC5/RTC.c **** *
1259:Generated_Source\PSoC5/RTC.c **** *******************************************************************************/
1260:Generated_Source\PSoC5/RTC.c **** uint8 RTC_ReadAlarmHour(void) 
1261:Generated_Source\PSoC5/RTC.c **** {
 1905              		.loc 1 1261 0
 1906              		.cfi_startproc
 1907              		@ args = 0, pretend = 0, frame = 0
 1908              		@ frame_needed = 1, uses_anonymous_args = 0
 1909              		@ link register save eliminated.
 1910 0000 80B4     		push	{r7}
 1911              		.cfi_def_cfa_offset 4
 1912              		.cfi_offset 7, -4
 1913 0002 00AF     		add	r7, sp, #0
 1914              		.cfi_def_cfa_register 7
1262:Generated_Source\PSoC5/RTC.c ****     /* Return current alarm hour */
1263:Generated_Source\PSoC5/RTC.c ****     return (RTC_alarmCfgTimeDate.Hour);
 1915              		.loc 1 1263 0
 1916 0004 034B     		ldr	r3, .L142
 1917 0006 9B78     		ldrb	r3, [r3, #2]
ARM GAS  C:\Users\Admin\AppData\Local\Temp\cc4n2E7w.s 			page 57


 1918 0008 DBB2     		uxtb	r3, r3
1264:Generated_Source\PSoC5/RTC.c **** }
 1919              		.loc 1 1264 0
 1920 000a 1846     		mov	r0, r3
 1921 000c BD46     		mov	sp, r7
 1922              		.cfi_def_cfa_register 13
 1923              		@ sp needed
 1924 000e 80BC     		pop	{r7}
 1925              		.cfi_restore 7
 1926              		.cfi_def_cfa_offset 0
 1927 0010 7047     		bx	lr
 1928              	.L143:
 1929 0012 00BF     		.align	2
 1930              	.L142:
 1931 0014 00000000 		.word	RTC_alarmCfgTimeDate
 1932              		.cfi_endproc
 1933              	.LFE31:
 1934              		.size	RTC_ReadAlarmHour, .-RTC_ReadAlarmHour
 1935              		.section	.text.RTC_ReadAlarmDayOfMonth,"ax",%progbits
 1936              		.align	2
 1937              		.global	RTC_ReadAlarmDayOfMonth
 1938              		.thumb
 1939              		.thumb_func
 1940              		.type	RTC_ReadAlarmDayOfMonth, %function
 1941              	RTC_ReadAlarmDayOfMonth:
 1942              	.LFB32:
1265:Generated_Source\PSoC5/RTC.c **** 
1266:Generated_Source\PSoC5/RTC.c **** 
1267:Generated_Source\PSoC5/RTC.c **** /*******************************************************************************
1268:Generated_Source\PSoC5/RTC.c **** * Function Name:   RTC_ReadAlarmDayOfMonth
1269:Generated_Source\PSoC5/RTC.c **** ********************************************************************************
1270:Generated_Source\PSoC5/RTC.c **** *
1271:Generated_Source\PSoC5/RTC.c **** * Summary:
1272:Generated_Source\PSoC5/RTC.c **** *  Reads Alarm DayOfMonth software register value.
1273:Generated_Source\PSoC5/RTC.c **** *
1274:Generated_Source\PSoC5/RTC.c **** * Parameters:
1275:Generated_Source\PSoC5/RTC.c **** *  None.
1276:Generated_Source\PSoC5/RTC.c **** *
1277:Generated_Source\PSoC5/RTC.c **** * Return:
1278:Generated_Source\PSoC5/RTC.c **** *  Current alarm value of the day of month.
1279:Generated_Source\PSoC5/RTC.c **** *
1280:Generated_Source\PSoC5/RTC.c **** * Global variables:
1281:Generated_Source\PSoC5/RTC.c **** *  RTC_alarmCfgTimeDate.DayOfMonth: the current day of month alarm
1282:Generated_Source\PSoC5/RTC.c **** *  value is used.
1283:Generated_Source\PSoC5/RTC.c **** *
1284:Generated_Source\PSoC5/RTC.c **** *******************************************************************************/
1285:Generated_Source\PSoC5/RTC.c **** uint8 RTC_ReadAlarmDayOfMonth(void) 
1286:Generated_Source\PSoC5/RTC.c **** {
 1943              		.loc 1 1286 0
 1944              		.cfi_startproc
 1945              		@ args = 0, pretend = 0, frame = 0
 1946              		@ frame_needed = 1, uses_anonymous_args = 0
 1947              		@ link register save eliminated.
 1948 0000 80B4     		push	{r7}
 1949              		.cfi_def_cfa_offset 4
 1950              		.cfi_offset 7, -4
 1951 0002 00AF     		add	r7, sp, #0
ARM GAS  C:\Users\Admin\AppData\Local\Temp\cc4n2E7w.s 			page 58


 1952              		.cfi_def_cfa_register 7
1287:Generated_Source\PSoC5/RTC.c ****     /* Return current alarm day of month */
1288:Generated_Source\PSoC5/RTC.c ****     return (RTC_alarmCfgTimeDate.DayOfMonth);
 1953              		.loc 1 1288 0
 1954 0004 034B     		ldr	r3, .L146
 1955 0006 1B79     		ldrb	r3, [r3, #4]
 1956 0008 DBB2     		uxtb	r3, r3
1289:Generated_Source\PSoC5/RTC.c **** }
 1957              		.loc 1 1289 0
 1958 000a 1846     		mov	r0, r3
 1959 000c BD46     		mov	sp, r7
 1960              		.cfi_def_cfa_register 13
 1961              		@ sp needed
 1962 000e 80BC     		pop	{r7}
 1963              		.cfi_restore 7
 1964              		.cfi_def_cfa_offset 0
 1965 0010 7047     		bx	lr
 1966              	.L147:
 1967 0012 00BF     		.align	2
 1968              	.L146:
 1969 0014 00000000 		.word	RTC_alarmCfgTimeDate
 1970              		.cfi_endproc
 1971              	.LFE32:
 1972              		.size	RTC_ReadAlarmDayOfMonth, .-RTC_ReadAlarmDayOfMonth
 1973              		.section	.text.RTC_ReadAlarmMonth,"ax",%progbits
 1974              		.align	2
 1975              		.global	RTC_ReadAlarmMonth
 1976              		.thumb
 1977              		.thumb_func
 1978              		.type	RTC_ReadAlarmMonth, %function
 1979              	RTC_ReadAlarmMonth:
 1980              	.LFB33:
1290:Generated_Source\PSoC5/RTC.c **** 
1291:Generated_Source\PSoC5/RTC.c **** 
1292:Generated_Source\PSoC5/RTC.c **** /*******************************************************************************
1293:Generated_Source\PSoC5/RTC.c **** * Function Name:   RTC_ReadAlarmMonth
1294:Generated_Source\PSoC5/RTC.c **** ********************************************************************************
1295:Generated_Source\PSoC5/RTC.c **** *
1296:Generated_Source\PSoC5/RTC.c **** * Summary:
1297:Generated_Source\PSoC5/RTC.c **** *  Reads Alarm Month software register value.
1298:Generated_Source\PSoC5/RTC.c **** *
1299:Generated_Source\PSoC5/RTC.c **** * Parameters:
1300:Generated_Source\PSoC5/RTC.c **** *  None.
1301:Generated_Source\PSoC5/RTC.c **** *
1302:Generated_Source\PSoC5/RTC.c **** * Return:
1303:Generated_Source\PSoC5/RTC.c **** *  Current alarm value of the month.
1304:Generated_Source\PSoC5/RTC.c **** *
1305:Generated_Source\PSoC5/RTC.c **** * Global variables:
1306:Generated_Source\PSoC5/RTC.c **** *  RTC_alarmCfgTimeDate.Month: the current month alarm value is
1307:Generated_Source\PSoC5/RTC.c **** *  used.
1308:Generated_Source\PSoC5/RTC.c **** *
1309:Generated_Source\PSoC5/RTC.c **** *******************************************************************************/
1310:Generated_Source\PSoC5/RTC.c **** uint8 RTC_ReadAlarmMonth(void) 
1311:Generated_Source\PSoC5/RTC.c **** {
 1981              		.loc 1 1311 0
 1982              		.cfi_startproc
 1983              		@ args = 0, pretend = 0, frame = 0
ARM GAS  C:\Users\Admin\AppData\Local\Temp\cc4n2E7w.s 			page 59


 1984              		@ frame_needed = 1, uses_anonymous_args = 0
 1985              		@ link register save eliminated.
 1986 0000 80B4     		push	{r7}
 1987              		.cfi_def_cfa_offset 4
 1988              		.cfi_offset 7, -4
 1989 0002 00AF     		add	r7, sp, #0
 1990              		.cfi_def_cfa_register 7
1312:Generated_Source\PSoC5/RTC.c ****     /* Return current alarm month */
1313:Generated_Source\PSoC5/RTC.c ****     return (RTC_alarmCfgTimeDate.Month);
 1991              		.loc 1 1313 0
 1992 0004 034B     		ldr	r3, .L150
 1993 0006 1B7A     		ldrb	r3, [r3, #8]
 1994 0008 DBB2     		uxtb	r3, r3
1314:Generated_Source\PSoC5/RTC.c **** }
 1995              		.loc 1 1314 0
 1996 000a 1846     		mov	r0, r3
 1997 000c BD46     		mov	sp, r7
 1998              		.cfi_def_cfa_register 13
 1999              		@ sp needed
 2000 000e 80BC     		pop	{r7}
 2001              		.cfi_restore 7
 2002              		.cfi_def_cfa_offset 0
 2003 0010 7047     		bx	lr
 2004              	.L151:
 2005 0012 00BF     		.align	2
 2006              	.L150:
 2007 0014 00000000 		.word	RTC_alarmCfgTimeDate
 2008              		.cfi_endproc
 2009              	.LFE33:
 2010              		.size	RTC_ReadAlarmMonth, .-RTC_ReadAlarmMonth
 2011              		.section	.text.RTC_ReadAlarmYear,"ax",%progbits
 2012              		.align	2
 2013              		.global	RTC_ReadAlarmYear
 2014              		.thumb
 2015              		.thumb_func
 2016              		.type	RTC_ReadAlarmYear, %function
 2017              	RTC_ReadAlarmYear:
 2018              	.LFB34:
1315:Generated_Source\PSoC5/RTC.c **** 
1316:Generated_Source\PSoC5/RTC.c **** 
1317:Generated_Source\PSoC5/RTC.c **** /*******************************************************************************
1318:Generated_Source\PSoC5/RTC.c **** * Function Name:   RTC_ReadAlarmYear
1319:Generated_Source\PSoC5/RTC.c **** ********************************************************************************
1320:Generated_Source\PSoC5/RTC.c **** *
1321:Generated_Source\PSoC5/RTC.c **** * Summary:
1322:Generated_Source\PSoC5/RTC.c **** *  Reads Alarm Year software register value.
1323:Generated_Source\PSoC5/RTC.c **** *
1324:Generated_Source\PSoC5/RTC.c **** * Parameters:
1325:Generated_Source\PSoC5/RTC.c **** *  None.
1326:Generated_Source\PSoC5/RTC.c **** *
1327:Generated_Source\PSoC5/RTC.c **** * Return:
1328:Generated_Source\PSoC5/RTC.c **** *  Current alarm value of the years.
1329:Generated_Source\PSoC5/RTC.c **** *
1330:Generated_Source\PSoC5/RTC.c **** * Global variables:
1331:Generated_Source\PSoC5/RTC.c **** *  RTC_alarmCfgTimeDate.Year: the current year alarm value is used.
1332:Generated_Source\PSoC5/RTC.c **** *
1333:Generated_Source\PSoC5/RTC.c **** *******************************************************************************/
ARM GAS  C:\Users\Admin\AppData\Local\Temp\cc4n2E7w.s 			page 60


1334:Generated_Source\PSoC5/RTC.c **** uint16 RTC_ReadAlarmYear(void) 
1335:Generated_Source\PSoC5/RTC.c **** {
 2019              		.loc 1 1335 0
 2020              		.cfi_startproc
 2021              		@ args = 0, pretend = 0, frame = 0
 2022              		@ frame_needed = 1, uses_anonymous_args = 0
 2023              		@ link register save eliminated.
 2024 0000 80B4     		push	{r7}
 2025              		.cfi_def_cfa_offset 4
 2026              		.cfi_offset 7, -4
 2027 0002 00AF     		add	r7, sp, #0
 2028              		.cfi_def_cfa_register 7
1336:Generated_Source\PSoC5/RTC.c ****     /* Return current alarm year */
1337:Generated_Source\PSoC5/RTC.c ****     return (RTC_alarmCfgTimeDate.Year);
 2029              		.loc 1 1337 0
 2030 0004 034B     		ldr	r3, .L154
 2031 0006 5B89     		ldrh	r3, [r3, #10]	@ movhi
 2032 0008 9BB2     		uxth	r3, r3
1338:Generated_Source\PSoC5/RTC.c **** }
 2033              		.loc 1 1338 0
 2034 000a 1846     		mov	r0, r3
 2035 000c BD46     		mov	sp, r7
 2036              		.cfi_def_cfa_register 13
 2037              		@ sp needed
 2038 000e 80BC     		pop	{r7}
 2039              		.cfi_restore 7
 2040              		.cfi_def_cfa_offset 0
 2041 0010 7047     		bx	lr
 2042              	.L155:
 2043 0012 00BF     		.align	2
 2044              	.L154:
 2045 0014 00000000 		.word	RTC_alarmCfgTimeDate
 2046              		.cfi_endproc
 2047              	.LFE34:
 2048              		.size	RTC_ReadAlarmYear, .-RTC_ReadAlarmYear
 2049              		.section	.text.RTC_ReadAlarmDayOfWeek,"ax",%progbits
 2050              		.align	2
 2051              		.global	RTC_ReadAlarmDayOfWeek
 2052              		.thumb
 2053              		.thumb_func
 2054              		.type	RTC_ReadAlarmDayOfWeek, %function
 2055              	RTC_ReadAlarmDayOfWeek:
 2056              	.LFB35:
1339:Generated_Source\PSoC5/RTC.c **** 
1340:Generated_Source\PSoC5/RTC.c **** 
1341:Generated_Source\PSoC5/RTC.c **** /*******************************************************************************
1342:Generated_Source\PSoC5/RTC.c **** * Function Name:   RTC_ReadAlarmDayOfWeek
1343:Generated_Source\PSoC5/RTC.c **** ********************************************************************************
1344:Generated_Source\PSoC5/RTC.c **** *
1345:Generated_Source\PSoC5/RTC.c **** * Summary:
1346:Generated_Source\PSoC5/RTC.c **** *  Reads Alarm DayOfWeek software register value.
1347:Generated_Source\PSoC5/RTC.c **** *
1348:Generated_Source\PSoC5/RTC.c **** * Parameters:
1349:Generated_Source\PSoC5/RTC.c **** *  None.
1350:Generated_Source\PSoC5/RTC.c **** *
1351:Generated_Source\PSoC5/RTC.c **** * Return:
1352:Generated_Source\PSoC5/RTC.c **** *  Current alarm value of the day of week.
ARM GAS  C:\Users\Admin\AppData\Local\Temp\cc4n2E7w.s 			page 61


1353:Generated_Source\PSoC5/RTC.c **** *
1354:Generated_Source\PSoC5/RTC.c **** * Global variables:
1355:Generated_Source\PSoC5/RTC.c **** *  RTC_alarmCfgTimeDate.DayOfWeek: the current day of week alarm
1356:Generated_Source\PSoC5/RTC.c **** *  value is used.
1357:Generated_Source\PSoC5/RTC.c **** *
1358:Generated_Source\PSoC5/RTC.c **** *******************************************************************************/
1359:Generated_Source\PSoC5/RTC.c **** uint8 RTC_ReadAlarmDayOfWeek(void) 
1360:Generated_Source\PSoC5/RTC.c **** {
 2057              		.loc 1 1360 0
 2058              		.cfi_startproc
 2059              		@ args = 0, pretend = 0, frame = 0
 2060              		@ frame_needed = 1, uses_anonymous_args = 0
 2061              		@ link register save eliminated.
 2062 0000 80B4     		push	{r7}
 2063              		.cfi_def_cfa_offset 4
 2064              		.cfi_offset 7, -4
 2065 0002 00AF     		add	r7, sp, #0
 2066              		.cfi_def_cfa_register 7
1361:Generated_Source\PSoC5/RTC.c ****     /* Return current alarm day of the week */
1362:Generated_Source\PSoC5/RTC.c ****     return (RTC_alarmCfgTimeDate.DayOfWeek);
 2067              		.loc 1 1362 0
 2068 0004 034B     		ldr	r3, .L158
 2069 0006 DB78     		ldrb	r3, [r3, #3]
 2070 0008 DBB2     		uxtb	r3, r3
1363:Generated_Source\PSoC5/RTC.c **** }
 2071              		.loc 1 1363 0
 2072 000a 1846     		mov	r0, r3
 2073 000c BD46     		mov	sp, r7
 2074              		.cfi_def_cfa_register 13
 2075              		@ sp needed
 2076 000e 80BC     		pop	{r7}
 2077              		.cfi_restore 7
 2078              		.cfi_def_cfa_offset 0
 2079 0010 7047     		bx	lr
 2080              	.L159:
 2081 0012 00BF     		.align	2
 2082              	.L158:
 2083 0014 00000000 		.word	RTC_alarmCfgTimeDate
 2084              		.cfi_endproc
 2085              	.LFE35:
 2086              		.size	RTC_ReadAlarmDayOfWeek, .-RTC_ReadAlarmDayOfWeek
 2087              		.section	.text.RTC_ReadAlarmDayOfYear,"ax",%progbits
 2088              		.align	2
 2089              		.global	RTC_ReadAlarmDayOfYear
 2090              		.thumb
 2091              		.thumb_func
 2092              		.type	RTC_ReadAlarmDayOfYear, %function
 2093              	RTC_ReadAlarmDayOfYear:
 2094              	.LFB36:
1364:Generated_Source\PSoC5/RTC.c **** 
1365:Generated_Source\PSoC5/RTC.c **** 
1366:Generated_Source\PSoC5/RTC.c **** /*******************************************************************************
1367:Generated_Source\PSoC5/RTC.c **** * Function Name:   RTC_ReadAlarmDayOfYear
1368:Generated_Source\PSoC5/RTC.c **** ********************************************************************************
1369:Generated_Source\PSoC5/RTC.c **** *
1370:Generated_Source\PSoC5/RTC.c **** * Summary:
1371:Generated_Source\PSoC5/RTC.c **** *  Reads Alarm DayOfYear software register value.
ARM GAS  C:\Users\Admin\AppData\Local\Temp\cc4n2E7w.s 			page 62


1372:Generated_Source\PSoC5/RTC.c **** *
1373:Generated_Source\PSoC5/RTC.c **** * Parameters:
1374:Generated_Source\PSoC5/RTC.c **** *  None.
1375:Generated_Source\PSoC5/RTC.c **** *
1376:Generated_Source\PSoC5/RTC.c **** * Return:
1377:Generated_Source\PSoC5/RTC.c **** *  Current alarm value of the day of year.
1378:Generated_Source\PSoC5/RTC.c **** *
1379:Generated_Source\PSoC5/RTC.c **** * Global variables:
1380:Generated_Source\PSoC5/RTC.c **** *  RTC_alarmCfgTimeDate.DayOfYear: the current day of year alarm
1381:Generated_Source\PSoC5/RTC.c **** *  value is used.
1382:Generated_Source\PSoC5/RTC.c **** *
1383:Generated_Source\PSoC5/RTC.c **** *******************************************************************************/
1384:Generated_Source\PSoC5/RTC.c **** uint16 RTC_ReadAlarmDayOfYear(void) 
1385:Generated_Source\PSoC5/RTC.c **** {
 2095              		.loc 1 1385 0
 2096              		.cfi_startproc
 2097              		@ args = 0, pretend = 0, frame = 0
 2098              		@ frame_needed = 1, uses_anonymous_args = 0
 2099              		@ link register save eliminated.
 2100 0000 80B4     		push	{r7}
 2101              		.cfi_def_cfa_offset 4
 2102              		.cfi_offset 7, -4
 2103 0002 00AF     		add	r7, sp, #0
 2104              		.cfi_def_cfa_register 7
1386:Generated_Source\PSoC5/RTC.c ****     /* Return current alarm day of the year */
1387:Generated_Source\PSoC5/RTC.c ****     return  (RTC_alarmCfgTimeDate.DayOfYear);
 2105              		.loc 1 1387 0
 2106 0004 034B     		ldr	r3, .L162
 2107 0006 DB88     		ldrh	r3, [r3, #6]	@ movhi
 2108 0008 9BB2     		uxth	r3, r3
1388:Generated_Source\PSoC5/RTC.c **** }
 2109              		.loc 1 1388 0
 2110 000a 1846     		mov	r0, r3
 2111 000c BD46     		mov	sp, r7
 2112              		.cfi_def_cfa_register 13
 2113              		@ sp needed
 2114 000e 80BC     		pop	{r7}
 2115              		.cfi_restore 7
 2116              		.cfi_def_cfa_offset 0
 2117 0010 7047     		bx	lr
 2118              	.L163:
 2119 0012 00BF     		.align	2
 2120              	.L162:
 2121 0014 00000000 		.word	RTC_alarmCfgTimeDate
 2122              		.cfi_endproc
 2123              	.LFE36:
 2124              		.size	RTC_ReadAlarmDayOfYear, .-RTC_ReadAlarmDayOfYear
 2125              		.section	.text.RTC_WriteAlarmMask,"ax",%progbits
 2126              		.align	2
 2127              		.global	RTC_WriteAlarmMask
 2128              		.thumb
 2129              		.thumb_func
 2130              		.type	RTC_WriteAlarmMask, %function
 2131              	RTC_WriteAlarmMask:
 2132              	.LFB37:
1389:Generated_Source\PSoC5/RTC.c **** 
1390:Generated_Source\PSoC5/RTC.c **** 
ARM GAS  C:\Users\Admin\AppData\Local\Temp\cc4n2E7w.s 			page 63


1391:Generated_Source\PSoC5/RTC.c **** /*******************************************************************************
1392:Generated_Source\PSoC5/RTC.c **** * Function Name:   RTC_WriteAlarmMask
1393:Generated_Source\PSoC5/RTC.c **** ********************************************************************************
1394:Generated_Source\PSoC5/RTC.c **** *
1395:Generated_Source\PSoC5/RTC.c **** * Summary:
1396:Generated_Source\PSoC5/RTC.c **** *  Writes the Alarm Mask software register with 1 bit per time/date entry. Alarm
1397:Generated_Source\PSoC5/RTC.c **** *  true when all masked time/date values match Alarm values.
1398:Generated_Source\PSoC5/RTC.c **** *
1399:Generated_Source\PSoC5/RTC.c **** * Parameters:
1400:Generated_Source\PSoC5/RTC.c **** *  mask: Alarm Mask software register value.
1401:Generated_Source\PSoC5/RTC.c **** *
1402:Generated_Source\PSoC5/RTC.c **** * Return:
1403:Generated_Source\PSoC5/RTC.c **** *  None.
1404:Generated_Source\PSoC5/RTC.c **** *
1405:Generated_Source\PSoC5/RTC.c **** * Global variables:
1406:Generated_Source\PSoC5/RTC.c **** *  RTC_alarmCfgMask: global variable which stores masks for
1407:Generated_Source\PSoC5/RTC.c **** *  time/date alarm configuration is modified.
1408:Generated_Source\PSoC5/RTC.c **** *
1409:Generated_Source\PSoC5/RTC.c **** * Reentrant:
1410:Generated_Source\PSoC5/RTC.c **** *  No.
1411:Generated_Source\PSoC5/RTC.c **** *
1412:Generated_Source\PSoC5/RTC.c **** *******************************************************************************/
1413:Generated_Source\PSoC5/RTC.c **** void RTC_WriteAlarmMask(uint8 mask) 
1414:Generated_Source\PSoC5/RTC.c **** {
 2133              		.loc 1 1414 0
 2134              		.cfi_startproc
 2135              		@ args = 0, pretend = 0, frame = 8
 2136              		@ frame_needed = 1, uses_anonymous_args = 0
 2137              		@ link register save eliminated.
 2138 0000 80B4     		push	{r7}
 2139              		.cfi_def_cfa_offset 4
 2140              		.cfi_offset 7, -4
 2141 0002 83B0     		sub	sp, sp, #12
 2142              		.cfi_def_cfa_offset 16
 2143 0004 00AF     		add	r7, sp, #0
 2144              		.cfi_def_cfa_register 7
 2145 0006 0346     		mov	r3, r0
 2146 0008 FB71     		strb	r3, [r7, #7]
1415:Generated_Source\PSoC5/RTC.c ****     RTC_alarmCfgMask = mask;
 2147              		.loc 1 1415 0
 2148 000a 044A     		ldr	r2, .L165
 2149 000c FB79     		ldrb	r3, [r7, #7]
 2150 000e 1370     		strb	r3, [r2]
1416:Generated_Source\PSoC5/RTC.c **** }
 2151              		.loc 1 1416 0
 2152 0010 00BF     		nop
 2153 0012 0C37     		adds	r7, r7, #12
 2154              		.cfi_def_cfa_offset 4
 2155 0014 BD46     		mov	sp, r7
 2156              		.cfi_def_cfa_register 13
 2157              		@ sp needed
 2158 0016 80BC     		pop	{r7}
 2159              		.cfi_restore 7
 2160              		.cfi_def_cfa_offset 0
 2161 0018 7047     		bx	lr
 2162              	.L166:
 2163 001a 00BF     		.align	2
ARM GAS  C:\Users\Admin\AppData\Local\Temp\cc4n2E7w.s 			page 64


 2164              	.L165:
 2165 001c 00000000 		.word	RTC_alarmCfgMask
 2166              		.cfi_endproc
 2167              	.LFE37:
 2168              		.size	RTC_WriteAlarmMask, .-RTC_WriteAlarmMask
 2169              		.section	.text.RTC_WriteIntervalMask,"ax",%progbits
 2170              		.align	2
 2171              		.global	RTC_WriteIntervalMask
 2172              		.thumb
 2173              		.thumb_func
 2174              		.type	RTC_WriteIntervalMask, %function
 2175              	RTC_WriteIntervalMask:
 2176              	.LFB38:
1417:Generated_Source\PSoC5/RTC.c **** 
1418:Generated_Source\PSoC5/RTC.c **** 
1419:Generated_Source\PSoC5/RTC.c **** /*******************************************************************************
1420:Generated_Source\PSoC5/RTC.c **** * Function Name:   RTC_WriteIntervalMask
1421:Generated_Source\PSoC5/RTC.c **** ********************************************************************************
1422:Generated_Source\PSoC5/RTC.c **** *
1423:Generated_Source\PSoC5/RTC.c **** * Summary:
1424:Generated_Source\PSoC5/RTC.c **** *  Writes the Interval Mask software register with 1 bit per time/date entry.
1425:Generated_Source\PSoC5/RTC.c **** *  Interrupt true when any masked time/date overflow occur.
1426:Generated_Source\PSoC5/RTC.c **** *
1427:Generated_Source\PSoC5/RTC.c **** * Parameters:
1428:Generated_Source\PSoC5/RTC.c **** *  mask: Alarm Mask software register value.
1429:Generated_Source\PSoC5/RTC.c **** *
1430:Generated_Source\PSoC5/RTC.c **** * Return:
1431:Generated_Source\PSoC5/RTC.c **** *  None.
1432:Generated_Source\PSoC5/RTC.c **** *
1433:Generated_Source\PSoC5/RTC.c **** * Global variables:
1434:Generated_Source\PSoC5/RTC.c **** *  RTC_intervalCfgMask: this global variable is modified - the new
1435:Generated_Source\PSoC5/RTC.c **** *  value of interval mask is stored here.
1436:Generated_Source\PSoC5/RTC.c **** *
1437:Generated_Source\PSoC5/RTC.c **** * Reentrant:
1438:Generated_Source\PSoC5/RTC.c **** *  No.
1439:Generated_Source\PSoC5/RTC.c **** *
1440:Generated_Source\PSoC5/RTC.c **** *******************************************************************************/
1441:Generated_Source\PSoC5/RTC.c **** void RTC_WriteIntervalMask(uint8 mask) 
1442:Generated_Source\PSoC5/RTC.c **** {
 2177              		.loc 1 1442 0
 2178              		.cfi_startproc
 2179              		@ args = 0, pretend = 0, frame = 8
 2180              		@ frame_needed = 1, uses_anonymous_args = 0
 2181              		@ link register save eliminated.
 2182 0000 80B4     		push	{r7}
 2183              		.cfi_def_cfa_offset 4
 2184              		.cfi_offset 7, -4
 2185 0002 83B0     		sub	sp, sp, #12
 2186              		.cfi_def_cfa_offset 16
 2187 0004 00AF     		add	r7, sp, #0
 2188              		.cfi_def_cfa_register 7
 2189 0006 0346     		mov	r3, r0
 2190 0008 FB71     		strb	r3, [r7, #7]
1443:Generated_Source\PSoC5/RTC.c ****     RTC_intervalCfgMask = mask;
 2191              		.loc 1 1443 0
 2192 000a 044A     		ldr	r2, .L168
 2193 000c FB79     		ldrb	r3, [r7, #7]
ARM GAS  C:\Users\Admin\AppData\Local\Temp\cc4n2E7w.s 			page 65


 2194 000e 1370     		strb	r3, [r2]
1444:Generated_Source\PSoC5/RTC.c **** }
 2195              		.loc 1 1444 0
 2196 0010 00BF     		nop
 2197 0012 0C37     		adds	r7, r7, #12
 2198              		.cfi_def_cfa_offset 4
 2199 0014 BD46     		mov	sp, r7
 2200              		.cfi_def_cfa_register 13
 2201              		@ sp needed
 2202 0016 80BC     		pop	{r7}
 2203              		.cfi_restore 7
 2204              		.cfi_def_cfa_offset 0
 2205 0018 7047     		bx	lr
 2206              	.L169:
 2207 001a 00BF     		.align	2
 2208              	.L168:
 2209 001c 00000000 		.word	RTC_intervalCfgMask
 2210              		.cfi_endproc
 2211              	.LFE38:
 2212              		.size	RTC_WriteIntervalMask, .-RTC_WriteIntervalMask
 2213              		.section	.text.RTC_ReadStatus,"ax",%progbits
 2214              		.align	2
 2215              		.global	RTC_ReadStatus
 2216              		.thumb
 2217              		.thumb_func
 2218              		.type	RTC_ReadStatus, %function
 2219              	RTC_ReadStatus:
 2220              	.LFB39:
1445:Generated_Source\PSoC5/RTC.c **** 
1446:Generated_Source\PSoC5/RTC.c **** 
1447:Generated_Source\PSoC5/RTC.c **** /*******************************************************************************
1448:Generated_Source\PSoC5/RTC.c **** * Function Name:   RTC_ReadStatus
1449:Generated_Source\PSoC5/RTC.c **** ********************************************************************************
1450:Generated_Source\PSoC5/RTC.c **** *
1451:Generated_Source\PSoC5/RTC.c **** * Summary:
1452:Generated_Source\PSoC5/RTC.c **** *  Reads the Status software register which has flags for DST
1453:Generated_Source\PSoC5/RTC.c **** *  (DST), Leap Year (LY) and AM/PM (AM_PM), Alarm active (AA).
1454:Generated_Source\PSoC5/RTC.c **** *
1455:Generated_Source\PSoC5/RTC.c **** * Parameters:
1456:Generated_Source\PSoC5/RTC.c **** *  None.
1457:Generated_Source\PSoC5/RTC.c **** *
1458:Generated_Source\PSoC5/RTC.c **** * Return:
1459:Generated_Source\PSoC5/RTC.c **** *  None.
1460:Generated_Source\PSoC5/RTC.c **** *
1461:Generated_Source\PSoC5/RTC.c **** * Global variables:
1462:Generated_Source\PSoC5/RTC.c **** *  RTC_statusDateTime: global variable is modified - active alarm
1463:Generated_Source\PSoC5/RTC.c **** *  status bit is cleared.
1464:Generated_Source\PSoC5/RTC.c **** *
1465:Generated_Source\PSoC5/RTC.c **** * Reentrant:
1466:Generated_Source\PSoC5/RTC.c **** *  No.
1467:Generated_Source\PSoC5/RTC.c **** *
1468:Generated_Source\PSoC5/RTC.c **** * Side Effects:
1469:Generated_Source\PSoC5/RTC.c **** *  Alarm active(AA) flag clear after read.
1470:Generated_Source\PSoC5/RTC.c **** *
1471:Generated_Source\PSoC5/RTC.c **** *******************************************************************************/
1472:Generated_Source\PSoC5/RTC.c **** uint8 RTC_ReadStatus(void) 
1473:Generated_Source\PSoC5/RTC.c **** {
ARM GAS  C:\Users\Admin\AppData\Local\Temp\cc4n2E7w.s 			page 66


 2221              		.loc 1 1473 0
 2222              		.cfi_startproc
 2223              		@ args = 0, pretend = 0, frame = 8
 2224              		@ frame_needed = 1, uses_anonymous_args = 0
 2225              		@ link register save eliminated.
 2226 0000 80B4     		push	{r7}
 2227              		.cfi_def_cfa_offset 4
 2228              		.cfi_offset 7, -4
 2229 0002 83B0     		sub	sp, sp, #12
 2230              		.cfi_def_cfa_offset 16
 2231 0004 00AF     		add	r7, sp, #0
 2232              		.cfi_def_cfa_register 7
1474:Generated_Source\PSoC5/RTC.c ****     uint8 status;
1475:Generated_Source\PSoC5/RTC.c **** 
1476:Generated_Source\PSoC5/RTC.c ****     /* Save status */
1477:Generated_Source\PSoC5/RTC.c ****     status = (uint8)RTC_statusDateTime;
 2233              		.loc 1 1477 0
 2234 0006 084B     		ldr	r3, .L172
 2235 0008 1B78     		ldrb	r3, [r3]
 2236 000a FB71     		strb	r3, [r7, #7]
1478:Generated_Source\PSoC5/RTC.c **** 
1479:Generated_Source\PSoC5/RTC.c ****     /* Clean AA flag after read of Status Register */
1480:Generated_Source\PSoC5/RTC.c ****     RTC_statusDateTime &= (uint8)(~RTC_STATUS_AA);
 2237              		.loc 1 1480 0
 2238 000c 064B     		ldr	r3, .L172
 2239 000e 1B78     		ldrb	r3, [r3]
 2240 0010 DBB2     		uxtb	r3, r3
 2241 0012 23F00803 		bic	r3, r3, #8
 2242 0016 DAB2     		uxtb	r2, r3
 2243 0018 034B     		ldr	r3, .L172
 2244 001a 1A70     		strb	r2, [r3]
1481:Generated_Source\PSoC5/RTC.c **** 
1482:Generated_Source\PSoC5/RTC.c ****     return (status);
 2245              		.loc 1 1482 0
 2246 001c FB79     		ldrb	r3, [r7, #7]	@ zero_extendqisi2
1483:Generated_Source\PSoC5/RTC.c **** }
 2247              		.loc 1 1483 0
 2248 001e 1846     		mov	r0, r3
 2249 0020 0C37     		adds	r7, r7, #12
 2250              		.cfi_def_cfa_offset 4
 2251 0022 BD46     		mov	sp, r7
 2252              		.cfi_def_cfa_register 13
 2253              		@ sp needed
 2254 0024 80BC     		pop	{r7}
 2255              		.cfi_restore 7
 2256              		.cfi_def_cfa_offset 0
 2257 0026 7047     		bx	lr
 2258              	.L173:
 2259              		.align	2
 2260              	.L172:
 2261 0028 00000000 		.word	RTC_statusDateTime
 2262              		.cfi_endproc
 2263              	.LFE39:
 2264              		.size	RTC_ReadStatus, .-RTC_ReadStatus
 2265              		.section	.text.RTC_DayOfWeek,"ax",%progbits
 2266              		.align	2
 2267              		.thumb
ARM GAS  C:\Users\Admin\AppData\Local\Temp\cc4n2E7w.s 			page 67


 2268              		.thumb_func
 2269              		.type	RTC_DayOfWeek, %function
 2270              	RTC_DayOfWeek:
 2271              	.LFB40:
1484:Generated_Source\PSoC5/RTC.c **** 
1485:Generated_Source\PSoC5/RTC.c **** 
1486:Generated_Source\PSoC5/RTC.c **** /*******************************************************************************
1487:Generated_Source\PSoC5/RTC.c **** * Function Name:   RTC_DayOfWeek
1488:Generated_Source\PSoC5/RTC.c **** ********************************************************************************
1489:Generated_Source\PSoC5/RTC.c **** *
1490:Generated_Source\PSoC5/RTC.c **** * Summary:
1491:Generated_Source\PSoC5/RTC.c **** *  Calculates Day Of Week value use Zeller's congruence.
1492:Generated_Source\PSoC5/RTC.c **** *
1493:Generated_Source\PSoC5/RTC.c **** * Parameters:
1494:Generated_Source\PSoC5/RTC.c **** *  dayOfMonth: Day Of Month value.
1495:Generated_Source\PSoC5/RTC.c **** *  month: Month value.
1496:Generated_Source\PSoC5/RTC.c **** *  year: Year value.
1497:Generated_Source\PSoC5/RTC.c **** *
1498:Generated_Source\PSoC5/RTC.c **** * Return:
1499:Generated_Source\PSoC5/RTC.c **** *  Day Of Week value.
1500:Generated_Source\PSoC5/RTC.c **** *
1501:Generated_Source\PSoC5/RTC.c **** *******************************************************************************/
1502:Generated_Source\PSoC5/RTC.c **** static uint8 RTC_DayOfWeek(uint8 dayOfMonth, uint8 month, uint16 year)
1503:Generated_Source\PSoC5/RTC.c **** 
1504:Generated_Source\PSoC5/RTC.c **** {
 2272              		.loc 1 1504 0
 2273              		.cfi_startproc
 2274              		@ args = 0, pretend = 0, frame = 8
 2275              		@ frame_needed = 1, uses_anonymous_args = 0
 2276              		@ link register save eliminated.
 2277 0000 90B4     		push	{r4, r7}
 2278              		.cfi_def_cfa_offset 8
 2279              		.cfi_offset 4, -8
 2280              		.cfi_offset 7, -4
 2281 0002 82B0     		sub	sp, sp, #8
 2282              		.cfi_def_cfa_offset 16
 2283 0004 00AF     		add	r7, sp, #0
 2284              		.cfi_def_cfa_register 7
 2285 0006 0346     		mov	r3, r0
 2286 0008 FB71     		strb	r3, [r7, #7]
 2287 000a 0B46     		mov	r3, r1
 2288 000c BB71     		strb	r3, [r7, #6]
 2289 000e 1346     		mov	r3, r2	@ movhi
 2290 0010 BB80     		strh	r3, [r7, #4]	@ movhi
1505:Generated_Source\PSoC5/RTC.c ****     /* Calculated sequence ((31 * month) / 12) mod 7 from the Zeller's congruence */
1506:Generated_Source\PSoC5/RTC.c ****     static const uint8 CYCODE RTC_monthTemplate[RTC_MONTHS_IN_YEAR] =
1507:Generated_Source\PSoC5/RTC.c ****                                                             {0u, 3u, 2u, 5u, 0u, 3u, 5u, 1u, 4u, 6u
1508:Generated_Source\PSoC5/RTC.c **** 
1509:Generated_Source\PSoC5/RTC.c ****     /* It is simpler to handle the modified year, which is year - 1 during
1510:Generated_Source\PSoC5/RTC.c ****     * January and February
1511:Generated_Source\PSoC5/RTC.c ****     */
1512:Generated_Source\PSoC5/RTC.c ****     if(month < RTC_MARCH)
 2291              		.loc 1 1512 0
 2292 0012 BB79     		ldrb	r3, [r7, #6]	@ zero_extendqisi2
 2293 0014 022B     		cmp	r3, #2
 2294 0016 02D8     		bhi	.L175
1513:Generated_Source\PSoC5/RTC.c ****     {
ARM GAS  C:\Users\Admin\AppData\Local\Temp\cc4n2E7w.s 			page 68


1514:Generated_Source\PSoC5/RTC.c ****         year = year - 1u;
 2295              		.loc 1 1514 0
 2296 0018 BB88     		ldrh	r3, [r7, #4]	@ movhi
 2297 001a 013B     		subs	r3, r3, #1
 2298 001c BB80     		strh	r3, [r7, #4]	@ movhi
 2299              	.L175:
1515:Generated_Source\PSoC5/RTC.c ****     }
1516:Generated_Source\PSoC5/RTC.c **** 
1517:Generated_Source\PSoC5/RTC.c ****     /* For Gregorian calendar: d = (day + y + y/4 - y/100 + y/400 + (31*m)/12) mod 7 */
1518:Generated_Source\PSoC5/RTC.c ****     return ((uint8)(((year + (((year/4u) - (year/100u)) + (year/400u))) +
 2300              		.loc 1 1518 0
 2301 001e BA88     		ldrh	r2, [r7, #4]
 2302 0020 BB88     		ldrh	r3, [r7, #4]
 2303 0022 9B08     		lsrs	r3, r3, #2
 2304 0024 9BB2     		uxth	r3, r3
 2305 0026 1846     		mov	r0, r3
 2306 0028 BB88     		ldrh	r3, [r7, #4]
 2307 002a 1349     		ldr	r1, .L177
 2308 002c A1FB0313 		umull	r1, r3, r1, r3
 2309 0030 5B09     		lsrs	r3, r3, #5
 2310 0032 9BB2     		uxth	r3, r3
 2311 0034 C31A     		subs	r3, r0, r3
 2312 0036 B988     		ldrh	r1, [r7, #4]
 2313 0038 0F48     		ldr	r0, .L177
 2314 003a A0FB0101 		umull	r0, r1, r0, r1
 2315 003e C909     		lsrs	r1, r1, #7
 2316 0040 89B2     		uxth	r1, r1
 2317 0042 0B44     		add	r3, r3, r1
 2318 0044 1344     		add	r3, r3, r2
1519:Generated_Source\PSoC5/RTC.c ****     (((uint16)RTC_monthTemplate[month - 1u]) + ((uint16) dayOfMonth))) % RTC_DAYS_IN_WEEK));
 2319              		.loc 1 1519 0
 2320 0046 BA79     		ldrb	r2, [r7, #6]	@ zero_extendqisi2
 2321 0048 013A     		subs	r2, r2, #1
 2322 004a 0C49     		ldr	r1, .L177+4
 2323 004c 8A5C     		ldrb	r2, [r1, r2]	@ zero_extendqisi2
 2324 004e 1146     		mov	r1, r2
 2325 0050 FA79     		ldrb	r2, [r7, #7]	@ zero_extendqisi2
 2326 0052 0A44     		add	r2, r2, r1
1518:Generated_Source\PSoC5/RTC.c ****     (((uint16)RTC_monthTemplate[month - 1u]) + ((uint16) dayOfMonth))) % RTC_DAYS_IN_WEEK));
 2327              		.loc 1 1518 0
 2328 0054 1A44     		add	r2, r2, r3
 2329              		.loc 1 1519 0
 2330 0056 0A4B     		ldr	r3, .L177+8
 2331 0058 A2FB0334 		umull	r3, r4, r2, r3
 2332 005c 111B     		subs	r1, r2, r4
 2333 005e 4908     		lsrs	r1, r1, #1
 2334 0060 0B19     		adds	r3, r1, r4
 2335 0062 9908     		lsrs	r1, r3, #2
 2336 0064 0B46     		mov	r3, r1
 2337 0066 DB00     		lsls	r3, r3, #3
 2338 0068 5B1A     		subs	r3, r3, r1
 2339 006a D11A     		subs	r1, r2, r3
1518:Generated_Source\PSoC5/RTC.c ****     (((uint16)RTC_monthTemplate[month - 1u]) + ((uint16) dayOfMonth))) % RTC_DAYS_IN_WEEK));
 2340              		.loc 1 1518 0
 2341 006c CBB2     		uxtb	r3, r1
1520:Generated_Source\PSoC5/RTC.c **** }
 2342              		.loc 1 1520 0
ARM GAS  C:\Users\Admin\AppData\Local\Temp\cc4n2E7w.s 			page 69


 2343 006e 1846     		mov	r0, r3
 2344 0070 0837     		adds	r7, r7, #8
 2345              		.cfi_def_cfa_offset 8
 2346 0072 BD46     		mov	sp, r7
 2347              		.cfi_def_cfa_register 13
 2348              		@ sp needed
 2349 0074 90BC     		pop	{r4, r7}
 2350              		.cfi_restore 7
 2351              		.cfi_restore 4
 2352              		.cfi_def_cfa_offset 0
 2353 0076 7047     		bx	lr
 2354              	.L178:
 2355              		.align	2
 2356              	.L177:
 2357 0078 1F85EB51 		.word	1374389535
 2358 007c 0C000000 		.word	RTC_monthTemplate.5224
 2359 0080 25499224 		.word	613566757
 2360              		.cfi_endproc
 2361              	.LFE40:
 2362              		.size	RTC_DayOfWeek, .-RTC_DayOfWeek
 2363              		.section	.text.RTC_SetInitValues,"ax",%progbits
 2364              		.align	2
 2365              		.thumb
 2366              		.thumb_func
 2367              		.type	RTC_SetInitValues, %function
 2368              	RTC_SetInitValues:
 2369              	.LFB41:
1521:Generated_Source\PSoC5/RTC.c **** 
1522:Generated_Source\PSoC5/RTC.c **** 
1523:Generated_Source\PSoC5/RTC.c **** /*******************************************************************************
1524:Generated_Source\PSoC5/RTC.c **** * Function Name:   RTC_SetInitValues
1525:Generated_Source\PSoC5/RTC.c **** ********************************************************************************
1526:Generated_Source\PSoC5/RTC.c **** *
1527:Generated_Source\PSoC5/RTC.c **** * Summary:
1528:Generated_Source\PSoC5/RTC.c **** *    Does all initial calculation.
1529:Generated_Source\PSoC5/RTC.c **** *    - Set LP Year flag;
1530:Generated_Source\PSoC5/RTC.c **** *    - Set AM/PM flag;
1531:Generated_Source\PSoC5/RTC.c **** *    - DayOfWeek;
1532:Generated_Source\PSoC5/RTC.c **** *    - DayOfYear;
1533:Generated_Source\PSoC5/RTC.c **** *    - Set DST flag;
1534:Generated_Source\PSoC5/RTC.c **** *    - Convert relative to absolute date.
1535:Generated_Source\PSoC5/RTC.c **** *
1536:Generated_Source\PSoC5/RTC.c **** * Parameters:
1537:Generated_Source\PSoC5/RTC.c **** *  None.
1538:Generated_Source\PSoC5/RTC.c **** *
1539:Generated_Source\PSoC5/RTC.c **** * Return:
1540:Generated_Source\PSoC5/RTC.c **** *  None.
1541:Generated_Source\PSoC5/RTC.c **** *
1542:Generated_Source\PSoC5/RTC.c **** * Global variables:
1543:Generated_Source\PSoC5/RTC.c **** *  RTC_currentTimeDate, RTC_dstTimeDateStart,
1544:Generated_Source\PSoC5/RTC.c **** *  RTC_dstTimeDateStop, RTC_dstTimeDateStart,
1545:Generated_Source\PSoC5/RTC.c **** *  RTC_alarmCfgTimeDate, RTC_statusDateTime,
1546:Generated_Source\PSoC5/RTC.c **** *  RTC_dstStartStatus, RTC_dstStartStatus,
1547:Generated_Source\PSoC5/RTC.c **** *  RTC_dstStopStatus, RTC_alarmCurStatus:
1548:Generated_Source\PSoC5/RTC.c **** *  global variables are used while the initial calculation.
1549:Generated_Source\PSoC5/RTC.c **** *
1550:Generated_Source\PSoC5/RTC.c **** * RTC_dstTimeDateStart, RTC_currentTimeDate,
ARM GAS  C:\Users\Admin\AppData\Local\Temp\cc4n2E7w.s 			page 70


1551:Generated_Source\PSoC5/RTC.c **** *  RTC_statusDateTime, RTC_dstStartStatus,
1552:Generated_Source\PSoC5/RTC.c **** *  RTC_dstStartStatus, RTC_dstStopStatus,
1553:Generated_Source\PSoC5/RTC.c **** *  RTC_alarmCurStatus: global variables are modified with the
1554:Generated_Source\PSoC5/RTC.c **** *  initial calculated data.
1555:Generated_Source\PSoC5/RTC.c **** *
1556:Generated_Source\PSoC5/RTC.c **** * Reentrant:
1557:Generated_Source\PSoC5/RTC.c **** *  No.
1558:Generated_Source\PSoC5/RTC.c **** *
1559:Generated_Source\PSoC5/RTC.c **** *******************************************************************************/
1560:Generated_Source\PSoC5/RTC.c **** static void RTC_SetInitValues(void) 
1561:Generated_Source\PSoC5/RTC.c **** {
 2370              		.loc 1 1561 0
 2371              		.cfi_startproc
 2372              		@ args = 0, pretend = 0, frame = 8
 2373              		@ frame_needed = 1, uses_anonymous_args = 0
 2374 0000 80B5     		push	{r7, lr}
 2375              		.cfi_def_cfa_offset 8
 2376              		.cfi_offset 7, -8
 2377              		.cfi_offset 14, -4
 2378 0002 82B0     		sub	sp, sp, #8
 2379              		.cfi_def_cfa_offset 16
 2380 0004 00AF     		add	r7, sp, #0
 2381              		.cfi_def_cfa_register 7
1562:Generated_Source\PSoC5/RTC.c ****     uint8 i;
1563:Generated_Source\PSoC5/RTC.c ****     uint8 RTC_alarmCfgMaskTemp;
1564:Generated_Source\PSoC5/RTC.c **** 
1565:Generated_Source\PSoC5/RTC.c ****     /* Clears day of month counter */
1566:Generated_Source\PSoC5/RTC.c ****     RTC_currentTimeDate.DayOfYear = 0u;
 2382              		.loc 1 1566 0
 2383 0006 9C4B     		ldr	r3, .L245
 2384 0008 0022     		movs	r2, #0
 2385 000a DA80     		strh	r2, [r3, #6]	@ movhi
1567:Generated_Source\PSoC5/RTC.c **** 
1568:Generated_Source\PSoC5/RTC.c ****     /* Increments day of year value with day in current month */
1569:Generated_Source\PSoC5/RTC.c ****     RTC_currentTimeDate.DayOfYear += RTC_currentTimeDate.DayOfMonth;
 2386              		.loc 1 1569 0
 2387 000c 9A4B     		ldr	r3, .L245
 2388 000e 1B79     		ldrb	r3, [r3, #4]
 2389 0010 D9B2     		uxtb	r1, r3
 2390 0012 994B     		ldr	r3, .L245
 2391 0014 DB88     		ldrh	r3, [r3, #6]	@ movhi
 2392 0016 9AB2     		uxth	r2, r3
 2393 0018 8BB2     		uxth	r3, r1
 2394 001a 1344     		add	r3, r3, r2
 2395 001c 9AB2     		uxth	r2, r3
 2396 001e 964B     		ldr	r3, .L245
 2397 0020 DA80     		strh	r2, [r3, #6]	@ movhi
1570:Generated_Source\PSoC5/RTC.c **** 
1571:Generated_Source\PSoC5/RTC.c ****     /* Check leap year */
1572:Generated_Source\PSoC5/RTC.c ****     if(1u == RTC_LEAP_YEAR(RTC_currentTimeDate.Year))
 2398              		.loc 1 1572 0
 2399 0022 954B     		ldr	r3, .L245
 2400 0024 5B89     		ldrh	r3, [r3, #10]	@ movhi
 2401 0026 9BB2     		uxth	r3, r3
 2402 0028 944A     		ldr	r2, .L245+4
 2403 002a A2FB0312 		umull	r1, r2, r2, r3
 2404 002e D209     		lsrs	r2, r2, #7
ARM GAS  C:\Users\Admin\AppData\Local\Temp\cc4n2E7w.s 			page 71


 2405 0030 4FF4C871 		mov	r1, #400
 2406 0034 01FB02F2 		mul	r2, r1, r2
 2407 0038 9B1A     		subs	r3, r3, r2
 2408 003a 9BB2     		uxth	r3, r3
 2409 003c 002B     		cmp	r3, #0
 2410 003e 15D0     		beq	.L180
 2411              		.loc 1 1572 0 is_stmt 0 discriminator 1
 2412 0040 8D4B     		ldr	r3, .L245
 2413 0042 5B89     		ldrh	r3, [r3, #10]	@ movhi
 2414 0044 9BB2     		uxth	r3, r3
 2415 0046 03F00303 		and	r3, r3, #3
 2416 004a 9BB2     		uxth	r3, r3
 2417 004c 002B     		cmp	r3, #0
 2418 004e 16D1     		bne	.L181
 2419              		.loc 1 1572 0 discriminator 2
 2420 0050 894B     		ldr	r3, .L245
 2421 0052 5B89     		ldrh	r3, [r3, #10]	@ movhi
 2422 0054 9BB2     		uxth	r3, r3
 2423 0056 894A     		ldr	r2, .L245+4
 2424 0058 A2FB0312 		umull	r1, r2, r2, r3
 2425 005c 5209     		lsrs	r2, r2, #5
 2426 005e 6421     		movs	r1, #100
 2427 0060 01FB02F2 		mul	r2, r1, r2
 2428 0064 9B1A     		subs	r3, r3, r2
 2429 0066 9BB2     		uxth	r3, r3
 2430 0068 002B     		cmp	r3, #0
 2431 006a 08D0     		beq	.L181
 2432              	.L180:
1573:Generated_Source\PSoC5/RTC.c ****     {
1574:Generated_Source\PSoC5/RTC.c ****         /* Set LP Year flag */
1575:Generated_Source\PSoC5/RTC.c ****         RTC_statusDateTime |= RTC_STATUS_LY;
 2433              		.loc 1 1575 0 is_stmt 1
 2434 006c 844B     		ldr	r3, .L245+8
 2435 006e 1B78     		ldrb	r3, [r3]
 2436 0070 DBB2     		uxtb	r3, r3
 2437 0072 43F00203 		orr	r3, r3, #2
 2438 0076 DAB2     		uxtb	r2, r3
 2439 0078 814B     		ldr	r3, .L245+8
 2440 007a 1A70     		strb	r2, [r3]
 2441 007c 07E0     		b	.L182
 2442              	.L181:
1576:Generated_Source\PSoC5/RTC.c ****     }   /* leap year flag was set */
1577:Generated_Source\PSoC5/RTC.c ****     else
1578:Generated_Source\PSoC5/RTC.c ****     {
1579:Generated_Source\PSoC5/RTC.c ****         /* Clear LP Year flag */
1580:Generated_Source\PSoC5/RTC.c ****         RTC_statusDateTime &= (uint8)(~RTC_STATUS_LY);
 2443              		.loc 1 1580 0
 2444 007e 804B     		ldr	r3, .L245+8
 2445 0080 1B78     		ldrb	r3, [r3]
 2446 0082 DBB2     		uxtb	r3, r3
 2447 0084 23F00203 		bic	r3, r3, #2
 2448 0088 DAB2     		uxtb	r2, r3
 2449 008a 7D4B     		ldr	r3, .L245+8
 2450 008c 1A70     		strb	r2, [r3]
 2451              	.L182:
1581:Generated_Source\PSoC5/RTC.c ****     }   /* leap year flag was cleared */
1582:Generated_Source\PSoC5/RTC.c **** 
ARM GAS  C:\Users\Admin\AppData\Local\Temp\cc4n2E7w.s 			page 72


1583:Generated_Source\PSoC5/RTC.c ****     /* Day of Year */
1584:Generated_Source\PSoC5/RTC.c ****     for(i = 0u; i < (RTC_currentTimeDate.Month - 1u); i++)
 2452              		.loc 1 1584 0
 2453 008e 0023     		movs	r3, #0
 2454 0090 FB71     		strb	r3, [r7, #7]
 2455 0092 0DE0     		b	.L183
 2456              	.L184:
1585:Generated_Source\PSoC5/RTC.c ****     {
1586:Generated_Source\PSoC5/RTC.c ****         /* Increment on days in passed months */
1587:Generated_Source\PSoC5/RTC.c ****         RTC_currentTimeDate.DayOfYear += RTC_daysInMonths[i];
 2457              		.loc 1 1587 0 discriminator 3
 2458 0094 784B     		ldr	r3, .L245
 2459 0096 DB88     		ldrh	r3, [r3, #6]	@ movhi
 2460 0098 9AB2     		uxth	r2, r3
 2461 009a FB79     		ldrb	r3, [r7, #7]	@ zero_extendqisi2
 2462 009c 7949     		ldr	r1, .L245+12
 2463 009e CB5C     		ldrb	r3, [r1, r3]	@ zero_extendqisi2
 2464 00a0 9BB2     		uxth	r3, r3
 2465 00a2 1344     		add	r3, r3, r2
 2466 00a4 9AB2     		uxth	r2, r3
 2467 00a6 744B     		ldr	r3, .L245
 2468 00a8 DA80     		strh	r2, [r3, #6]	@ movhi
1584:Generated_Source\PSoC5/RTC.c ****     {
 2469              		.loc 1 1584 0 discriminator 3
 2470 00aa FB79     		ldrb	r3, [r7, #7]	@ zero_extendqisi2
 2471 00ac 0133     		adds	r3, r3, #1
 2472 00ae FB71     		strb	r3, [r7, #7]
 2473              	.L183:
1584:Generated_Source\PSoC5/RTC.c ****     {
 2474              		.loc 1 1584 0 is_stmt 0 discriminator 1
 2475 00b0 FA79     		ldrb	r2, [r7, #7]	@ zero_extendqisi2
 2476 00b2 714B     		ldr	r3, .L245
 2477 00b4 1B7A     		ldrb	r3, [r3, #8]
 2478 00b6 DBB2     		uxtb	r3, r3
 2479 00b8 013B     		subs	r3, r3, #1
 2480 00ba 9A42     		cmp	r2, r3
 2481 00bc EAD3     		bcc	.L184
1588:Generated_Source\PSoC5/RTC.c ****     }   /* day of year is calculated */
1589:Generated_Source\PSoC5/RTC.c **** 
1590:Generated_Source\PSoC5/RTC.c ****     /* Leap year check */
1591:Generated_Source\PSoC5/RTC.c ****     if(0u != RTC_IS_BIT_SET(RTC_statusDateTime, RTC_STATUS_LY))
 2482              		.loc 1 1591 0 is_stmt 1
 2483 00be 704B     		ldr	r3, .L245+8
 2484 00c0 1B78     		ldrb	r3, [r3]
 2485 00c2 DBB2     		uxtb	r3, r3
 2486 00c4 03F00203 		and	r3, r3, #2
 2487 00c8 002B     		cmp	r3, #0
 2488 00ca 0BD0     		beq	.L185
1592:Generated_Source\PSoC5/RTC.c ****     {
1593:Generated_Source\PSoC5/RTC.c ****         /* Leap day check */
1594:Generated_Source\PSoC5/RTC.c ****         if(RTC_currentTimeDate.Month > RTC_FEBRUARY)
 2489              		.loc 1 1594 0
 2490 00cc 6A4B     		ldr	r3, .L245
 2491 00ce 1B7A     		ldrb	r3, [r3, #8]
 2492 00d0 DBB2     		uxtb	r3, r3
 2493 00d2 022B     		cmp	r3, #2
 2494 00d4 06D9     		bls	.L185
ARM GAS  C:\Users\Admin\AppData\Local\Temp\cc4n2E7w.s 			page 73


1595:Generated_Source\PSoC5/RTC.c ****         {
1596:Generated_Source\PSoC5/RTC.c ****             /* Add leap day */
1597:Generated_Source\PSoC5/RTC.c ****             RTC_currentTimeDate.DayOfYear++;
 2495              		.loc 1 1597 0
 2496 00d6 684B     		ldr	r3, .L245
 2497 00d8 DB88     		ldrh	r3, [r3, #6]	@ movhi
 2498 00da 9BB2     		uxth	r3, r3
 2499 00dc 0133     		adds	r3, r3, #1
 2500 00de 9AB2     		uxth	r2, r3
 2501 00e0 654B     		ldr	r3, .L245
 2502 00e2 DA80     		strh	r2, [r3, #6]	@ movhi
 2503              	.L185:
1598:Generated_Source\PSoC5/RTC.c ****         }   /* Do nothing for non leap day */
1599:Generated_Source\PSoC5/RTC.c ****     }   /* Do nothing for not leap year */
1600:Generated_Source\PSoC5/RTC.c **** 
1601:Generated_Source\PSoC5/RTC.c ****     /* DayOfWeek */
1602:Generated_Source\PSoC5/RTC.c ****     RTC_currentTimeDate.DayOfWeek = RTC_DayOfWeek(
 2504              		.loc 1 1602 0
 2505 00e4 644B     		ldr	r3, .L245
 2506 00e6 1B79     		ldrb	r3, [r3, #4]
 2507 00e8 D8B2     		uxtb	r0, r3
 2508 00ea 634B     		ldr	r3, .L245
 2509 00ec 1B7A     		ldrb	r3, [r3, #8]
 2510 00ee D9B2     		uxtb	r1, r3
 2511 00f0 614B     		ldr	r3, .L245
 2512 00f2 5B89     		ldrh	r3, [r3, #10]	@ movhi
 2513 00f4 9BB2     		uxth	r3, r3
 2514 00f6 1A46     		mov	r2, r3
 2515 00f8 FFF7FEFF 		bl	RTC_DayOfWeek
 2516 00fc 0346     		mov	r3, r0
 2517 00fe 0133     		adds	r3, r3, #1
 2518 0100 DAB2     		uxtb	r2, r3
 2519 0102 5D4B     		ldr	r3, .L245
 2520 0104 DA70     		strb	r2, [r3, #3]
1603:Generated_Source\PSoC5/RTC.c ****                                                                         RTC_currentTimeDate.DayOfMo
1604:Generated_Source\PSoC5/RTC.c ****                                                                         RTC_currentTimeDate.Month,
1605:Generated_Source\PSoC5/RTC.c ****                                                                         RTC_currentTimeDate.Year) +
1606:Generated_Source\PSoC5/RTC.c **** 
1607:Generated_Source\PSoC5/RTC.c ****     if(RTC_currentTimeDate.DayOfWeek > RTC_START_OF_WEEK)
 2521              		.loc 1 1607 0
 2522 0106 5C4B     		ldr	r3, .L245
 2523 0108 DB78     		ldrb	r3, [r3, #3]
 2524 010a DBB2     		uxtb	r3, r3
 2525 010c 012B     		cmp	r3, #1
 2526 010e 07D9     		bls	.L186
1608:Generated_Source\PSoC5/RTC.c ****     {
1609:Generated_Source\PSoC5/RTC.c ****         RTC_currentTimeDate.DayOfWeek -= RTC_START_OF_WEEK;
 2527              		.loc 1 1609 0
 2528 0110 594B     		ldr	r3, .L245
 2529 0112 DB78     		ldrb	r3, [r3, #3]
 2530 0114 DBB2     		uxtb	r3, r3
 2531 0116 013B     		subs	r3, r3, #1
 2532 0118 DAB2     		uxtb	r2, r3
 2533 011a 574B     		ldr	r3, .L245
 2534 011c DA70     		strb	r2, [r3, #3]
 2535 011e 06E0     		b	.L187
 2536              	.L186:
ARM GAS  C:\Users\Admin\AppData\Local\Temp\cc4n2E7w.s 			page 74


1610:Generated_Source\PSoC5/RTC.c ****     }
1611:Generated_Source\PSoC5/RTC.c ****     else
1612:Generated_Source\PSoC5/RTC.c ****     {
1613:Generated_Source\PSoC5/RTC.c ****         RTC_currentTimeDate.DayOfWeek = RTC_DAYS_IN_WEEK -
1614:Generated_Source\PSoC5/RTC.c ****                                         (RTC_START_OF_WEEK - RTC_currentTimeDate.DayOfWeek);
 2537              		.loc 1 1614 0
 2538 0120 554B     		ldr	r3, .L245
 2539 0122 DB78     		ldrb	r3, [r3, #3]
 2540 0124 DBB2     		uxtb	r3, r3
1613:Generated_Source\PSoC5/RTC.c ****                                         (RTC_START_OF_WEEK - RTC_currentTimeDate.DayOfWeek);
 2541              		.loc 1 1613 0
 2542 0126 0633     		adds	r3, r3, #6
 2543 0128 DAB2     		uxtb	r2, r3
 2544 012a 534B     		ldr	r3, .L245
 2545 012c DA70     		strb	r2, [r3, #3]
 2546              	.L187:
1615:Generated_Source\PSoC5/RTC.c ****     }
1616:Generated_Source\PSoC5/RTC.c **** 
1617:Generated_Source\PSoC5/RTC.c ****     #if (1u == RTC_DST_FUNC_ENABLE)
1618:Generated_Source\PSoC5/RTC.c **** 
1619:Generated_Source\PSoC5/RTC.c ****         /* If DST values is given in a relative manner, converts to the absolute values */
1620:Generated_Source\PSoC5/RTC.c ****         if(0u != RTC_IS_BIT_SET(RTC_dstModeType, RTC_DST_RELDATE))
 2547              		.loc 1 1620 0
 2548 012e 564B     		ldr	r3, .L245+16
 2549 0130 1B78     		ldrb	r3, [r3]
 2550 0132 DBB2     		uxtb	r3, r3
 2551 0134 03F00203 		and	r3, r3, #2
 2552 0138 002B     		cmp	r3, #0
 2553 013a 01D0     		beq	.L188
1621:Generated_Source\PSoC5/RTC.c ****         {
1622:Generated_Source\PSoC5/RTC.c ****             RTC_DSTDateConversion();
 2554              		.loc 1 1622 0
 2555 013c FFF7FEFF 		bl	RTC_DSTDateConversion
 2556              	.L188:
1623:Generated_Source\PSoC5/RTC.c ****         }
1624:Generated_Source\PSoC5/RTC.c **** 
1625:Generated_Source\PSoC5/RTC.c ****         /* Sets DST status respect to the DST start date and time */
1626:Generated_Source\PSoC5/RTC.c ****         if(RTC_currentTimeDate.Month > RTC_dstTimeDateStart.Month)
 2557              		.loc 1 1626 0
 2558 0140 4D4B     		ldr	r3, .L245
 2559 0142 1B7A     		ldrb	r3, [r3, #8]
 2560 0144 DAB2     		uxtb	r2, r3
 2561 0146 514B     		ldr	r3, .L245+20
 2562 0148 1B79     		ldrb	r3, [r3, #4]
 2563 014a DBB2     		uxtb	r3, r3
 2564 014c 9A42     		cmp	r2, r3
 2565 014e 08D9     		bls	.L189
1627:Generated_Source\PSoC5/RTC.c ****         {
1628:Generated_Source\PSoC5/RTC.c ****             RTC_statusDateTime |= RTC_STATUS_DST;
 2566              		.loc 1 1628 0
 2567 0150 4B4B     		ldr	r3, .L245+8
 2568 0152 1B78     		ldrb	r3, [r3]
 2569 0154 DBB2     		uxtb	r3, r3
 2570 0156 43F00103 		orr	r3, r3, #1
 2571 015a DAB2     		uxtb	r2, r3
 2572 015c 484B     		ldr	r3, .L245+8
 2573 015e 1A70     		strb	r2, [r3]
ARM GAS  C:\Users\Admin\AppData\Local\Temp\cc4n2E7w.s 			page 75


 2574 0160 30E0     		b	.L190
 2575              	.L189:
1629:Generated_Source\PSoC5/RTC.c ****         }
1630:Generated_Source\PSoC5/RTC.c ****         else if(RTC_currentTimeDate.Month == RTC_dstTimeDateStart.Month)
 2576              		.loc 1 1630 0
 2577 0162 454B     		ldr	r3, .L245
 2578 0164 1B7A     		ldrb	r3, [r3, #8]
 2579 0166 DAB2     		uxtb	r2, r3
 2580 0168 484B     		ldr	r3, .L245+20
 2581 016a 1B79     		ldrb	r3, [r3, #4]
 2582 016c DBB2     		uxtb	r3, r3
 2583 016e 9A42     		cmp	r2, r3
 2584 0170 28D1     		bne	.L190
1631:Generated_Source\PSoC5/RTC.c ****         {
1632:Generated_Source\PSoC5/RTC.c ****             if(RTC_currentTimeDate.DayOfMonth > RTC_dstTimeDateStart.DayOfMonth)
 2585              		.loc 1 1632 0
 2586 0172 414B     		ldr	r3, .L245
 2587 0174 1B79     		ldrb	r3, [r3, #4]
 2588 0176 DAB2     		uxtb	r2, r3
 2589 0178 444B     		ldr	r3, .L245+20
 2590 017a DB78     		ldrb	r3, [r3, #3]
 2591 017c DBB2     		uxtb	r3, r3
 2592 017e 9A42     		cmp	r2, r3
 2593 0180 08D9     		bls	.L191
1633:Generated_Source\PSoC5/RTC.c ****             {
1634:Generated_Source\PSoC5/RTC.c ****                 RTC_statusDateTime |= RTC_STATUS_DST;
 2594              		.loc 1 1634 0
 2595 0182 3F4B     		ldr	r3, .L245+8
 2596 0184 1B78     		ldrb	r3, [r3]
 2597 0186 DBB2     		uxtb	r3, r3
 2598 0188 43F00103 		orr	r3, r3, #1
 2599 018c DAB2     		uxtb	r2, r3
 2600 018e 3C4B     		ldr	r3, .L245+8
 2601 0190 1A70     		strb	r2, [r3]
 2602 0192 17E0     		b	.L190
 2603              	.L191:
1635:Generated_Source\PSoC5/RTC.c ****             }
1636:Generated_Source\PSoC5/RTC.c ****             else if(RTC_currentTimeDate.DayOfMonth == RTC_dstTimeDateStart.DayOfMonth)
 2604              		.loc 1 1636 0
 2605 0194 384B     		ldr	r3, .L245
 2606 0196 1B79     		ldrb	r3, [r3, #4]
 2607 0198 DAB2     		uxtb	r2, r3
 2608 019a 3C4B     		ldr	r3, .L245+20
 2609 019c DB78     		ldrb	r3, [r3, #3]
 2610 019e DBB2     		uxtb	r3, r3
 2611 01a0 9A42     		cmp	r2, r3
 2612 01a2 0FD1     		bne	.L190
1637:Generated_Source\PSoC5/RTC.c ****             {
1638:Generated_Source\PSoC5/RTC.c ****                 if(RTC_currentTimeDate.Hour > RTC_dstTimeDateStart.Hour)
 2613              		.loc 1 1638 0
 2614 01a4 344B     		ldr	r3, .L245
 2615 01a6 9B78     		ldrb	r3, [r3, #2]
 2616 01a8 DAB2     		uxtb	r2, r3
 2617 01aa 384B     		ldr	r3, .L245+20
 2618 01ac 1B78     		ldrb	r3, [r3]
 2619 01ae DBB2     		uxtb	r3, r3
 2620 01b0 9A42     		cmp	r2, r3
ARM GAS  C:\Users\Admin\AppData\Local\Temp\cc4n2E7w.s 			page 76


 2621 01b2 07D9     		bls	.L190
1639:Generated_Source\PSoC5/RTC.c ****                 {
1640:Generated_Source\PSoC5/RTC.c ****                     RTC_statusDateTime |= RTC_STATUS_DST;
 2622              		.loc 1 1640 0
 2623 01b4 324B     		ldr	r3, .L245+8
 2624 01b6 1B78     		ldrb	r3, [r3]
 2625 01b8 DBB2     		uxtb	r3, r3
 2626 01ba 43F00103 		orr	r3, r3, #1
 2627 01be DAB2     		uxtb	r2, r3
 2628 01c0 2F4B     		ldr	r3, .L245+8
 2629 01c2 1A70     		strb	r2, [r3]
 2630              	.L190:
1641:Generated_Source\PSoC5/RTC.c ****                 }
1642:Generated_Source\PSoC5/RTC.c ****             }
1643:Generated_Source\PSoC5/RTC.c ****             else
1644:Generated_Source\PSoC5/RTC.c ****             {
1645:Generated_Source\PSoC5/RTC.c ****                 /* Do nothing if current day of month is less than DST stop day of month */
1646:Generated_Source\PSoC5/RTC.c ****             }
1647:Generated_Source\PSoC5/RTC.c ****         }
1648:Generated_Source\PSoC5/RTC.c ****         else
1649:Generated_Source\PSoC5/RTC.c ****         {
1650:Generated_Source\PSoC5/RTC.c ****             /* Do nothing if current month is before than DST stop month */
1651:Generated_Source\PSoC5/RTC.c ****         }
1652:Generated_Source\PSoC5/RTC.c **** 
1653:Generated_Source\PSoC5/RTC.c ****         /* Clears DST status respect to the DST start date and time */
1654:Generated_Source\PSoC5/RTC.c ****         if(RTC_currentTimeDate.Month > RTC_dstTimeDateStop.Month)
 2631              		.loc 1 1654 0
 2632 01c4 2C4B     		ldr	r3, .L245
 2633 01c6 1B7A     		ldrb	r3, [r3, #8]
 2634 01c8 DAB2     		uxtb	r2, r3
 2635 01ca 314B     		ldr	r3, .L245+24
 2636 01cc 1B79     		ldrb	r3, [r3, #4]
 2637 01ce DBB2     		uxtb	r3, r3
 2638 01d0 9A42     		cmp	r2, r3
 2639 01d2 08D9     		bls	.L193
1655:Generated_Source\PSoC5/RTC.c ****         {
1656:Generated_Source\PSoC5/RTC.c ****             RTC_statusDateTime &= (uint8)(~RTC_STATUS_DST);
 2640              		.loc 1 1656 0
 2641 01d4 2A4B     		ldr	r3, .L245+8
 2642 01d6 1B78     		ldrb	r3, [r3]
 2643 01d8 DBB2     		uxtb	r3, r3
 2644 01da 23F00103 		bic	r3, r3, #1
 2645 01de DAB2     		uxtb	r2, r3
 2646 01e0 274B     		ldr	r3, .L245+8
 2647 01e2 1A70     		strb	r2, [r3]
 2648 01e4 30E0     		b	.L194
 2649              	.L193:
1657:Generated_Source\PSoC5/RTC.c ****         }
1658:Generated_Source\PSoC5/RTC.c ****         else if(RTC_currentTimeDate.Month == RTC_dstTimeDateStop.Month)
 2650              		.loc 1 1658 0
 2651 01e6 244B     		ldr	r3, .L245
 2652 01e8 1B7A     		ldrb	r3, [r3, #8]
 2653 01ea DAB2     		uxtb	r2, r3
 2654 01ec 284B     		ldr	r3, .L245+24
 2655 01ee 1B79     		ldrb	r3, [r3, #4]
 2656 01f0 DBB2     		uxtb	r3, r3
 2657 01f2 9A42     		cmp	r2, r3
ARM GAS  C:\Users\Admin\AppData\Local\Temp\cc4n2E7w.s 			page 77


 2658 01f4 28D1     		bne	.L194
1659:Generated_Source\PSoC5/RTC.c ****         {
1660:Generated_Source\PSoC5/RTC.c ****             if(RTC_currentTimeDate.DayOfMonth > RTC_dstTimeDateStop.DayOfMonth)
 2659              		.loc 1 1660 0
 2660 01f6 204B     		ldr	r3, .L245
 2661 01f8 1B79     		ldrb	r3, [r3, #4]
 2662 01fa DAB2     		uxtb	r2, r3
 2663 01fc 244B     		ldr	r3, .L245+24
 2664 01fe DB78     		ldrb	r3, [r3, #3]
 2665 0200 DBB2     		uxtb	r3, r3
 2666 0202 9A42     		cmp	r2, r3
 2667 0204 08D9     		bls	.L195
1661:Generated_Source\PSoC5/RTC.c ****             {
1662:Generated_Source\PSoC5/RTC.c ****                 RTC_statusDateTime &= (uint8)(~RTC_STATUS_DST);
 2668              		.loc 1 1662 0
 2669 0206 1E4B     		ldr	r3, .L245+8
 2670 0208 1B78     		ldrb	r3, [r3]
 2671 020a DBB2     		uxtb	r3, r3
 2672 020c 23F00103 		bic	r3, r3, #1
 2673 0210 DAB2     		uxtb	r2, r3
 2674 0212 1B4B     		ldr	r3, .L245+8
 2675 0214 1A70     		strb	r2, [r3]
 2676 0216 17E0     		b	.L194
 2677              	.L195:
1663:Generated_Source\PSoC5/RTC.c ****             }
1664:Generated_Source\PSoC5/RTC.c ****             else if(RTC_currentTimeDate.DayOfMonth == RTC_dstTimeDateStop.DayOfMonth)
 2678              		.loc 1 1664 0
 2679 0218 174B     		ldr	r3, .L245
 2680 021a 1B79     		ldrb	r3, [r3, #4]
 2681 021c DAB2     		uxtb	r2, r3
 2682 021e 1C4B     		ldr	r3, .L245+24
 2683 0220 DB78     		ldrb	r3, [r3, #3]
 2684 0222 DBB2     		uxtb	r3, r3
 2685 0224 9A42     		cmp	r2, r3
 2686 0226 0FD1     		bne	.L194
1665:Generated_Source\PSoC5/RTC.c ****             {
1666:Generated_Source\PSoC5/RTC.c ****                 if(RTC_currentTimeDate.Hour > RTC_dstTimeDateStop.Hour)
 2687              		.loc 1 1666 0
 2688 0228 134B     		ldr	r3, .L245
 2689 022a 9B78     		ldrb	r3, [r3, #2]
 2690 022c DAB2     		uxtb	r2, r3
 2691 022e 184B     		ldr	r3, .L245+24
 2692 0230 1B78     		ldrb	r3, [r3]
 2693 0232 DBB2     		uxtb	r3, r3
 2694 0234 9A42     		cmp	r2, r3
 2695 0236 07D9     		bls	.L194
1667:Generated_Source\PSoC5/RTC.c ****                 {
1668:Generated_Source\PSoC5/RTC.c ****                     RTC_statusDateTime &= (uint8)(~RTC_STATUS_DST);
 2696              		.loc 1 1668 0
 2697 0238 114B     		ldr	r3, .L245+8
 2698 023a 1B78     		ldrb	r3, [r3]
 2699 023c DBB2     		uxtb	r3, r3
 2700 023e 23F00103 		bic	r3, r3, #1
 2701 0242 DAB2     		uxtb	r2, r3
 2702 0244 0E4B     		ldr	r3, .L245+8
 2703 0246 1A70     		strb	r2, [r3]
 2704              	.L194:
ARM GAS  C:\Users\Admin\AppData\Local\Temp\cc4n2E7w.s 			page 78


1669:Generated_Source\PSoC5/RTC.c ****                 }
1670:Generated_Source\PSoC5/RTC.c ****             }
1671:Generated_Source\PSoC5/RTC.c ****             else
1672:Generated_Source\PSoC5/RTC.c ****             {
1673:Generated_Source\PSoC5/RTC.c ****                 /* Do nothing if current day of month is less than DST stop day of month */
1674:Generated_Source\PSoC5/RTC.c ****             }
1675:Generated_Source\PSoC5/RTC.c ****         }
1676:Generated_Source\PSoC5/RTC.c ****         else
1677:Generated_Source\PSoC5/RTC.c ****         {
1678:Generated_Source\PSoC5/RTC.c ****             /* Do nothing if current month is before than DST stop month */
1679:Generated_Source\PSoC5/RTC.c ****         }
1680:Generated_Source\PSoC5/RTC.c **** 
1681:Generated_Source\PSoC5/RTC.c ****         /* Clear DST start/stop statuses */
1682:Generated_Source\PSoC5/RTC.c ****         RTC_dstStartStatus = 0u;
 2705              		.loc 1 1682 0
 2706 0248 124B     		ldr	r3, .L245+28
 2707 024a 0022     		movs	r2, #0
 2708 024c 1A70     		strb	r2, [r3]
1683:Generated_Source\PSoC5/RTC.c ****         RTC_dstStopStatus = 0u;
 2709              		.loc 1 1683 0
 2710 024e 124B     		ldr	r3, .L245+32
 2711 0250 0022     		movs	r2, #0
 2712 0252 1A70     		strb	r2, [r3]
1684:Generated_Source\PSoC5/RTC.c **** 
1685:Generated_Source\PSoC5/RTC.c ****         /* Sets DST stop status month flag if DST stop month is equal to the
1686:Generated_Source\PSoC5/RTC.c ****         * current month, otherwise clears that flag.
1687:Generated_Source\PSoC5/RTC.c ****         */
1688:Generated_Source\PSoC5/RTC.c ****         if(RTC_dstTimeDateStop.Month == RTC_currentTimeDate.Month)
 2713              		.loc 1 1688 0
 2714 0254 0E4B     		ldr	r3, .L245+24
 2715 0256 1B79     		ldrb	r3, [r3, #4]
 2716 0258 DAB2     		uxtb	r2, r3
 2717 025a 074B     		ldr	r3, .L245
 2718 025c 1B7A     		ldrb	r3, [r3, #8]
 2719 025e DBB2     		uxtb	r3, r3
 2720 0260 9A42     		cmp	r2, r3
 2721 0262 1BD1     		bne	.L197
1689:Generated_Source\PSoC5/RTC.c ****         {
1690:Generated_Source\PSoC5/RTC.c ****             RTC_dstStopStatus |= RTC_DST_MONTH;
 2722              		.loc 1 1690 0
 2723 0264 0C4B     		ldr	r3, .L245+32
 2724 0266 1B78     		ldrb	r3, [r3]
 2725 0268 DBB2     		uxtb	r3, r3
 2726 026a 43F00403 		orr	r3, r3, #4
 2727 026e DAB2     		uxtb	r2, r3
 2728 0270 094B     		ldr	r3, .L245+32
 2729 0272 1A70     		strb	r2, [r3]
 2730 0274 1AE0     		b	.L198
 2731              	.L246:
 2732 0276 00BF     		.align	2
 2733              	.L245:
 2734 0278 00000000 		.word	RTC_currentTimeDate
 2735 027c 1F85EB51 		.word	1374389535
 2736 0280 00000000 		.word	RTC_statusDateTime
 2737 0284 00000000 		.word	RTC_daysInMonths
 2738 0288 00000000 		.word	RTC_dstModeType
 2739 028c 00000000 		.word	RTC_dstTimeDateStart
ARM GAS  C:\Users\Admin\AppData\Local\Temp\cc4n2E7w.s 			page 79


 2740 0290 00000000 		.word	RTC_dstTimeDateStop
 2741 0294 00000000 		.word	RTC_dstStartStatus
 2742 0298 00000000 		.word	RTC_dstStopStatus
 2743              	.L197:
1691:Generated_Source\PSoC5/RTC.c ****         }
1692:Generated_Source\PSoC5/RTC.c ****         else
1693:Generated_Source\PSoC5/RTC.c ****         {
1694:Generated_Source\PSoC5/RTC.c ****             RTC_dstStopStatus &= (uint8)(~RTC_DST_MONTH);
 2744              		.loc 1 1694 0
 2745 029c 3E4B     		ldr	r3, .L247
 2746 029e 1B78     		ldrb	r3, [r3]
 2747 02a0 DBB2     		uxtb	r3, r3
 2748 02a2 23F00403 		bic	r3, r3, #4
 2749 02a6 DAB2     		uxtb	r2, r3
 2750 02a8 3B4B     		ldr	r3, .L247
 2751 02aa 1A70     		strb	r2, [r3]
 2752              	.L198:
1695:Generated_Source\PSoC5/RTC.c ****         }
1696:Generated_Source\PSoC5/RTC.c **** 
1697:Generated_Source\PSoC5/RTC.c ****         /* Sets DST start status month flag if DST start month is equal to the
1698:Generated_Source\PSoC5/RTC.c ****         * current month, otherwise clears that flag.
1699:Generated_Source\PSoC5/RTC.c ****         */
1700:Generated_Source\PSoC5/RTC.c ****         if(RTC_dstTimeDateStart.Month == RTC_currentTimeDate.Month)
 2753              		.loc 1 1700 0
 2754 02ac 3B4B     		ldr	r3, .L247+4
 2755 02ae 1B79     		ldrb	r3, [r3, #4]
 2756 02b0 DAB2     		uxtb	r2, r3
 2757 02b2 3B4B     		ldr	r3, .L247+8
 2758 02b4 1B7A     		ldrb	r3, [r3, #8]
 2759 02b6 DBB2     		uxtb	r3, r3
 2760 02b8 9A42     		cmp	r2, r3
 2761 02ba 08D1     		bne	.L199
1701:Generated_Source\PSoC5/RTC.c ****         {
1702:Generated_Source\PSoC5/RTC.c ****             RTC_dstStartStatus |= RTC_DST_MONTH;
 2762              		.loc 1 1702 0
 2763 02bc 394B     		ldr	r3, .L247+12
 2764 02be 1B78     		ldrb	r3, [r3]
 2765 02c0 DBB2     		uxtb	r3, r3
 2766 02c2 43F00403 		orr	r3, r3, #4
 2767 02c6 DAB2     		uxtb	r2, r3
 2768 02c8 364B     		ldr	r3, .L247+12
 2769 02ca 1A70     		strb	r2, [r3]
 2770 02cc 07E0     		b	.L200
 2771              	.L199:
1703:Generated_Source\PSoC5/RTC.c ****         }
1704:Generated_Source\PSoC5/RTC.c ****         else
1705:Generated_Source\PSoC5/RTC.c ****         {
1706:Generated_Source\PSoC5/RTC.c ****             RTC_dstStartStatus &= (uint8)(~RTC_DST_MONTH);
 2772              		.loc 1 1706 0
 2773 02ce 354B     		ldr	r3, .L247+12
 2774 02d0 1B78     		ldrb	r3, [r3]
 2775 02d2 DBB2     		uxtb	r3, r3
 2776 02d4 23F00403 		bic	r3, r3, #4
 2777 02d8 DAB2     		uxtb	r2, r3
 2778 02da 324B     		ldr	r3, .L247+12
 2779 02dc 1A70     		strb	r2, [r3]
 2780              	.L200:
ARM GAS  C:\Users\Admin\AppData\Local\Temp\cc4n2E7w.s 			page 80


1707:Generated_Source\PSoC5/RTC.c ****         }
1708:Generated_Source\PSoC5/RTC.c **** 
1709:Generated_Source\PSoC5/RTC.c ****         /* Sets DST stop status day of month flag if DST stop day of month is
1710:Generated_Source\PSoC5/RTC.c ****         * equal to the current day of month, otherwise clears that flag.
1711:Generated_Source\PSoC5/RTC.c ****         */
1712:Generated_Source\PSoC5/RTC.c ****         if(RTC_dstTimeDateStop.DayOfMonth == RTC_currentTimeDate.DayOfMonth)
 2781              		.loc 1 1712 0
 2782 02de 324B     		ldr	r3, .L247+16
 2783 02e0 DB78     		ldrb	r3, [r3, #3]
 2784 02e2 DAB2     		uxtb	r2, r3
 2785 02e4 2E4B     		ldr	r3, .L247+8
 2786 02e6 1B79     		ldrb	r3, [r3, #4]
 2787 02e8 DBB2     		uxtb	r3, r3
 2788 02ea 9A42     		cmp	r2, r3
 2789 02ec 08D1     		bne	.L201
1713:Generated_Source\PSoC5/RTC.c ****         {
1714:Generated_Source\PSoC5/RTC.c ****             RTC_dstStopStatus |= RTC_DST_DAYOFMONTH;
 2790              		.loc 1 1714 0
 2791 02ee 2A4B     		ldr	r3, .L247
 2792 02f0 1B78     		ldrb	r3, [r3]
 2793 02f2 DBB2     		uxtb	r3, r3
 2794 02f4 43F00203 		orr	r3, r3, #2
 2795 02f8 DAB2     		uxtb	r2, r3
 2796 02fa 274B     		ldr	r3, .L247
 2797 02fc 1A70     		strb	r2, [r3]
 2798 02fe 07E0     		b	.L202
 2799              	.L201:
1715:Generated_Source\PSoC5/RTC.c ****         }
1716:Generated_Source\PSoC5/RTC.c ****         else
1717:Generated_Source\PSoC5/RTC.c ****         {
1718:Generated_Source\PSoC5/RTC.c ****             RTC_dstStopStatus &= (uint8)(~RTC_DST_DAYOFMONTH);
 2800              		.loc 1 1718 0
 2801 0300 254B     		ldr	r3, .L247
 2802 0302 1B78     		ldrb	r3, [r3]
 2803 0304 DBB2     		uxtb	r3, r3
 2804 0306 23F00203 		bic	r3, r3, #2
 2805 030a DAB2     		uxtb	r2, r3
 2806 030c 224B     		ldr	r3, .L247
 2807 030e 1A70     		strb	r2, [r3]
 2808              	.L202:
1719:Generated_Source\PSoC5/RTC.c ****         }
1720:Generated_Source\PSoC5/RTC.c **** 
1721:Generated_Source\PSoC5/RTC.c ****         /* Sets DST start status day of month flag if DST start day of month is
1722:Generated_Source\PSoC5/RTC.c ****         * equal to the current day of month, otherwise clears that flag.
1723:Generated_Source\PSoC5/RTC.c ****         */
1724:Generated_Source\PSoC5/RTC.c ****         if(RTC_dstTimeDateStart.DayOfMonth == RTC_currentTimeDate.DayOfMonth)
 2809              		.loc 1 1724 0
 2810 0310 224B     		ldr	r3, .L247+4
 2811 0312 DB78     		ldrb	r3, [r3, #3]
 2812 0314 DAB2     		uxtb	r2, r3
 2813 0316 224B     		ldr	r3, .L247+8
 2814 0318 1B79     		ldrb	r3, [r3, #4]
 2815 031a DBB2     		uxtb	r3, r3
 2816 031c 9A42     		cmp	r2, r3
 2817 031e 08D1     		bne	.L203
1725:Generated_Source\PSoC5/RTC.c ****         {
1726:Generated_Source\PSoC5/RTC.c ****             RTC_dstStartStatus |= RTC_DST_DAYOFMONTH;
ARM GAS  C:\Users\Admin\AppData\Local\Temp\cc4n2E7w.s 			page 81


 2818              		.loc 1 1726 0
 2819 0320 204B     		ldr	r3, .L247+12
 2820 0322 1B78     		ldrb	r3, [r3]
 2821 0324 DBB2     		uxtb	r3, r3
 2822 0326 43F00203 		orr	r3, r3, #2
 2823 032a DAB2     		uxtb	r2, r3
 2824 032c 1D4B     		ldr	r3, .L247+12
 2825 032e 1A70     		strb	r2, [r3]
 2826 0330 07E0     		b	.L204
 2827              	.L203:
1727:Generated_Source\PSoC5/RTC.c ****         }
1728:Generated_Source\PSoC5/RTC.c ****         else
1729:Generated_Source\PSoC5/RTC.c ****         {
1730:Generated_Source\PSoC5/RTC.c ****             RTC_dstStartStatus &= (uint8)(~RTC_DST_DAYOFMONTH);
 2828              		.loc 1 1730 0
 2829 0332 1C4B     		ldr	r3, .L247+12
 2830 0334 1B78     		ldrb	r3, [r3]
 2831 0336 DBB2     		uxtb	r3, r3
 2832 0338 23F00203 		bic	r3, r3, #2
 2833 033c DAB2     		uxtb	r2, r3
 2834 033e 194B     		ldr	r3, .L247+12
 2835 0340 1A70     		strb	r2, [r3]
 2836              	.L204:
1731:Generated_Source\PSoC5/RTC.c ****         }
1732:Generated_Source\PSoC5/RTC.c **** 
1733:Generated_Source\PSoC5/RTC.c ****         /* Sets DST stop status hour flag if DST stop hour is equal to the
1734:Generated_Source\PSoC5/RTC.c ****         * current hour, otherwise clears that flag.
1735:Generated_Source\PSoC5/RTC.c ****         */
1736:Generated_Source\PSoC5/RTC.c ****         if(RTC_dstTimeDateStop.Hour == RTC_currentTimeDate.Hour)
 2837              		.loc 1 1736 0
 2838 0342 194B     		ldr	r3, .L247+16
 2839 0344 1B78     		ldrb	r3, [r3]
 2840 0346 DAB2     		uxtb	r2, r3
 2841 0348 154B     		ldr	r3, .L247+8
 2842 034a 9B78     		ldrb	r3, [r3, #2]
 2843 034c DBB2     		uxtb	r3, r3
 2844 034e 9A42     		cmp	r2, r3
 2845 0350 08D1     		bne	.L205
1737:Generated_Source\PSoC5/RTC.c ****         {
1738:Generated_Source\PSoC5/RTC.c ****             RTC_dstStopStatus |= RTC_DST_HOUR;
 2846              		.loc 1 1738 0
 2847 0352 114B     		ldr	r3, .L247
 2848 0354 1B78     		ldrb	r3, [r3]
 2849 0356 DBB2     		uxtb	r3, r3
 2850 0358 43F00103 		orr	r3, r3, #1
 2851 035c DAB2     		uxtb	r2, r3
 2852 035e 0E4B     		ldr	r3, .L247
 2853 0360 1A70     		strb	r2, [r3]
 2854 0362 07E0     		b	.L206
 2855              	.L205:
1739:Generated_Source\PSoC5/RTC.c ****         }
1740:Generated_Source\PSoC5/RTC.c ****         else
1741:Generated_Source\PSoC5/RTC.c ****         {
1742:Generated_Source\PSoC5/RTC.c ****             RTC_dstStopStatus &= (uint8)(~RTC_DST_HOUR);
 2856              		.loc 1 1742 0
 2857 0364 0C4B     		ldr	r3, .L247
 2858 0366 1B78     		ldrb	r3, [r3]
ARM GAS  C:\Users\Admin\AppData\Local\Temp\cc4n2E7w.s 			page 82


 2859 0368 DBB2     		uxtb	r3, r3
 2860 036a 23F00103 		bic	r3, r3, #1
 2861 036e DAB2     		uxtb	r2, r3
 2862 0370 094B     		ldr	r3, .L247
 2863 0372 1A70     		strb	r2, [r3]
 2864              	.L206:
1743:Generated_Source\PSoC5/RTC.c ****         }
1744:Generated_Source\PSoC5/RTC.c **** 
1745:Generated_Source\PSoC5/RTC.c ****         /* Sets DST start status hour flag if DST start hour is equal to the
1746:Generated_Source\PSoC5/RTC.c ****         * current hour, otherwise clears that flag.
1747:Generated_Source\PSoC5/RTC.c ****         */
1748:Generated_Source\PSoC5/RTC.c ****         if(RTC_dstTimeDateStart.Hour == RTC_currentTimeDate.Hour)
 2865              		.loc 1 1748 0
 2866 0374 094B     		ldr	r3, .L247+4
 2867 0376 1B78     		ldrb	r3, [r3]
 2868 0378 DAB2     		uxtb	r2, r3
 2869 037a 094B     		ldr	r3, .L247+8
 2870 037c 9B78     		ldrb	r3, [r3, #2]
 2871 037e DBB2     		uxtb	r3, r3
 2872 0380 9A42     		cmp	r2, r3
 2873 0382 13D1     		bne	.L207
1749:Generated_Source\PSoC5/RTC.c ****         {
1750:Generated_Source\PSoC5/RTC.c ****             RTC_dstStartStatus |= RTC_DST_HOUR;
 2874              		.loc 1 1750 0
 2875 0384 074B     		ldr	r3, .L247+12
 2876 0386 1B78     		ldrb	r3, [r3]
 2877 0388 DBB2     		uxtb	r3, r3
 2878 038a 43F00103 		orr	r3, r3, #1
 2879 038e DAB2     		uxtb	r2, r3
 2880 0390 044B     		ldr	r3, .L247+12
 2881 0392 1A70     		strb	r2, [r3]
 2882 0394 12E0     		b	.L208
 2883              	.L248:
 2884 0396 00BF     		.align	2
 2885              	.L247:
 2886 0398 00000000 		.word	RTC_dstStopStatus
 2887 039c 00000000 		.word	RTC_dstTimeDateStart
 2888 03a0 00000000 		.word	RTC_currentTimeDate
 2889 03a4 00000000 		.word	RTC_dstStartStatus
 2890 03a8 00000000 		.word	RTC_dstTimeDateStop
 2891              	.L207:
1751:Generated_Source\PSoC5/RTC.c ****         }
1752:Generated_Source\PSoC5/RTC.c ****         else
1753:Generated_Source\PSoC5/RTC.c ****         {
1754:Generated_Source\PSoC5/RTC.c ****             RTC_dstStartStatus &= (uint8)(~RTC_DST_HOUR);
 2892              		.loc 1 1754 0
 2893 03ac 7C4B     		ldr	r3, .L249
 2894 03ae 1B78     		ldrb	r3, [r3]
 2895 03b0 DBB2     		uxtb	r3, r3
 2896 03b2 23F00103 		bic	r3, r3, #1
 2897 03b6 DAB2     		uxtb	r2, r3
 2898 03b8 794B     		ldr	r3, .L249
 2899 03ba 1A70     		strb	r2, [r3]
 2900              	.L208:
1755:Generated_Source\PSoC5/RTC.c ****         }
1756:Generated_Source\PSoC5/RTC.c **** 
1757:Generated_Source\PSoC5/RTC.c ****         /* DST Enable ? */
ARM GAS  C:\Users\Admin\AppData\Local\Temp\cc4n2E7w.s 			page 83


1758:Generated_Source\PSoC5/RTC.c ****         if(0u != RTC_IS_BIT_SET(RTC_dstModeType, RTC_DST_ENABLE))
 2901              		.loc 1 1758 0
 2902 03bc 794B     		ldr	r3, .L249+4
 2903 03be 1B78     		ldrb	r3, [r3]
 2904 03c0 DBB2     		uxtb	r3, r3
 2905 03c2 03F00103 		and	r3, r3, #1
 2906 03c6 002B     		cmp	r3, #0
 2907 03c8 00F0D081 		beq	.L209
1759:Generated_Source\PSoC5/RTC.c ****         {
1760:Generated_Source\PSoC5/RTC.c ****             if(0u != RTC_IS_BIT_SET(RTC_statusDateTime, RTC_STATUS_DST))
 2908              		.loc 1 1760 0
 2909 03cc 764B     		ldr	r3, .L249+8
 2910 03ce 1B78     		ldrb	r3, [r3]
 2911 03d0 DBB2     		uxtb	r3, r3
 2912 03d2 03F00103 		and	r3, r3, #1
 2913 03d6 002B     		cmp	r3, #0
 2914 03d8 00F0F480 		beq	.L210
1761:Generated_Source\PSoC5/RTC.c ****             {
1762:Generated_Source\PSoC5/RTC.c ****                 if(0u != RTC_IS_BIT_SET(RTC_dstStartStatus,
 2915              		.loc 1 1762 0
 2916 03dc 704B     		ldr	r3, .L249
 2917 03de 1B78     		ldrb	r3, [r3]
 2918 03e0 DBB2     		uxtb	r3, r3
 2919 03e2 03F00703 		and	r3, r3, #7
 2920 03e6 072B     		cmp	r3, #7
 2921 03e8 40F0C081 		bne	.L209
1763:Generated_Source\PSoC5/RTC.c ****                         (RTC_DST_HOUR | RTC_DST_DAYOFMONTH | RTC_DST_MONTH)))
1764:Generated_Source\PSoC5/RTC.c ****                 {
1765:Generated_Source\PSoC5/RTC.c ****                     /* Subtract current minutes value with minutes value, what
1766:Generated_Source\PSoC5/RTC.c ****                     *  are out of full hour in DST offset.
1767:Generated_Source\PSoC5/RTC.c ****                     */
1768:Generated_Source\PSoC5/RTC.c ****                     RTC_currentTimeDate.Min -= RTC_dstOffsetMin %
 2922              		.loc 1 1768 0
 2923 03ec 6F4B     		ldr	r3, .L249+12
 2924 03ee 1B78     		ldrb	r3, [r3]
 2925 03f0 DAB2     		uxtb	r2, r3
 2926 03f2 6F4B     		ldr	r3, .L249+16
 2927 03f4 A3FB0213 		umull	r1, r3, r3, r2
 2928 03f8 5909     		lsrs	r1, r3, #5
 2929 03fa 0B46     		mov	r3, r1
 2930 03fc 1B01     		lsls	r3, r3, #4
 2931 03fe 5B1A     		subs	r3, r3, r1
 2932 0400 9B00     		lsls	r3, r3, #2
 2933 0402 D31A     		subs	r3, r2, r3
 2934 0404 DBB2     		uxtb	r3, r3
 2935 0406 1946     		mov	r1, r3
 2936 0408 6A4B     		ldr	r3, .L249+20
 2937 040a 5B78     		ldrb	r3, [r3, #1]
 2938 040c DAB2     		uxtb	r2, r3
 2939 040e CBB2     		uxtb	r3, r1
 2940 0410 D31A     		subs	r3, r2, r3
 2941 0412 DAB2     		uxtb	r2, r3
 2942 0414 674B     		ldr	r3, .L249+20
 2943 0416 5A70     		strb	r2, [r3, #1]
1769:Generated_Source\PSoC5/RTC.c ****                                                             (RTC_HOUR_ELAPSED + 1u);
1770:Generated_Source\PSoC5/RTC.c **** 
1771:Generated_Source\PSoC5/RTC.c ****                     /* If current minutes value is greater than number of
ARM GAS  C:\Users\Admin\AppData\Local\Temp\cc4n2E7w.s 			page 84


1772:Generated_Source\PSoC5/RTC.c ****                     * minutes in hour - could be only if hour's value is negative
1773:Generated_Source\PSoC5/RTC.c ****                     */
1774:Generated_Source\PSoC5/RTC.c ****                     if(RTC_currentTimeDate.Min > RTC_HOUR_ELAPSED)
 2944              		.loc 1 1774 0
 2945 0418 664B     		ldr	r3, .L249+20
 2946 041a 5B78     		ldrb	r3, [r3, #1]
 2947 041c DBB2     		uxtb	r3, r3
 2948 041e 3B2B     		cmp	r3, #59
 2949 0420 0DD9     		bls	.L212
1775:Generated_Source\PSoC5/RTC.c ****                     {
1776:Generated_Source\PSoC5/RTC.c ****                         /* Adjust current minutes value. Convert to the positive. */
1777:Generated_Source\PSoC5/RTC.c ****                         RTC_currentTimeDate.Min = RTC_HOUR_ELAPSED -
1778:Generated_Source\PSoC5/RTC.c ****                                                                ((uint8)(~RTC_currentTimeDate.Min));
 2950              		.loc 1 1778 0
 2951 0422 644B     		ldr	r3, .L249+20
 2952 0424 5B78     		ldrb	r3, [r3, #1]
 2953 0426 DBB2     		uxtb	r3, r3
1777:Generated_Source\PSoC5/RTC.c ****                                                                ((uint8)(~RTC_currentTimeDate.Min));
 2954              		.loc 1 1777 0
 2955 0428 3C33     		adds	r3, r3, #60
 2956 042a DAB2     		uxtb	r2, r3
 2957 042c 614B     		ldr	r3, .L249+20
 2958 042e 5A70     		strb	r2, [r3, #1]
1779:Generated_Source\PSoC5/RTC.c **** 
1780:Generated_Source\PSoC5/RTC.c ****                         /* Decrement current hours value. */
1781:Generated_Source\PSoC5/RTC.c ****                         RTC_currentTimeDate.Hour--;
 2959              		.loc 1 1781 0
 2960 0430 604B     		ldr	r3, .L249+20
 2961 0432 9B78     		ldrb	r3, [r3, #2]
 2962 0434 DBB2     		uxtb	r3, r3
 2963 0436 013B     		subs	r3, r3, #1
 2964 0438 DAB2     		uxtb	r2, r3
 2965 043a 5E4B     		ldr	r3, .L249+20
 2966 043c 9A70     		strb	r2, [r3, #2]
 2967              	.L212:
1782:Generated_Source\PSoC5/RTC.c ****                     }
1783:Generated_Source\PSoC5/RTC.c **** 
1784:Generated_Source\PSoC5/RTC.c ****                     /* Subtract current hours value with hours value, what
1785:Generated_Source\PSoC5/RTC.c ****                     *  are full part of hours in DST offset.
1786:Generated_Source\PSoC5/RTC.c ****                     */
1787:Generated_Source\PSoC5/RTC.c ****                     RTC_currentTimeDate.Hour -= RTC_dstOffsetMin /
 2968              		.loc 1 1787 0
 2969 043e 5B4B     		ldr	r3, .L249+12
 2970 0440 1B78     		ldrb	r3, [r3]
 2971 0442 DBB2     		uxtb	r3, r3
 2972 0444 5A4A     		ldr	r2, .L249+16
 2973 0446 A2FB0323 		umull	r2, r3, r2, r3
 2974 044a 5B09     		lsrs	r3, r3, #5
 2975 044c DBB2     		uxtb	r3, r3
 2976 044e 1946     		mov	r1, r3
 2977 0450 584B     		ldr	r3, .L249+20
 2978 0452 9B78     		ldrb	r3, [r3, #2]
 2979 0454 DAB2     		uxtb	r2, r3
 2980 0456 CBB2     		uxtb	r3, r1
 2981 0458 D31A     		subs	r3, r2, r3
 2982 045a DAB2     		uxtb	r2, r3
 2983 045c 554B     		ldr	r3, .L249+20
ARM GAS  C:\Users\Admin\AppData\Local\Temp\cc4n2E7w.s 			page 85


 2984 045e 9A70     		strb	r2, [r3, #2]
1788:Generated_Source\PSoC5/RTC.c ****                                                              (RTC_HOUR_ELAPSED + 1u);
1789:Generated_Source\PSoC5/RTC.c **** 
1790:Generated_Source\PSoC5/RTC.c ****                     /* Check if current hour's value is negative */
1791:Generated_Source\PSoC5/RTC.c ****                     if(RTC_currentTimeDate.Hour > RTC_DAY_ELAPSED)
 2985              		.loc 1 1791 0
 2986 0460 544B     		ldr	r3, .L249+20
 2987 0462 9B78     		ldrb	r3, [r3, #2]
 2988 0464 DBB2     		uxtb	r3, r3
 2989 0466 172B     		cmp	r3, #23
 2990 0468 40F28E80 		bls	.L213
1792:Generated_Source\PSoC5/RTC.c ****                     {
1793:Generated_Source\PSoC5/RTC.c ****                         /* Adjust hour */
1794:Generated_Source\PSoC5/RTC.c ****                         RTC_currentTimeDate.Hour = RTC_DAY_ELAPSED -
1795:Generated_Source\PSoC5/RTC.c ****                                                                 ((uint8)(~RTC_currentTimeDate.Hour)
 2991              		.loc 1 1795 0
 2992 046c 514B     		ldr	r3, .L249+20
 2993 046e 9B78     		ldrb	r3, [r3, #2]
 2994 0470 DBB2     		uxtb	r3, r3
1794:Generated_Source\PSoC5/RTC.c ****                                                                 ((uint8)(~RTC_currentTimeDate.Hour)
 2995              		.loc 1 1794 0
 2996 0472 1833     		adds	r3, r3, #24
 2997 0474 DAB2     		uxtb	r2, r3
 2998 0476 4F4B     		ldr	r3, .L249+20
 2999 0478 9A70     		strb	r2, [r3, #2]
1796:Generated_Source\PSoC5/RTC.c **** 
1797:Generated_Source\PSoC5/RTC.c ****                         /* Decrement day of month, year and week */
1798:Generated_Source\PSoC5/RTC.c ****                         RTC_currentTimeDate.DayOfMonth--;
 3000              		.loc 1 1798 0
 3001 047a 4E4B     		ldr	r3, .L249+20
 3002 047c 1B79     		ldrb	r3, [r3, #4]
 3003 047e DBB2     		uxtb	r3, r3
 3004 0480 013B     		subs	r3, r3, #1
 3005 0482 DAB2     		uxtb	r2, r3
 3006 0484 4B4B     		ldr	r3, .L249+20
 3007 0486 1A71     		strb	r2, [r3, #4]
1799:Generated_Source\PSoC5/RTC.c ****                         RTC_currentTimeDate.DayOfYear--;
 3008              		.loc 1 1799 0
 3009 0488 4A4B     		ldr	r3, .L249+20
 3010 048a DB88     		ldrh	r3, [r3, #6]	@ movhi
 3011 048c 9BB2     		uxth	r3, r3
 3012 048e 013B     		subs	r3, r3, #1
 3013 0490 9AB2     		uxth	r2, r3
 3014 0492 484B     		ldr	r3, .L249+20
 3015 0494 DA80     		strh	r2, [r3, #6]	@ movhi
1800:Generated_Source\PSoC5/RTC.c ****                         RTC_currentTimeDate.DayOfWeek--;
 3016              		.loc 1 1800 0
 3017 0496 474B     		ldr	r3, .L249+20
 3018 0498 DB78     		ldrb	r3, [r3, #3]
 3019 049a DBB2     		uxtb	r3, r3
 3020 049c 013B     		subs	r3, r3, #1
 3021 049e DAB2     		uxtb	r2, r3
 3022 04a0 444B     		ldr	r3, .L249+20
 3023 04a2 DA70     		strb	r2, [r3, #3]
1801:Generated_Source\PSoC5/RTC.c **** 
1802:Generated_Source\PSoC5/RTC.c ****                         if(0u == RTC_currentTimeDate.DayOfWeek)
 3024              		.loc 1 1802 0
ARM GAS  C:\Users\Admin\AppData\Local\Temp\cc4n2E7w.s 			page 86


 3025 04a4 434B     		ldr	r3, .L249+20
 3026 04a6 DB78     		ldrb	r3, [r3, #3]
 3027 04a8 DBB2     		uxtb	r3, r3
 3028 04aa 002B     		cmp	r3, #0
 3029 04ac 02D1     		bne	.L214
1803:Generated_Source\PSoC5/RTC.c ****                         {
1804:Generated_Source\PSoC5/RTC.c ****                             RTC_currentTimeDate.DayOfWeek = RTC_DAYS_IN_WEEK;
 3030              		.loc 1 1804 0
 3031 04ae 414B     		ldr	r3, .L249+20
 3032 04b0 0722     		movs	r2, #7
 3033 04b2 DA70     		strb	r2, [r3, #3]
 3034              	.L214:
1805:Generated_Source\PSoC5/RTC.c ****                         }
1806:Generated_Source\PSoC5/RTC.c **** 
1807:Generated_Source\PSoC5/RTC.c ****                         if(0u == RTC_currentTimeDate.DayOfMonth)
 3035              		.loc 1 1807 0
 3036 04b4 3F4B     		ldr	r3, .L249+20
 3037 04b6 1B79     		ldrb	r3, [r3, #4]
 3038 04b8 DBB2     		uxtb	r3, r3
 3039 04ba 002B     		cmp	r3, #0
 3040 04bc 64D1     		bne	.L213
1808:Generated_Source\PSoC5/RTC.c ****                         {
1809:Generated_Source\PSoC5/RTC.c ****                             /* Decrement months value */
1810:Generated_Source\PSoC5/RTC.c ****                             RTC_currentTimeDate.Month--;
 3041              		.loc 1 1810 0
 3042 04be 3D4B     		ldr	r3, .L249+20
 3043 04c0 1B7A     		ldrb	r3, [r3, #8]
 3044 04c2 DBB2     		uxtb	r3, r3
 3045 04c4 013B     		subs	r3, r3, #1
 3046 04c6 DAB2     		uxtb	r2, r3
 3047 04c8 3A4B     		ldr	r3, .L249+20
 3048 04ca 1A72     		strb	r2, [r3, #8]
1811:Generated_Source\PSoC5/RTC.c **** 
1812:Generated_Source\PSoC5/RTC.c ****                             /* The current month is month before 1st one. */
1813:Generated_Source\PSoC5/RTC.c ****                             if(0u == RTC_currentTimeDate.Month)
 3049              		.loc 1 1813 0
 3050 04cc 394B     		ldr	r3, .L249+20
 3051 04ce 1B7A     		ldrb	r3, [r3, #8]
 3052 04d0 DBB2     		uxtb	r3, r3
 3053 04d2 002B     		cmp	r3, #0
 3054 04d4 50D1     		bne	.L215
1814:Generated_Source\PSoC5/RTC.c ****                             {
1815:Generated_Source\PSoC5/RTC.c ****                                 /* December is the month before January */
1816:Generated_Source\PSoC5/RTC.c ****                                 RTC_currentTimeDate.Month = RTC_DECEMBER;
 3055              		.loc 1 1816 0
 3056 04d6 374B     		ldr	r3, .L249+20
 3057 04d8 0C22     		movs	r2, #12
 3058 04da 1A72     		strb	r2, [r3, #8]
1817:Generated_Source\PSoC5/RTC.c ****                                 RTC_currentTimeDate.DayOfMonth =
1818:Generated_Source\PSoC5/RTC.c ****                                             RTC_daysInMonths[RTC_currentTimeDate.Month - 1u];
 3059              		.loc 1 1818 0
 3060 04dc 354B     		ldr	r3, .L249+20
 3061 04de 1B7A     		ldrb	r3, [r3, #8]
 3062 04e0 DBB2     		uxtb	r3, r3
 3063 04e2 013B     		subs	r3, r3, #1
 3064 04e4 344A     		ldr	r2, .L249+24
 3065 04e6 D25C     		ldrb	r2, [r2, r3]	@ zero_extendqisi2
ARM GAS  C:\Users\Admin\AppData\Local\Temp\cc4n2E7w.s 			page 87


1817:Generated_Source\PSoC5/RTC.c ****                                 RTC_currentTimeDate.DayOfMonth =
 3066              		.loc 1 1817 0
 3067 04e8 324B     		ldr	r3, .L249+20
 3068 04ea 1A71     		strb	r2, [r3, #4]
1819:Generated_Source\PSoC5/RTC.c **** 
1820:Generated_Source\PSoC5/RTC.c ****                                 /* Decrement years value */
1821:Generated_Source\PSoC5/RTC.c ****                                 RTC_currentTimeDate.Year--;
 3069              		.loc 1 1821 0
 3070 04ec 314B     		ldr	r3, .L249+20
 3071 04ee 5B89     		ldrh	r3, [r3, #10]	@ movhi
 3072 04f0 9BB2     		uxth	r3, r3
 3073 04f2 013B     		subs	r3, r3, #1
 3074 04f4 9AB2     		uxth	r2, r3
 3075 04f6 2F4B     		ldr	r3, .L249+20
 3076 04f8 5A81     		strh	r2, [r3, #10]	@ movhi
1822:Generated_Source\PSoC5/RTC.c ****                                 if(1u == RTC_LEAP_YEAR(RTC_currentTimeDate.Year))
 3077              		.loc 1 1822 0
 3078 04fa 2E4B     		ldr	r3, .L249+20
 3079 04fc 5B89     		ldrh	r3, [r3, #10]	@ movhi
 3080 04fe 9BB2     		uxth	r3, r3
 3081 0500 2E4A     		ldr	r2, .L249+28
 3082 0502 A2FB0312 		umull	r1, r2, r2, r3
 3083 0506 D209     		lsrs	r2, r2, #7
 3084 0508 4FF4C871 		mov	r1, #400
 3085 050c 01FB02F2 		mul	r2, r1, r2
 3086 0510 9B1A     		subs	r3, r3, r2
 3087 0512 9BB2     		uxth	r3, r3
 3088 0514 002B     		cmp	r3, #0
 3089 0516 15D0     		beq	.L216
 3090              		.loc 1 1822 0 is_stmt 0 discriminator 1
 3091 0518 264B     		ldr	r3, .L249+20
 3092 051a 5B89     		ldrh	r3, [r3, #10]	@ movhi
 3093 051c 9BB2     		uxth	r3, r3
 3094 051e 03F00303 		and	r3, r3, #3
 3095 0522 9BB2     		uxth	r3, r3
 3096 0524 002B     		cmp	r3, #0
 3097 0526 1AD1     		bne	.L217
 3098              		.loc 1 1822 0 discriminator 2
 3099 0528 224B     		ldr	r3, .L249+20
 3100 052a 5B89     		ldrh	r3, [r3, #10]	@ movhi
 3101 052c 9BB2     		uxth	r3, r3
 3102 052e 234A     		ldr	r2, .L249+28
 3103 0530 A2FB0312 		umull	r1, r2, r2, r3
 3104 0534 5209     		lsrs	r2, r2, #5
 3105 0536 6421     		movs	r1, #100
 3106 0538 01FB02F2 		mul	r2, r1, r2
 3107 053c 9B1A     		subs	r3, r3, r2
 3108 053e 9BB2     		uxth	r3, r3
 3109 0540 002B     		cmp	r3, #0
 3110 0542 0CD0     		beq	.L217
 3111              	.L216:
1823:Generated_Source\PSoC5/RTC.c ****                                 {
1824:Generated_Source\PSoC5/RTC.c ****                                     /* Set leap year status flag */
1825:Generated_Source\PSoC5/RTC.c ****                                     RTC_statusDateTime |= RTC_STATUS_LY;
 3112              		.loc 1 1825 0 is_stmt 1
 3113 0544 184B     		ldr	r3, .L249+8
 3114 0546 1B78     		ldrb	r3, [r3]
ARM GAS  C:\Users\Admin\AppData\Local\Temp\cc4n2E7w.s 			page 88


 3115 0548 DBB2     		uxtb	r3, r3
 3116 054a 43F00203 		orr	r3, r3, #2
 3117 054e DAB2     		uxtb	r2, r3
 3118 0550 154B     		ldr	r3, .L249+8
 3119 0552 1A70     		strb	r2, [r3]
1826:Generated_Source\PSoC5/RTC.c ****                                     RTC_currentTimeDate.DayOfYear = RTC_DAYS_IN_LEAP_YEAR;
 3120              		.loc 1 1826 0
 3121 0554 174B     		ldr	r3, .L249+20
