ARM GAS  C:\Users\Admin\AppData\Local\Temp\cc0dUITO.s 			page 1


   1              		.syntax unified
   2              		.cpu cortex-m3
   3              		.fpu softvfp
   4              		.eabi_attribute 20, 1
   5              		.eabi_attribute 21, 1
   6              		.eabi_attribute 23, 3
   7              		.eabi_attribute 24, 1
   8              		.eabi_attribute 25, 1
   9              		.eabi_attribute 26, 1
  10              		.eabi_attribute 30, 6
  11              		.eabi_attribute 34, 1
  12              		.eabi_attribute 18, 4
  13              		.thumb
  14              		.syntax unified
  15              		.file	"RTC_INT.c"
  16              		.text
  17              	.Ltext0:
  18              		.cfi_sections	.debug_frame
  19              		.bss
  20              	temp:
  21 0000 00       		.space	1
  22              		.section	.text.RTC_EverySecondHandler,"ax",%progbits
  23              		.align	2
  24              		.thumb
  25              		.thumb_func
  26              		.type	RTC_EverySecondHandler, %function
  27              	RTC_EverySecondHandler:
  28              	.LFB0:
  29              		.file 1 "Generated_Source\\PSoC5\\RTC_INT.c"
   1:Generated_Source\PSoC5/RTC_INT.c **** /*******************************************************************************
   2:Generated_Source\PSoC5/RTC_INT.c **** * File Name: RTC_INT.c
   3:Generated_Source\PSoC5/RTC_INT.c **** * Version 2.0
   4:Generated_Source\PSoC5/RTC_INT.c **** *
   5:Generated_Source\PSoC5/RTC_INT.c **** * Description:
   6:Generated_Source\PSoC5/RTC_INT.c **** *  This file contains the Interrupt Service Routine (ISR) for the RTC component.
   7:Generated_Source\PSoC5/RTC_INT.c **** *  This interrupt routine has entry pointes to overflow on time or date.
   8:Generated_Source\PSoC5/RTC_INT.c **** *
   9:Generated_Source\PSoC5/RTC_INT.c **** ********************************************************************************
  10:Generated_Source\PSoC5/RTC_INT.c **** * Copyright 2008-2013, Cypress Semiconductor Corporation.  All rights reserved.
  11:Generated_Source\PSoC5/RTC_INT.c **** * You may use this file only in accordance with the license, terms, conditions,
  12:Generated_Source\PSoC5/RTC_INT.c **** * disclaimers, and limitations in the end user license agreement accompanying
  13:Generated_Source\PSoC5/RTC_INT.c **** * the software package with which this file was provided.
  14:Generated_Source\PSoC5/RTC_INT.c **** *******************************************************************************/
  15:Generated_Source\PSoC5/RTC_INT.c **** 
  16:Generated_Source\PSoC5/RTC_INT.c **** #include "RTC.h"
  17:Generated_Source\PSoC5/RTC_INT.c **** #include "CyLib.h"
  18:Generated_Source\PSoC5/RTC_INT.c **** #include "cyapicallbacks.h"
  19:Generated_Source\PSoC5/RTC_INT.c **** 
  20:Generated_Source\PSoC5/RTC_INT.c **** /* Function Prototypes */
  21:Generated_Source\PSoC5/RTC_INT.c **** static void RTC_EverySecondHandler(void);
  22:Generated_Source\PSoC5/RTC_INT.c **** static void RTC_EveryMinuteHandler(void);
  23:Generated_Source\PSoC5/RTC_INT.c **** static void RTC_EveryHourHandler(void);
  24:Generated_Source\PSoC5/RTC_INT.c **** static void RTC_EveryDayHandler(void);
  25:Generated_Source\PSoC5/RTC_INT.c **** static void RTC_EveryWeekHandler(void);
  26:Generated_Source\PSoC5/RTC_INT.c **** static void RTC_EveryMonthHandler(void);
  27:Generated_Source\PSoC5/RTC_INT.c **** static void RTC_EveryYearHandler(void);
  28:Generated_Source\PSoC5/RTC_INT.c **** 
ARM GAS  C:\Users\Admin\AppData\Local\Temp\cc0dUITO.s 			page 2


  29:Generated_Source\PSoC5/RTC_INT.c **** 
  30:Generated_Source\PSoC5/RTC_INT.c **** /*******************************************************************************
  31:Generated_Source\PSoC5/RTC_INT.c **** *  Place your includes, defines and code here
  32:Generated_Source\PSoC5/RTC_INT.c **** *******************************************************************************/
  33:Generated_Source\PSoC5/RTC_INT.c **** /* `#START RTC_ISR_DEFINITION` */
  34:Generated_Source\PSoC5/RTC_INT.c **** 
  35:Generated_Source\PSoC5/RTC_INT.c **** /* `#END` */
  36:Generated_Source\PSoC5/RTC_INT.c **** 
  37:Generated_Source\PSoC5/RTC_INT.c **** 
  38:Generated_Source\PSoC5/RTC_INT.c **** /*******************************************************************************
  39:Generated_Source\PSoC5/RTC_INT.c **** * Function Name:   RTC_EverySecondHandler
  40:Generated_Source\PSoC5/RTC_INT.c **** ********************************************************************************
  41:Generated_Source\PSoC5/RTC_INT.c **** *
  42:Generated_Source\PSoC5/RTC_INT.c **** * Summary:
  43:Generated_Source\PSoC5/RTC_INT.c **** *  This function is called every second.
  44:Generated_Source\PSoC5/RTC_INT.c **** *
  45:Generated_Source\PSoC5/RTC_INT.c **** * Parameters:
  46:Generated_Source\PSoC5/RTC_INT.c **** *  None.
  47:Generated_Source\PSoC5/RTC_INT.c **** *
  48:Generated_Source\PSoC5/RTC_INT.c **** * Return:
  49:Generated_Source\PSoC5/RTC_INT.c **** *  None.
  50:Generated_Source\PSoC5/RTC_INT.c **** *
  51:Generated_Source\PSoC5/RTC_INT.c **** *******************************************************************************/
  52:Generated_Source\PSoC5/RTC_INT.c **** static void RTC_EverySecondHandler(void)
  53:Generated_Source\PSoC5/RTC_INT.c **** {
  30              		.loc 1 53 0
  31              		.cfi_startproc
  32              		@ args = 0, pretend = 0, frame = 0
  33              		@ frame_needed = 1, uses_anonymous_args = 0
  34 0000 80B5     		push	{r7, lr}
  35              		.cfi_def_cfa_offset 8
  36              		.cfi_offset 7, -8
  37              		.cfi_offset 14, -4
  38 0002 00AF     		add	r7, sp, #0
  39              		.cfi_def_cfa_register 7
  54:Generated_Source\PSoC5/RTC_INT.c ****     /*  Place your every second handler code here. */
  55:Generated_Source\PSoC5/RTC_INT.c ****     /* `#START EVERY_SECOND_HANDLER_CODE` */
  56:Generated_Source\PSoC5/RTC_INT.c **** 
  57:Generated_Source\PSoC5/RTC_INT.c ****     /* `#END` */
  58:Generated_Source\PSoC5/RTC_INT.c ****     
  59:Generated_Source\PSoC5/RTC_INT.c ****     #ifdef RTC_EVERY_SECOND_HANDLER_CALLBACK
  60:Generated_Source\PSoC5/RTC_INT.c ****         RTC_EverySecondHandler_Callback();
  40              		.loc 1 60 0
  41 0004 FFF7FEFF 		bl	RTC_EverySecondHandler_Callback
  61:Generated_Source\PSoC5/RTC_INT.c ****     #endif /* RTC_EVERY_SECOND_HANDLER_CALLBACK */
  62:Generated_Source\PSoC5/RTC_INT.c **** }
  42              		.loc 1 62 0
  43 0008 00BF     		nop
  44 000a 80BD     		pop	{r7, pc}
  45              		.cfi_endproc
  46              	.LFE0:
  47              		.size	RTC_EverySecondHandler, .-RTC_EverySecondHandler
  48              		.section	.text.RTC_EveryMinuteHandler,"ax",%progbits
  49              		.align	2
  50              		.thumb
  51              		.thumb_func
  52              		.type	RTC_EveryMinuteHandler, %function
ARM GAS  C:\Users\Admin\AppData\Local\Temp\cc0dUITO.s 			page 3


  53              	RTC_EveryMinuteHandler:
  54              	.LFB1:
  63:Generated_Source\PSoC5/RTC_INT.c **** 
  64:Generated_Source\PSoC5/RTC_INT.c **** 
  65:Generated_Source\PSoC5/RTC_INT.c **** /*******************************************************************************
  66:Generated_Source\PSoC5/RTC_INT.c **** * Function Name:   RTC_EveryMinuteHandler
  67:Generated_Source\PSoC5/RTC_INT.c **** ********************************************************************************
  68:Generated_Source\PSoC5/RTC_INT.c **** *
  69:Generated_Source\PSoC5/RTC_INT.c **** * Summary:
  70:Generated_Source\PSoC5/RTC_INT.c **** *  This function is called every minute.
  71:Generated_Source\PSoC5/RTC_INT.c **** *
  72:Generated_Source\PSoC5/RTC_INT.c **** * Parameters:
  73:Generated_Source\PSoC5/RTC_INT.c **** *  None.
  74:Generated_Source\PSoC5/RTC_INT.c **** *
  75:Generated_Source\PSoC5/RTC_INT.c **** * Return:
  76:Generated_Source\PSoC5/RTC_INT.c **** *  None.
  77:Generated_Source\PSoC5/RTC_INT.c **** *
  78:Generated_Source\PSoC5/RTC_INT.c **** *******************************************************************************/
  79:Generated_Source\PSoC5/RTC_INT.c **** static void RTC_EveryMinuteHandler(void)
  80:Generated_Source\PSoC5/RTC_INT.c **** {
  55              		.loc 1 80 0
  56              		.cfi_startproc
  57              		@ args = 0, pretend = 0, frame = 0
  58              		@ frame_needed = 1, uses_anonymous_args = 0
  59 0000 80B5     		push	{r7, lr}
  60              		.cfi_def_cfa_offset 8
  61              		.cfi_offset 7, -8
  62              		.cfi_offset 14, -4
  63 0002 00AF     		add	r7, sp, #0
  64              		.cfi_def_cfa_register 7
  81:Generated_Source\PSoC5/RTC_INT.c ****     /*  Place your every minute handler code here. */
  82:Generated_Source\PSoC5/RTC_INT.c ****     /* `#START EVERY_MINUTE_HANDLER_CODE` */
  83:Generated_Source\PSoC5/RTC_INT.c **** 
  84:Generated_Source\PSoC5/RTC_INT.c ****     /* `#END` */
  85:Generated_Source\PSoC5/RTC_INT.c **** 
  86:Generated_Source\PSoC5/RTC_INT.c ****     #ifdef RTC_EVERY_MINUTE_HANDLER_CALLBACK
  87:Generated_Source\PSoC5/RTC_INT.c ****         RTC_EveryMinuteHandler_Callback();
  65              		.loc 1 87 0
  66 0004 FFF7FEFF 		bl	RTC_EveryMinuteHandler_Callback
  88:Generated_Source\PSoC5/RTC_INT.c ****     #endif /* RTC_EVERY_MINUTE_HANDLER_CALLBACK */    
  89:Generated_Source\PSoC5/RTC_INT.c **** }
  67              		.loc 1 89 0
  68 0008 00BF     		nop
  69 000a 80BD     		pop	{r7, pc}
  70              		.cfi_endproc
  71              	.LFE1:
  72              		.size	RTC_EveryMinuteHandler, .-RTC_EveryMinuteHandler
  73              		.section	.text.RTC_EveryHourHandler,"ax",%progbits
  74              		.align	2
  75              		.thumb
  76              		.thumb_func
  77              		.type	RTC_EveryHourHandler, %function
  78              	RTC_EveryHourHandler:
  79              	.LFB2:
  90:Generated_Source\PSoC5/RTC_INT.c **** 
  91:Generated_Source\PSoC5/RTC_INT.c **** 
  92:Generated_Source\PSoC5/RTC_INT.c **** /*******************************************************************************
ARM GAS  C:\Users\Admin\AppData\Local\Temp\cc0dUITO.s 			page 4


  93:Generated_Source\PSoC5/RTC_INT.c **** * Function Name:   RTC_EveryHourHandler
  94:Generated_Source\PSoC5/RTC_INT.c **** ********************************************************************************
  95:Generated_Source\PSoC5/RTC_INT.c **** *
  96:Generated_Source\PSoC5/RTC_INT.c **** * Summary:
  97:Generated_Source\PSoC5/RTC_INT.c **** *  This function is called every hour.
  98:Generated_Source\PSoC5/RTC_INT.c **** *
  99:Generated_Source\PSoC5/RTC_INT.c **** * Parameters:
 100:Generated_Source\PSoC5/RTC_INT.c **** *  None.
 101:Generated_Source\PSoC5/RTC_INT.c **** *
 102:Generated_Source\PSoC5/RTC_INT.c **** * Return:
 103:Generated_Source\PSoC5/RTC_INT.c **** *  None.
 104:Generated_Source\PSoC5/RTC_INT.c **** *
 105:Generated_Source\PSoC5/RTC_INT.c **** *******************************************************************************/
 106:Generated_Source\PSoC5/RTC_INT.c **** static void RTC_EveryHourHandler(void)
 107:Generated_Source\PSoC5/RTC_INT.c **** {
  80              		.loc 1 107 0
  81              		.cfi_startproc
  82              		@ args = 0, pretend = 0, frame = 0
  83              		@ frame_needed = 1, uses_anonymous_args = 0
  84 0000 80B5     		push	{r7, lr}
  85              		.cfi_def_cfa_offset 8
  86              		.cfi_offset 7, -8
  87              		.cfi_offset 14, -4
  88 0002 00AF     		add	r7, sp, #0
  89              		.cfi_def_cfa_register 7
 108:Generated_Source\PSoC5/RTC_INT.c ****     /*  Place your every hour handler code here. */
 109:Generated_Source\PSoC5/RTC_INT.c ****     /* `#START EVERY_HOUR_HANDLER_CODE` */
 110:Generated_Source\PSoC5/RTC_INT.c **** 
 111:Generated_Source\PSoC5/RTC_INT.c ****     /* `#END` */
 112:Generated_Source\PSoC5/RTC_INT.c ****     
 113:Generated_Source\PSoC5/RTC_INT.c ****     #ifdef RTC_EVERY_HOUR_HANDLER_CALLBACK
 114:Generated_Source\PSoC5/RTC_INT.c ****         RTC_EveryHourHandler_Callback();
  90              		.loc 1 114 0
  91 0004 FFF7FEFF 		bl	RTC_EveryHourHandler_Callback
 115:Generated_Source\PSoC5/RTC_INT.c ****     #endif /* RTC_EVERY_HOUR_HANDLER_CALLBACK */
 116:Generated_Source\PSoC5/RTC_INT.c **** }
  92              		.loc 1 116 0
  93 0008 00BF     		nop
  94 000a 80BD     		pop	{r7, pc}
  95              		.cfi_endproc
  96              	.LFE2:
  97              		.size	RTC_EveryHourHandler, .-RTC_EveryHourHandler
  98              		.section	.text.RTC_EveryDayHandler,"ax",%progbits
  99              		.align	2
 100              		.thumb
 101              		.thumb_func
 102              		.type	RTC_EveryDayHandler, %function
 103              	RTC_EveryDayHandler:
 104              	.LFB3:
 117:Generated_Source\PSoC5/RTC_INT.c **** 
 118:Generated_Source\PSoC5/RTC_INT.c **** 
 119:Generated_Source\PSoC5/RTC_INT.c **** /*******************************************************************************
 120:Generated_Source\PSoC5/RTC_INT.c **** * Function Name:   RTC_EveryDayHandler
 121:Generated_Source\PSoC5/RTC_INT.c **** ********************************************************************************
 122:Generated_Source\PSoC5/RTC_INT.c **** *
 123:Generated_Source\PSoC5/RTC_INT.c **** * Summary:
 124:Generated_Source\PSoC5/RTC_INT.c **** *  This function is called every day.
ARM GAS  C:\Users\Admin\AppData\Local\Temp\cc0dUITO.s 			page 5


 125:Generated_Source\PSoC5/RTC_INT.c **** *
 126:Generated_Source\PSoC5/RTC_INT.c **** * Parameters:
 127:Generated_Source\PSoC5/RTC_INT.c **** *  None.
 128:Generated_Source\PSoC5/RTC_INT.c **** *
 129:Generated_Source\PSoC5/RTC_INT.c **** * Return:
 130:Generated_Source\PSoC5/RTC_INT.c **** *  None.
 131:Generated_Source\PSoC5/RTC_INT.c **** *
 132:Generated_Source\PSoC5/RTC_INT.c **** *******************************************************************************/
 133:Generated_Source\PSoC5/RTC_INT.c **** static void RTC_EveryDayHandler(void)
 134:Generated_Source\PSoC5/RTC_INT.c **** {
 105              		.loc 1 134 0
 106              		.cfi_startproc
 107              		@ args = 0, pretend = 0, frame = 0
 108              		@ frame_needed = 1, uses_anonymous_args = 0
 109 0000 80B5     		push	{r7, lr}
 110              		.cfi_def_cfa_offset 8
 111              		.cfi_offset 7, -8
 112              		.cfi_offset 14, -4
 113 0002 00AF     		add	r7, sp, #0
 114              		.cfi_def_cfa_register 7
 135:Generated_Source\PSoC5/RTC_INT.c ****     /*  Place your everyday handler code here. */
 136:Generated_Source\PSoC5/RTC_INT.c ****     /* `#START EVERY_DAY_HANDLER_CODE` */
 137:Generated_Source\PSoC5/RTC_INT.c **** 
 138:Generated_Source\PSoC5/RTC_INT.c ****     /* `#END` */
 139:Generated_Source\PSoC5/RTC_INT.c ****     
 140:Generated_Source\PSoC5/RTC_INT.c ****     #ifdef RTC_EVERY_DAY_HANDLER_CALLBACK
 141:Generated_Source\PSoC5/RTC_INT.c ****         RTC_EveryDayHandler_Callback();
 115              		.loc 1 141 0
 116 0004 FFF7FEFF 		bl	RTC_EveryDayHandler_Callback
 142:Generated_Source\PSoC5/RTC_INT.c ****     #endif /* RTC_EVERY_DAY_HANDLER_CALLBACK */
 143:Generated_Source\PSoC5/RTC_INT.c **** }
 117              		.loc 1 143 0
 118 0008 00BF     		nop
 119 000a 80BD     		pop	{r7, pc}
 120              		.cfi_endproc
 121              	.LFE3:
 122              		.size	RTC_EveryDayHandler, .-RTC_EveryDayHandler
 123              		.section	.text.RTC_EveryWeekHandler,"ax",%progbits
 124              		.align	2
 125              		.thumb
 126              		.thumb_func
 127              		.type	RTC_EveryWeekHandler, %function
 128              	RTC_EveryWeekHandler:
 129              	.LFB4:
 144:Generated_Source\PSoC5/RTC_INT.c **** 
 145:Generated_Source\PSoC5/RTC_INT.c **** 
 146:Generated_Source\PSoC5/RTC_INT.c **** /*******************************************************************************
 147:Generated_Source\PSoC5/RTC_INT.c **** * Function Name:   RTC_EveryWeekHandler
 148:Generated_Source\PSoC5/RTC_INT.c **** ********************************************************************************
 149:Generated_Source\PSoC5/RTC_INT.c **** *
 150:Generated_Source\PSoC5/RTC_INT.c **** * Summary:
 151:Generated_Source\PSoC5/RTC_INT.c **** *  This function is called every week.
 152:Generated_Source\PSoC5/RTC_INT.c **** *
 153:Generated_Source\PSoC5/RTC_INT.c **** * Parameters:
 154:Generated_Source\PSoC5/RTC_INT.c **** *  None.
 155:Generated_Source\PSoC5/RTC_INT.c **** *
 156:Generated_Source\PSoC5/RTC_INT.c **** * Return:
ARM GAS  C:\Users\Admin\AppData\Local\Temp\cc0dUITO.s 			page 6


 157:Generated_Source\PSoC5/RTC_INT.c **** *  None.
 158:Generated_Source\PSoC5/RTC_INT.c **** *
 159:Generated_Source\PSoC5/RTC_INT.c **** *******************************************************************************/
 160:Generated_Source\PSoC5/RTC_INT.c **** static void RTC_EveryWeekHandler(void)
 161:Generated_Source\PSoC5/RTC_INT.c **** {
 130              		.loc 1 161 0
 131              		.cfi_startproc
 132              		@ args = 0, pretend = 0, frame = 0
 133              		@ frame_needed = 1, uses_anonymous_args = 0
 134              		@ link register save eliminated.
 135 0000 80B4     		push	{r7}
 136              		.cfi_def_cfa_offset 4
 137              		.cfi_offset 7, -4
 138 0002 00AF     		add	r7, sp, #0
 139              		.cfi_def_cfa_register 7
 162:Generated_Source\PSoC5/RTC_INT.c ****     /*  Place your every week handler code here. */
 163:Generated_Source\PSoC5/RTC_INT.c ****     /* `#START EVERY_WEEK_HANDLER_CODE` */
 164:Generated_Source\PSoC5/RTC_INT.c **** 
 165:Generated_Source\PSoC5/RTC_INT.c ****     /* `#END` */
 166:Generated_Source\PSoC5/RTC_INT.c **** 
 167:Generated_Source\PSoC5/RTC_INT.c ****     #ifdef RTC_EVERY_WEEK_HANDLER_CALLBACK
 168:Generated_Source\PSoC5/RTC_INT.c ****         RTC_EveryWeekHandler_Callback();
 169:Generated_Source\PSoC5/RTC_INT.c ****     #endif /* RTC_EVERY_WEEK_HANDLER_CALLBACK */
 170:Generated_Source\PSoC5/RTC_INT.c **** }
 140              		.loc 1 170 0
 141 0004 00BF     		nop
 142 0006 BD46     		mov	sp, r7
 143              		.cfi_def_cfa_register 13
 144              		@ sp needed
 145 0008 80BC     		pop	{r7}
 146              		.cfi_restore 7
 147              		.cfi_def_cfa_offset 0
 148 000a 7047     		bx	lr
 149              		.cfi_endproc
 150              	.LFE4:
 151              		.size	RTC_EveryWeekHandler, .-RTC_EveryWeekHandler
 152              		.section	.text.RTC_EveryMonthHandler,"ax",%progbits
 153              		.align	2
 154              		.thumb
 155              		.thumb_func
 156              		.type	RTC_EveryMonthHandler, %function
 157              	RTC_EveryMonthHandler:
 158              	.LFB5:
 171:Generated_Source\PSoC5/RTC_INT.c **** 
 172:Generated_Source\PSoC5/RTC_INT.c **** 
 173:Generated_Source\PSoC5/RTC_INT.c **** /*******************************************************************************
 174:Generated_Source\PSoC5/RTC_INT.c **** * Function Name:   RTC_EveryMonthHandler
 175:Generated_Source\PSoC5/RTC_INT.c **** ********************************************************************************
 176:Generated_Source\PSoC5/RTC_INT.c **** *
 177:Generated_Source\PSoC5/RTC_INT.c **** * Summary:
 178:Generated_Source\PSoC5/RTC_INT.c **** *  This function is called every month.
 179:Generated_Source\PSoC5/RTC_INT.c **** *
 180:Generated_Source\PSoC5/RTC_INT.c **** * Parameters:
 181:Generated_Source\PSoC5/RTC_INT.c **** *  None.
 182:Generated_Source\PSoC5/RTC_INT.c **** *
 183:Generated_Source\PSoC5/RTC_INT.c **** * Return:
 184:Generated_Source\PSoC5/RTC_INT.c **** *  None.
ARM GAS  C:\Users\Admin\AppData\Local\Temp\cc0dUITO.s 			page 7


 185:Generated_Source\PSoC5/RTC_INT.c **** *
 186:Generated_Source\PSoC5/RTC_INT.c **** *******************************************************************************/
 187:Generated_Source\PSoC5/RTC_INT.c **** static void RTC_EveryMonthHandler(void)
 188:Generated_Source\PSoC5/RTC_INT.c **** {
 159              		.loc 1 188 0
 160              		.cfi_startproc
 161              		@ args = 0, pretend = 0, frame = 0
 162              		@ frame_needed = 1, uses_anonymous_args = 0
 163 0000 80B5     		push	{r7, lr}
 164              		.cfi_def_cfa_offset 8
 165              		.cfi_offset 7, -8
 166              		.cfi_offset 14, -4
 167 0002 00AF     		add	r7, sp, #0
 168              		.cfi_def_cfa_register 7
 189:Generated_Source\PSoC5/RTC_INT.c ****     /*  Place your every month handler code here. */
 190:Generated_Source\PSoC5/RTC_INT.c ****     /* `#START EVERY_MONTH_HANDLER_CODE` */
 191:Generated_Source\PSoC5/RTC_INT.c **** 
 192:Generated_Source\PSoC5/RTC_INT.c ****     /* `#END` */
 193:Generated_Source\PSoC5/RTC_INT.c ****     
 194:Generated_Source\PSoC5/RTC_INT.c ****     #ifdef RTC_EVERY_MONTH_HANDLER_CALLBACK
 195:Generated_Source\PSoC5/RTC_INT.c ****         RTC_EveryMonthHandler_Callback();
 169              		.loc 1 195 0
 170 0004 FFF7FEFF 		bl	RTC_EveryMonthHandler_Callback
 196:Generated_Source\PSoC5/RTC_INT.c ****     #endif /* RTC_EVERY_MONTH_HANDLER_CALLBACK */
 197:Generated_Source\PSoC5/RTC_INT.c **** }
 171              		.loc 1 197 0
 172 0008 00BF     		nop
 173 000a 80BD     		pop	{r7, pc}
 174              		.cfi_endproc
 175              	.LFE5:
 176              		.size	RTC_EveryMonthHandler, .-RTC_EveryMonthHandler
 177              		.section	.text.RTC_EveryYearHandler,"ax",%progbits
 178              		.align	2
 179              		.thumb
 180              		.thumb_func
 181              		.type	RTC_EveryYearHandler, %function
 182              	RTC_EveryYearHandler:
 183              	.LFB6:
 198:Generated_Source\PSoC5/RTC_INT.c **** 
 199:Generated_Source\PSoC5/RTC_INT.c **** 
 200:Generated_Source\PSoC5/RTC_INT.c **** /*******************************************************************************
 201:Generated_Source\PSoC5/RTC_INT.c **** * Function Name:   RTC_EveryYearHandler
 202:Generated_Source\PSoC5/RTC_INT.c **** ********************************************************************************
 203:Generated_Source\PSoC5/RTC_INT.c **** *
 204:Generated_Source\PSoC5/RTC_INT.c **** * Summary:
 205:Generated_Source\PSoC5/RTC_INT.c **** *  This function is called every year.
 206:Generated_Source\PSoC5/RTC_INT.c **** *
 207:Generated_Source\PSoC5/RTC_INT.c **** * Parameters:
 208:Generated_Source\PSoC5/RTC_INT.c **** *  None.
 209:Generated_Source\PSoC5/RTC_INT.c **** *
 210:Generated_Source\PSoC5/RTC_INT.c **** * Return:
 211:Generated_Source\PSoC5/RTC_INT.c **** *  None.
 212:Generated_Source\PSoC5/RTC_INT.c **** *
 213:Generated_Source\PSoC5/RTC_INT.c **** *******************************************************************************/
 214:Generated_Source\PSoC5/RTC_INT.c **** static void RTC_EveryYearHandler(void)
 215:Generated_Source\PSoC5/RTC_INT.c **** {
 184              		.loc 1 215 0
ARM GAS  C:\Users\Admin\AppData\Local\Temp\cc0dUITO.s 			page 8


 185              		.cfi_startproc
 186              		@ args = 0, pretend = 0, frame = 0
 187              		@ frame_needed = 1, uses_anonymous_args = 0
 188 0000 80B5     		push	{r7, lr}
 189              		.cfi_def_cfa_offset 8
 190              		.cfi_offset 7, -8
 191              		.cfi_offset 14, -4
 192 0002 00AF     		add	r7, sp, #0
 193              		.cfi_def_cfa_register 7
 216:Generated_Source\PSoC5/RTC_INT.c ****     /*  Place your every year handler code here. */
 217:Generated_Source\PSoC5/RTC_INT.c ****     /* `#START EVERY_YEAR_HANDLER_CODE` */
 218:Generated_Source\PSoC5/RTC_INT.c **** 
 219:Generated_Source\PSoC5/RTC_INT.c ****     /* `#END` */
 220:Generated_Source\PSoC5/RTC_INT.c **** 
 221:Generated_Source\PSoC5/RTC_INT.c ****     #ifdef RTC_EVERY_YEAR_HANDLER_CALLBACK
 222:Generated_Source\PSoC5/RTC_INT.c ****         RTC_EveryYearHandler_Callback();
 194              		.loc 1 222 0
 195 0004 FFF7FEFF 		bl	RTC_EveryYearHandler_Callback
 223:Generated_Source\PSoC5/RTC_INT.c ****     #endif /* RTC_EVERY_YEAR_HANDLER_CALLBACK */    
 224:Generated_Source\PSoC5/RTC_INT.c **** }
 196              		.loc 1 224 0
 197 0008 00BF     		nop
 198 000a 80BD     		pop	{r7, pc}
 199              		.cfi_endproc
 200              	.LFE6:
 201              		.size	RTC_EveryYearHandler, .-RTC_EveryYearHandler
 202              		.section	.text.RTC_ISR,"ax",%progbits
 203              		.align	2
 204              		.global	RTC_ISR
 205              		.thumb
 206              		.thumb_func
 207              		.type	RTC_ISR, %function
 208              	RTC_ISR:
 209              	.LFB7:
 225:Generated_Source\PSoC5/RTC_INT.c **** 
 226:Generated_Source\PSoC5/RTC_INT.c **** 
 227:Generated_Source\PSoC5/RTC_INT.c **** /*******************************************************************************
 228:Generated_Source\PSoC5/RTC_INT.c **** * Function Name: RTC_ISR
 229:Generated_Source\PSoC5/RTC_INT.c **** ********************************************************************************
 230:Generated_Source\PSoC5/RTC_INT.c **** *
 231:Generated_Source\PSoC5/RTC_INT.c **** * Summary:
 232:Generated_Source\PSoC5/RTC_INT.c **** *  This ISR is executed on 1PPS (one pulse per second) event.
 233:Generated_Source\PSoC5/RTC_INT.c **** *  Global interrupt must be enabled to invoke this ISR.
 234:Generated_Source\PSoC5/RTC_INT.c **** *  This interrupt trigs every second.
 235:Generated_Source\PSoC5/RTC_INT.c **** *
 236:Generated_Source\PSoC5/RTC_INT.c **** * Parameters:
 237:Generated_Source\PSoC5/RTC_INT.c **** *  None.
 238:Generated_Source\PSoC5/RTC_INT.c **** *
 239:Generated_Source\PSoC5/RTC_INT.c **** * Return:
 240:Generated_Source\PSoC5/RTC_INT.c **** *  None.
 241:Generated_Source\PSoC5/RTC_INT.c **** *
 242:Generated_Source\PSoC5/RTC_INT.c **** * Global variables:
 243:Generated_Source\PSoC5/RTC_INT.c **** * RTC_currentTimeDate, RTC_dstTimeDateStart,
 244:Generated_Source\PSoC5/RTC_INT.c **** *  RTC_dstTimeDateStop, RTC_dstTimeDateStart,
 245:Generated_Source\PSoC5/RTC_INT.c **** *  RTC_alarmCfgTimeDate, RTC_statusDateTime,
 246:Generated_Source\PSoC5/RTC_INT.c **** *  RTC_dstStartStatus, RTC_dstStartStatus,
 247:Generated_Source\PSoC5/RTC_INT.c **** *  RTC_dstStopStatus, RTC_alarmCurStatus: global
ARM GAS  C:\Users\Admin\AppData\Local\Temp\cc0dUITO.s 			page 9


 248:Generated_Source\PSoC5/RTC_INT.c **** *  variables are used for the time/date, DST and alarm update procedure.
 249:Generated_Source\PSoC5/RTC_INT.c **** *
 250:Generated_Source\PSoC5/RTC_INT.c **** *  RTC_dstTimeDateStart and RTC_currentTimeDate:
 251:Generated_Source\PSoC5/RTC_INT.c **** *  are modified with the updated values.
 252:Generated_Source\PSoC5/RTC_INT.c **** *
 253:Generated_Source\PSoC5/RTC_INT.c **** *  RTC_statusDateTime, RTC_dstStartStatus,
 254:Generated_Source\PSoC5/RTC_INT.c **** *  RTC_dstStartStatus, RTC_dstStopStatus,
 255:Generated_Source\PSoC5/RTC_INT.c **** *  RTC_alarmCurStatus: global variables could be modified while
 256:Generated_Source\PSoC5/RTC_INT.c **** *  current time/date is updated.
 257:Generated_Source\PSoC5/RTC_INT.c **** *
 258:Generated_Source\PSoC5/RTC_INT.c **** * Side Effects:
 259:Generated_Source\PSoC5/RTC_INT.c **** *  Clears all interrupt status bits (react_int, limact_int, onepps_int, ctw_int,
 260:Generated_Source\PSoC5/RTC_INT.c **** *  and  ftw_int) in Power Manager Interrupt Status Register. If an interrupt
 261:Generated_Source\PSoC5/RTC_INT.c **** *  gets generated at the same time as a clear, the bit will remain set (which
 262:Generated_Source\PSoC5/RTC_INT.c **** *  causes another interrupt).
 263:Generated_Source\PSoC5/RTC_INT.c **** *
 264:Generated_Source\PSoC5/RTC_INT.c **** *******************************************************************************/
 265:Generated_Source\PSoC5/RTC_INT.c **** CY_ISR(RTC_ISR)
 266:Generated_Source\PSoC5/RTC_INT.c **** {
 210              		.loc 1 266 0
 211              		.cfi_startproc
 212              		@ args = 0, pretend = 0, frame = 8
 213              		@ frame_needed = 1, uses_anonymous_args = 0
 214 0000 80B5     		push	{r7, lr}
 215              		.cfi_def_cfa_offset 8
 216              		.cfi_offset 7, -8
 217              		.cfi_offset 14, -4
 218 0002 82B0     		sub	sp, sp, #8
 219              		.cfi_def_cfa_offset 16
 220 0004 00AF     		add	r7, sp, #0
 221              		.cfi_def_cfa_register 7
 267:Generated_Source\PSoC5/RTC_INT.c ****     uint8 RTC_tmp;
 268:Generated_Source\PSoC5/RTC_INT.c **** 
 269:Generated_Source\PSoC5/RTC_INT.c ****     #ifdef RTC_ISR_ENTRY_CALLBACK
 270:Generated_Source\PSoC5/RTC_INT.c ****         RTC_ISR_EntryCallback();
 271:Generated_Source\PSoC5/RTC_INT.c ****     #endif /* RTC_ISR_ENTRY_CALLBACK */
 272:Generated_Source\PSoC5/RTC_INT.c ****     
 273:Generated_Source\PSoC5/RTC_INT.c ****     /* Clear OPPS interrupt status flag */
 274:Generated_Source\PSoC5/RTC_INT.c ****     (void) CyPmReadStatus(CY_PM_ONEPPS_INT);
 222              		.loc 1 274 0
 223 0006 0420     		movs	r0, #4
 224 0008 FFF7FEFF 		bl	CyPmReadStatus
 275:Generated_Source\PSoC5/RTC_INT.c **** 
 276:Generated_Source\PSoC5/RTC_INT.c ****     /* Increment seconds counter */
 277:Generated_Source\PSoC5/RTC_INT.c ****     RTC_currentTimeDate.Sec++;
 225              		.loc 1 277 0
 226 000c 9E4B     		ldr	r3, .L102
 227 000e 1B78     		ldrb	r3, [r3]
 228 0010 DBB2     		uxtb	r3, r3
 229 0012 0133     		adds	r3, r3, #1
 230 0014 DAB2     		uxtb	r2, r3
 231 0016 9C4B     		ldr	r3, .L102
 232 0018 1A70     		strb	r2, [r3]
 278:Generated_Source\PSoC5/RTC_INT.c **** 
 279:Generated_Source\PSoC5/RTC_INT.c ****     /* Check if minute elapsed */
 280:Generated_Source\PSoC5/RTC_INT.c ****     if(RTC_currentTimeDate.Sec > RTC_MINUTE_ELAPSED)
 233              		.loc 1 280 0
ARM GAS  C:\Users\Admin\AppData\Local\Temp\cc0dUITO.s 			page 10


 234 001a 9B4B     		ldr	r3, .L102
 235 001c 1B78     		ldrb	r3, [r3]
 236 001e DBB2     		uxtb	r3, r3
 237 0020 3B2B     		cmp	r3, #59
 238 0022 40F2B286 		bls	.L9
 281:Generated_Source\PSoC5/RTC_INT.c ****     {
 282:Generated_Source\PSoC5/RTC_INT.c ****         /* Inc Min */
 283:Generated_Source\PSoC5/RTC_INT.c ****         RTC_currentTimeDate.Min++;
 239              		.loc 1 283 0
 240 0026 984B     		ldr	r3, .L102
 241 0028 5B78     		ldrb	r3, [r3, #1]
 242 002a DBB2     		uxtb	r3, r3
 243 002c 0133     		adds	r3, r3, #1
 244 002e DAB2     		uxtb	r2, r3
 245 0030 954B     		ldr	r3, .L102
 246 0032 5A70     		strb	r2, [r3, #1]
 284:Generated_Source\PSoC5/RTC_INT.c **** 
 285:Generated_Source\PSoC5/RTC_INT.c ****         /* Clear Sec */
 286:Generated_Source\PSoC5/RTC_INT.c ****         RTC_currentTimeDate.Sec = 0u;
 247              		.loc 1 286 0
 248 0034 944B     		ldr	r3, .L102
 249 0036 0022     		movs	r2, #0
 250 0038 1A70     		strb	r2, [r3]
 287:Generated_Source\PSoC5/RTC_INT.c **** 
 288:Generated_Source\PSoC5/RTC_INT.c ****         if(RTC_currentTimeDate.Min > RTC_HOUR_ELAPSED)
 251              		.loc 1 288 0
 252 003a 934B     		ldr	r3, .L102
 253 003c 5B78     		ldrb	r3, [r3, #1]
 254 003e DBB2     		uxtb	r3, r3
 255 0040 3B2B     		cmp	r3, #59
 256 0042 40F24E86 		bls	.L10
 289:Generated_Source\PSoC5/RTC_INT.c ****         {
 290:Generated_Source\PSoC5/RTC_INT.c ****             /* Inc HOUR */
 291:Generated_Source\PSoC5/RTC_INT.c ****             RTC_currentTimeDate.Hour++;
 257              		.loc 1 291 0
 258 0046 904B     		ldr	r3, .L102
 259 0048 9B78     		ldrb	r3, [r3, #2]
 260 004a DBB2     		uxtb	r3, r3
 261 004c 0133     		adds	r3, r3, #1
 262 004e DAB2     		uxtb	r2, r3
 263 0050 8D4B     		ldr	r3, .L102
 264 0052 9A70     		strb	r2, [r3, #2]
 292:Generated_Source\PSoC5/RTC_INT.c **** 
 293:Generated_Source\PSoC5/RTC_INT.c ****             /* Clear Min */
 294:Generated_Source\PSoC5/RTC_INT.c ****             RTC_currentTimeDate.Min = 0u;
 265              		.loc 1 294 0
 266 0054 8C4B     		ldr	r3, .L102
 267 0056 0022     		movs	r2, #0
 268 0058 5A70     		strb	r2, [r3, #1]
 295:Generated_Source\PSoC5/RTC_INT.c **** 
 296:Generated_Source\PSoC5/RTC_INT.c ****             /* Day roll over */
 297:Generated_Source\PSoC5/RTC_INT.c ****             if(RTC_currentTimeDate.Hour > RTC_DAY_ELAPSED)
 269              		.loc 1 297 0
 270 005a 8B4B     		ldr	r3, .L102
 271 005c 9B78     		ldrb	r3, [r3, #2]
 272 005e DBB2     		uxtb	r3, r3
 273 0060 172B     		cmp	r3, #23
ARM GAS  C:\Users\Admin\AppData\Local\Temp\cc0dUITO.s 			page 11


 274 0062 40F24182 		bls	.L11
 298:Generated_Source\PSoC5/RTC_INT.c ****             {
 299:Generated_Source\PSoC5/RTC_INT.c ****                 /* Inc DayOfMonth */
 300:Generated_Source\PSoC5/RTC_INT.c ****                 RTC_currentTimeDate.DayOfMonth++;
 275              		.loc 1 300 0
 276 0066 884B     		ldr	r3, .L102
 277 0068 1B79     		ldrb	r3, [r3, #4]
 278 006a DBB2     		uxtb	r3, r3
 279 006c 0133     		adds	r3, r3, #1
 280 006e DAB2     		uxtb	r2, r3
 281 0070 854B     		ldr	r3, .L102
 282 0072 1A71     		strb	r2, [r3, #4]
 301:Generated_Source\PSoC5/RTC_INT.c **** 
 302:Generated_Source\PSoC5/RTC_INT.c ****                 /* Clear Hour */
 303:Generated_Source\PSoC5/RTC_INT.c ****                 RTC_currentTimeDate.Hour = 0u;
 283              		.loc 1 303 0
 284 0074 844B     		ldr	r3, .L102
 285 0076 0022     		movs	r2, #0
 286 0078 9A70     		strb	r2, [r3, #2]
 304:Generated_Source\PSoC5/RTC_INT.c **** 
 305:Generated_Source\PSoC5/RTC_INT.c ****                 /* Inc DayOfYear */
 306:Generated_Source\PSoC5/RTC_INT.c ****                 RTC_currentTimeDate.DayOfYear++;
 287              		.loc 1 306 0
 288 007a 834B     		ldr	r3, .L102
 289 007c DB88     		ldrh	r3, [r3, #6]	@ movhi
 290 007e 9BB2     		uxth	r3, r3
 291 0080 0133     		adds	r3, r3, #1
 292 0082 9AB2     		uxth	r2, r3
 293 0084 804B     		ldr	r3, .L102
 294 0086 DA80     		strh	r2, [r3, #6]	@ movhi
 307:Generated_Source\PSoC5/RTC_INT.c **** 
 308:Generated_Source\PSoC5/RTC_INT.c ****                 /* Inc DayOfWeek */
 309:Generated_Source\PSoC5/RTC_INT.c ****                 RTC_currentTimeDate.DayOfWeek++;
 295              		.loc 1 309 0
 296 0088 7F4B     		ldr	r3, .L102
 297 008a DB78     		ldrb	r3, [r3, #3]
 298 008c DBB2     		uxtb	r3, r3
 299 008e 0133     		adds	r3, r3, #1
 300 0090 DAB2     		uxtb	r2, r3
 301 0092 7D4B     		ldr	r3, .L102
 302 0094 DA70     		strb	r2, [r3, #3]
 310:Generated_Source\PSoC5/RTC_INT.c **** 
 311:Generated_Source\PSoC5/RTC_INT.c ****                 /* Check DayOfWeek */
 312:Generated_Source\PSoC5/RTC_INT.c ****                 if(RTC_currentTimeDate.DayOfWeek > RTC_WEEK_ELAPSED)
 303              		.loc 1 312 0
 304 0096 7C4B     		ldr	r3, .L102
 305 0098 DB78     		ldrb	r3, [r3, #3]
 306 009a DBB2     		uxtb	r3, r3
 307 009c 072B     		cmp	r3, #7
 308 009e 02D9     		bls	.L12
 313:Generated_Source\PSoC5/RTC_INT.c ****                 {
 314:Generated_Source\PSoC5/RTC_INT.c ****                     /* start new week */
 315:Generated_Source\PSoC5/RTC_INT.c ****                     RTC_currentTimeDate.DayOfWeek = 1u;
 309              		.loc 1 315 0
 310 00a0 794B     		ldr	r3, .L102
 311 00a2 0122     		movs	r2, #1
 312 00a4 DA70     		strb	r2, [r3, #3]
ARM GAS  C:\Users\Admin\AppData\Local\Temp\cc0dUITO.s 			page 12


 313              	.L12:
 316:Generated_Source\PSoC5/RTC_INT.c ****                 }
 317:Generated_Source\PSoC5/RTC_INT.c **** 
 318:Generated_Source\PSoC5/RTC_INT.c ****                 /* Day of month roll over.
 319:Generated_Source\PSoC5/RTC_INT.c ****                 * Check if day of month greater than 29 in February of leap year or
 320:Generated_Source\PSoC5/RTC_INT.c ****                 * if day of month greater than 28 NOT in February of NON leap year or
 321:Generated_Source\PSoC5/RTC_INT.c ****                 * if day of month greater than it should be in every month in non leap year
 322:Generated_Source\PSoC5/RTC_INT.c ****                 */
 323:Generated_Source\PSoC5/RTC_INT.c ****                 if(((0u != (RTC_statusDateTime & RTC_STATUS_LY)) &&
 314              		.loc 1 323 0
 315 00a6 794B     		ldr	r3, .L102+4
 316 00a8 1B78     		ldrb	r3, [r3]
 317 00aa DBB2     		uxtb	r3, r3
 318 00ac 03F00203 		and	r3, r3, #2
 319 00b0 002B     		cmp	r3, #0
 320 00b2 11D0     		beq	.L13
 324:Generated_Source\PSoC5/RTC_INT.c ****                     (RTC_currentTimeDate.Month == RTC_FEBRUARY)  &&
 321              		.loc 1 324 0 discriminator 1
 322 00b4 744B     		ldr	r3, .L102
 323 00b6 1B7A     		ldrb	r3, [r3, #8]
 324 00b8 DBB2     		uxtb	r3, r3
 323:Generated_Source\PSoC5/RTC_INT.c ****                     (RTC_currentTimeDate.Month == RTC_FEBRUARY)  &&
 325              		.loc 1 323 0 discriminator 1
 326 00ba 022B     		cmp	r3, #2
 327 00bc 0CD1     		bne	.L13
 325:Generated_Source\PSoC5/RTC_INT.c ****                     (RTC_currentTimeDate.DayOfMonth >
 328              		.loc 1 325 0
 329 00be 724B     		ldr	r3, .L102
 330 00c0 1B79     		ldrb	r3, [r3, #4]
 331 00c2 DBB2     		uxtb	r3, r3
 332 00c4 1946     		mov	r1, r3
 326:Generated_Source\PSoC5/RTC_INT.c ****                              (RTC_daysInMonths[RTC_currentTimeDate.Month - 1u] + 1u))) ||
 333              		.loc 1 326 0
 334 00c6 704B     		ldr	r3, .L102
 335 00c8 1B7A     		ldrb	r3, [r3, #8]
 336 00ca DBB2     		uxtb	r3, r3
 337 00cc 013B     		subs	r3, r3, #1
 338 00ce 704A     		ldr	r2, .L102+8
 339 00d0 D35C     		ldrb	r3, [r2, r3]	@ zero_extendqisi2
 340 00d2 0133     		adds	r3, r3, #1
 324:Generated_Source\PSoC5/RTC_INT.c ****                     (RTC_currentTimeDate.DayOfMonth >
 341              		.loc 1 324 0
 342 00d4 9942     		cmp	r1, r3
 343 00d6 2AD8     		bhi	.L14
 344              	.L13:
 327:Generated_Source\PSoC5/RTC_INT.c ****                    ((0u != (RTC_statusDateTime & RTC_STATUS_LY))  &&
 345              		.loc 1 327 0
 346 00d8 6C4B     		ldr	r3, .L102+4
 347 00da 1B78     		ldrb	r3, [r3]
 348 00dc DBB2     		uxtb	r3, r3
 349 00de 03F00203 		and	r3, r3, #2
 326:Generated_Source\PSoC5/RTC_INT.c ****                              (RTC_daysInMonths[RTC_currentTimeDate.Month - 1u] + 1u))) ||
 350              		.loc 1 326 0
 351 00e2 002B     		cmp	r3, #0
 352 00e4 0FD0     		beq	.L15
 328:Generated_Source\PSoC5/RTC_INT.c ****                     (RTC_currentTimeDate.Month != RTC_FEBRUARY) &&
 353              		.loc 1 328 0
ARM GAS  C:\Users\Admin\AppData\Local\Temp\cc0dUITO.s 			page 13


 354 00e6 684B     		ldr	r3, .L102
 355 00e8 1B7A     		ldrb	r3, [r3, #8]
 356 00ea DBB2     		uxtb	r3, r3
 327:Generated_Source\PSoC5/RTC_INT.c ****                    ((0u != (RTC_statusDateTime & RTC_STATUS_LY))  &&
 357              		.loc 1 327 0
 358 00ec 022B     		cmp	r3, #2
 359 00ee 0AD0     		beq	.L15
 329:Generated_Source\PSoC5/RTC_INT.c ****                     (RTC_currentTimeDate.DayOfMonth >
 360              		.loc 1 329 0
 361 00f0 654B     		ldr	r3, .L102
 362 00f2 1B79     		ldrb	r3, [r3, #4]
 363 00f4 DAB2     		uxtb	r2, r3
 330:Generated_Source\PSoC5/RTC_INT.c ****                                     RTC_daysInMonths[RTC_currentTimeDate.Month - 1u])) ||
 364              		.loc 1 330 0
 365 00f6 644B     		ldr	r3, .L102
 366 00f8 1B7A     		ldrb	r3, [r3, #8]
 367 00fa DBB2     		uxtb	r3, r3
 368 00fc 013B     		subs	r3, r3, #1
 369 00fe 6449     		ldr	r1, .L102+8
 370 0100 CB5C     		ldrb	r3, [r1, r3]	@ zero_extendqisi2
 328:Generated_Source\PSoC5/RTC_INT.c ****                     (RTC_currentTimeDate.Month != RTC_FEBRUARY) &&
 371              		.loc 1 328 0
 372 0102 9A42     		cmp	r2, r3
 373 0104 13D8     		bhi	.L14
 374              	.L15:
 331:Generated_Source\PSoC5/RTC_INT.c ****                    ((0u == (RTC_statusDateTime & RTC_STATUS_LY))  &&
 375              		.loc 1 331 0
 376 0106 614B     		ldr	r3, .L102+4
 377 0108 1B78     		ldrb	r3, [r3]
 378 010a DBB2     		uxtb	r3, r3
 379 010c 03F00203 		and	r3, r3, #2
 330:Generated_Source\PSoC5/RTC_INT.c ****                                     RTC_daysInMonths[RTC_currentTimeDate.Month - 1u])) ||
 380              		.loc 1 330 0
 381 0110 002B     		cmp	r3, #0
 382 0112 40F02681 		bne	.L16
 332:Generated_Source\PSoC5/RTC_INT.c ****                     (RTC_currentTimeDate.DayOfMonth >
 383              		.loc 1 332 0
 384 0116 5C4B     		ldr	r3, .L102
 385 0118 1B79     		ldrb	r3, [r3, #4]
 386 011a DAB2     		uxtb	r2, r3
 333:Generated_Source\PSoC5/RTC_INT.c ****                                     RTC_daysInMonths[RTC_currentTimeDate.Month - 1u])))
 387              		.loc 1 333 0
 388 011c 5A4B     		ldr	r3, .L102
 389 011e 1B7A     		ldrb	r3, [r3, #8]
 390 0120 DBB2     		uxtb	r3, r3
 391 0122 013B     		subs	r3, r3, #1
 392 0124 5A49     		ldr	r1, .L102+8
 393 0126 CB5C     		ldrb	r3, [r1, r3]	@ zero_extendqisi2
 331:Generated_Source\PSoC5/RTC_INT.c ****                    ((0u == (RTC_statusDateTime & RTC_STATUS_LY))  &&
 394              		.loc 1 331 0
 395 0128 9A42     		cmp	r2, r3
 396 012a 40F21A81 		bls	.L16
 397              	.L14:
 334:Generated_Source\PSoC5/RTC_INT.c ****                 {
 335:Generated_Source\PSoC5/RTC_INT.c ****                     /* Inc Month */
 336:Generated_Source\PSoC5/RTC_INT.c ****                     RTC_currentTimeDate.Month++;
 398              		.loc 1 336 0
ARM GAS  C:\Users\Admin\AppData\Local\Temp\cc0dUITO.s 			page 14


 399 012e 564B     		ldr	r3, .L102
 400 0130 1B7A     		ldrb	r3, [r3, #8]
 401 0132 DBB2     		uxtb	r3, r3
 402 0134 0133     		adds	r3, r3, #1
 403 0136 DAB2     		uxtb	r2, r3
 404 0138 534B     		ldr	r3, .L102
 405 013a 1A72     		strb	r2, [r3, #8]
 337:Generated_Source\PSoC5/RTC_INT.c **** 
 338:Generated_Source\PSoC5/RTC_INT.c ****                     /* Set first day of month */
 339:Generated_Source\PSoC5/RTC_INT.c ****                     RTC_currentTimeDate.DayOfMonth = 1u;
 406              		.loc 1 339 0
 407 013c 524B     		ldr	r3, .L102
 408 013e 0122     		movs	r2, #1
 409 0140 1A71     		strb	r2, [r3, #4]
 340:Generated_Source\PSoC5/RTC_INT.c **** 
 341:Generated_Source\PSoC5/RTC_INT.c ****                     /* Year roll over */
 342:Generated_Source\PSoC5/RTC_INT.c ****                     if(RTC_currentTimeDate.Month > RTC_YEAR_ELAPSED)
 410              		.loc 1 342 0
 411 0142 514B     		ldr	r3, .L102
 412 0144 1B7A     		ldrb	r3, [r3, #8]
 413 0146 DBB2     		uxtb	r3, r3
 414 0148 0C2B     		cmp	r3, #12
 415 014a 40F28580 		bls	.L17
 343:Generated_Source\PSoC5/RTC_INT.c ****                     {
 344:Generated_Source\PSoC5/RTC_INT.c ****                         /* Inc Year */
 345:Generated_Source\PSoC5/RTC_INT.c ****                         RTC_currentTimeDate.Year++;
 416              		.loc 1 345 0
 417 014e 4E4B     		ldr	r3, .L102
 418 0150 5B89     		ldrh	r3, [r3, #10]	@ movhi
 419 0152 9BB2     		uxth	r3, r3
 420 0154 0133     		adds	r3, r3, #1
 421 0156 9AB2     		uxth	r2, r3
 422 0158 4B4B     		ldr	r3, .L102
 423 015a 5A81     		strh	r2, [r3, #10]	@ movhi
 346:Generated_Source\PSoC5/RTC_INT.c **** 
 347:Generated_Source\PSoC5/RTC_INT.c ****                         /* Set first month of year */
 348:Generated_Source\PSoC5/RTC_INT.c ****                         RTC_currentTimeDate.Month = 1u;
 424              		.loc 1 348 0
 425 015c 4A4B     		ldr	r3, .L102
 426 015e 0122     		movs	r2, #1
 427 0160 1A72     		strb	r2, [r3, #8]
 349:Generated_Source\PSoC5/RTC_INT.c **** 
 350:Generated_Source\PSoC5/RTC_INT.c ****                         /* Set first day of year */
 351:Generated_Source\PSoC5/RTC_INT.c ****                         RTC_currentTimeDate.DayOfYear = 1u;
 428              		.loc 1 351 0
 429 0162 494B     		ldr	r3, .L102
 430 0164 0122     		movs	r2, #1
 431 0166 DA80     		strh	r2, [r3, #6]	@ movhi
 352:Generated_Source\PSoC5/RTC_INT.c **** 
 353:Generated_Source\PSoC5/RTC_INT.c ****                         /* Is this year leap */
 354:Generated_Source\PSoC5/RTC_INT.c ****                         if(1u == RTC_LEAP_YEAR(RTC_currentTimeDate.Year))
 432              		.loc 1 354 0
 433 0168 474B     		ldr	r3, .L102
 434 016a 5B89     		ldrh	r3, [r3, #10]	@ movhi
 435 016c 9BB2     		uxth	r3, r3
 436 016e 494A     		ldr	r2, .L102+12
 437 0170 A2FB0312 		umull	r1, r2, r2, r3
ARM GAS  C:\Users\Admin\AppData\Local\Temp\cc0dUITO.s 			page 15


 438 0174 D209     		lsrs	r2, r2, #7
 439 0176 4FF4C871 		mov	r1, #400
 440 017a 01FB02F2 		mul	r2, r1, r2
 441 017e 9B1A     		subs	r3, r3, r2
 442 0180 9BB2     		uxth	r3, r3
 443 0182 002B     		cmp	r3, #0
 444 0184 15D0     		beq	.L18
 445              		.loc 1 354 0 is_stmt 0 discriminator 1
 446 0186 404B     		ldr	r3, .L102
 447 0188 5B89     		ldrh	r3, [r3, #10]	@ movhi
 448 018a 9BB2     		uxth	r3, r3
 449 018c 03F00303 		and	r3, r3, #3
 450 0190 9BB2     		uxth	r3, r3
 451 0192 002B     		cmp	r3, #0
 452 0194 16D1     		bne	.L19
 453              		.loc 1 354 0 discriminator 2
 454 0196 3C4B     		ldr	r3, .L102
 455 0198 5B89     		ldrh	r3, [r3, #10]	@ movhi
 456 019a 9BB2     		uxth	r3, r3
 457 019c 3D4A     		ldr	r2, .L102+12
 458 019e A2FB0312 		umull	r1, r2, r2, r3
 459 01a2 5209     		lsrs	r2, r2, #5
 460 01a4 6421     		movs	r1, #100
 461 01a6 01FB02F2 		mul	r2, r1, r2
 462 01aa 9B1A     		subs	r3, r3, r2
 463 01ac 9BB2     		uxth	r3, r3
 464 01ae 002B     		cmp	r3, #0
 465 01b0 08D0     		beq	.L19
 466              	.L18:
 355:Generated_Source\PSoC5/RTC_INT.c ****                         {
 356:Generated_Source\PSoC5/RTC_INT.c ****                             /* Set leap year flag */
 357:Generated_Source\PSoC5/RTC_INT.c ****                             RTC_statusDateTime |= RTC_STATUS_LY;
 467              		.loc 1 357 0 is_stmt 1
 468 01b2 364B     		ldr	r3, .L102+4
 469 01b4 1B78     		ldrb	r3, [r3]
 470 01b6 DBB2     		uxtb	r3, r3
 471 01b8 43F00203 		orr	r3, r3, #2
 472 01bc DAB2     		uxtb	r2, r3
 473 01be 334B     		ldr	r3, .L102+4
 474 01c0 1A70     		strb	r2, [r3]
 475 01c2 07E0     		b	.L20
 476              	.L19:
 358:Generated_Source\PSoC5/RTC_INT.c ****                         }
 359:Generated_Source\PSoC5/RTC_INT.c ****                         else    /* not leap year */
 360:Generated_Source\PSoC5/RTC_INT.c ****                         {
 361:Generated_Source\PSoC5/RTC_INT.c ****                             /* Clear leap year */
 362:Generated_Source\PSoC5/RTC_INT.c ****                             RTC_statusDateTime &= (uint8)(~RTC_STATUS_LY);
 477              		.loc 1 362 0
 478 01c4 314B     		ldr	r3, .L102+4
 479 01c6 1B78     		ldrb	r3, [r3]
 480 01c8 DBB2     		uxtb	r3, r3
 481 01ca 23F00203 		bic	r3, r3, #2
 482 01ce DAB2     		uxtb	r2, r3
 483 01d0 2E4B     		ldr	r3, .L102+4
 484 01d2 1A70     		strb	r2, [r3]
 485              	.L20:
 363:Generated_Source\PSoC5/RTC_INT.c ****                         }
ARM GAS  C:\Users\Admin\AppData\Local\Temp\cc0dUITO.s 			page 16


 364:Generated_Source\PSoC5/RTC_INT.c **** 
 365:Generated_Source\PSoC5/RTC_INT.c ****                         /* Alarm YEAR */
 366:Generated_Source\PSoC5/RTC_INT.c ****                         if(0u != RTC_IS_BIT_SET(RTC_alarmCfgMask,
 486              		.loc 1 366 0
 487 01d4 304B     		ldr	r3, .L102+16
 488 01d6 1B78     		ldrb	r3, [r3]
 489 01d8 DBB2     		uxtb	r3, r3
 490 01da 5BB2     		sxtb	r3, r3
 491 01dc 002B     		cmp	r3, #0
 492 01de 18DA     		bge	.L21
 367:Generated_Source\PSoC5/RTC_INT.c ****                                                              RTC_ALARM_YEAR_MASK))
 368:Generated_Source\PSoC5/RTC_INT.c ****                         {
 369:Generated_Source\PSoC5/RTC_INT.c ****                             /* Years match */
 370:Generated_Source\PSoC5/RTC_INT.c ****                             if(RTC_alarmCfgTimeDate.Year == RTC_currentTimeDate.Year)
 493              		.loc 1 370 0
 494 01e0 2E4B     		ldr	r3, .L102+20
 495 01e2 5B89     		ldrh	r3, [r3, #10]	@ movhi
 496 01e4 9AB2     		uxth	r2, r3
 497 01e6 284B     		ldr	r3, .L102
 498 01e8 5B89     		ldrh	r3, [r3, #10]	@ movhi
 499 01ea 9BB2     		uxth	r3, r3
 500 01ec 9A42     		cmp	r2, r3
 501 01ee 08D1     		bne	.L22
 371:Generated_Source\PSoC5/RTC_INT.c ****                             {
 372:Generated_Source\PSoC5/RTC_INT.c ****                                 /* Rise year alarm */
 373:Generated_Source\PSoC5/RTC_INT.c ****                                 RTC_alarmCurStatus |= RTC_ALARM_YEAR_MASK;
 502              		.loc 1 373 0
 503 01f0 2B4B     		ldr	r3, .L102+24
 504 01f2 1B78     		ldrb	r3, [r3]
 505 01f4 DBB2     		uxtb	r3, r3
 506 01f6 63F07F03 		orn	r3, r3, #127
 507 01fa DAB2     		uxtb	r2, r3
 508 01fc 284B     		ldr	r3, .L102+24
 509 01fe 1A70     		strb	r2, [r3]
 510 0200 07E0     		b	.L21
 511              	.L22:
 374:Generated_Source\PSoC5/RTC_INT.c ****                             }
 375:Generated_Source\PSoC5/RTC_INT.c ****                             else    /* Years do not match */
 376:Generated_Source\PSoC5/RTC_INT.c ****                             {
 377:Generated_Source\PSoC5/RTC_INT.c ****                                 /* Clear year alarm */
 378:Generated_Source\PSoC5/RTC_INT.c ****                                 RTC_alarmCurStatus &= (uint8)(~RTC_ALARM_YEAR_MASK);
 512              		.loc 1 378 0
 513 0202 274B     		ldr	r3, .L102+24
 514 0204 1B78     		ldrb	r3, [r3]
 515 0206 DBB2     		uxtb	r3, r3
 516 0208 03F07F03 		and	r3, r3, #127
 517 020c DAB2     		uxtb	r2, r3
 518 020e 244B     		ldr	r3, .L102+24
 519 0210 1A70     		strb	r2, [r3]
 520              	.L21:
 379:Generated_Source\PSoC5/RTC_INT.c ****                             }
 380:Generated_Source\PSoC5/RTC_INT.c ****                         } /* do not alarm year */
 381:Generated_Source\PSoC5/RTC_INT.c **** 
 382:Generated_Source\PSoC5/RTC_INT.c ****                         /* Set Alarm flag event */
 383:Generated_Source\PSoC5/RTC_INT.c ****                         RTC_tmp = RTC_alarmCfgMask;
 521              		.loc 1 383 0
 522 0212 214B     		ldr	r3, .L102+16
ARM GAS  C:\Users\Admin\AppData\Local\Temp\cc0dUITO.s 			page 17


 523 0214 1B78     		ldrb	r3, [r3]
 524 0216 FB71     		strb	r3, [r7, #7]
 384:Generated_Source\PSoC5/RTC_INT.c ****                         RTC_SET_ALARM(RTC_tmp,
 525              		.loc 1 384 0
 526 0218 FB79     		ldrb	r3, [r7, #7]	@ zero_extendqisi2
 527 021a 002B     		cmp	r3, #0
 528 021c 13D0     		beq	.L23
 529              		.loc 1 384 0 is_stmt 0 discriminator 1
 530 021e 204B     		ldr	r3, .L102+24
 531 0220 1B78     		ldrb	r3, [r3]
 532 0222 DAB2     		uxtb	r2, r3
 533 0224 FB79     		ldrb	r3, [r7, #7]
 534 0226 1340     		ands	r3, r3, r2
 535 0228 DBB2     		uxtb	r3, r3
 536 022a FA79     		ldrb	r2, [r7, #7]	@ zero_extendqisi2
 537 022c 9A42     		cmp	r2, r3
 538 022e 0AD1     		bne	.L23
 539              		.loc 1 384 0 discriminator 2
 540 0230 164B     		ldr	r3, .L102+4
 541 0232 1B78     		ldrb	r3, [r3]
 542 0234 DBB2     		uxtb	r3, r3
 543 0236 43F00803 		orr	r3, r3, #8
 544 023a DAB2     		uxtb	r2, r3
 545 023c 134B     		ldr	r3, .L102+4
 546 023e 1A70     		strb	r2, [r3]
 547 0240 174B     		ldr	r3, .L102+24
 548 0242 0022     		movs	r2, #0
 549 0244 1A70     		strb	r2, [r3]
 550              	.L23:
 385:Generated_Source\PSoC5/RTC_INT.c ****                                                    RTC_alarmCurStatus,
 386:Generated_Source\PSoC5/RTC_INT.c ****                                                    RTC_statusDateTime);
 387:Generated_Source\PSoC5/RTC_INT.c **** 
 388:Generated_Source\PSoC5/RTC_INT.c ****                         /* Every Year */
 389:Generated_Source\PSoC5/RTC_INT.c ****                         if(0u != RTC_IS_BIT_SET(RTC_intervalCfgMask,
 551              		.loc 1 389 0 is_stmt 1
 552 0246 174B     		ldr	r3, .L102+28
 553 0248 1B78     		ldrb	r3, [r3]
 554 024a DBB2     		uxtb	r3, r3
 555 024c 03F04003 		and	r3, r3, #64
 556 0250 002B     		cmp	r3, #0
 557 0252 01D0     		beq	.L17
 390:Generated_Source\PSoC5/RTC_INT.c ****                                                              RTC_INTERVAL_YEAR_MASK))
 391:Generated_Source\PSoC5/RTC_INT.c ****                         {
 392:Generated_Source\PSoC5/RTC_INT.c ****                             RTC_EveryYearHandler();
 558              		.loc 1 392 0
 559 0254 FFF7FEFF 		bl	RTC_EveryYearHandler
 560              	.L17:
 393:Generated_Source\PSoC5/RTC_INT.c ****                         }
 394:Generated_Source\PSoC5/RTC_INT.c **** 
 395:Generated_Source\PSoC5/RTC_INT.c ****                     } /* Month > 12 */
 396:Generated_Source\PSoC5/RTC_INT.c **** 
 397:Generated_Source\PSoC5/RTC_INT.c ****                     /* Alarm MONTH */
 398:Generated_Source\PSoC5/RTC_INT.c ****                     if(0u != RTC_IS_BIT_SET(RTC_alarmCfgMask,
 561              		.loc 1 398 0
 562 0258 0F4B     		ldr	r3, .L102+16
 563 025a 1B78     		ldrb	r3, [r3]
 564 025c DBB2     		uxtb	r3, r3
ARM GAS  C:\Users\Admin\AppData\Local\Temp\cc0dUITO.s 			page 18


 565 025e 03F04003 		and	r3, r3, #64
 566 0262 002B     		cmp	r3, #0
 567 0264 28D0     		beq	.L24
 399:Generated_Source\PSoC5/RTC_INT.c ****                                                          RTC_ALARM_MONTH_MASK))
 400:Generated_Source\PSoC5/RTC_INT.c ****                     {
 401:Generated_Source\PSoC5/RTC_INT.c ****                         if(RTC_alarmCfgTimeDate.Month == RTC_currentTimeDate.Month)
 568              		.loc 1 401 0
 569 0266 0D4B     		ldr	r3, .L102+20
 570 0268 1B7A     		ldrb	r3, [r3, #8]
 571 026a DAB2     		uxtb	r2, r3
 572 026c 064B     		ldr	r3, .L102
 573 026e 1B7A     		ldrb	r3, [r3, #8]
 574 0270 DBB2     		uxtb	r3, r3
 575 0272 9A42     		cmp	r2, r3
 576 0274 18D1     		bne	.L25
 402:Generated_Source\PSoC5/RTC_INT.c ****                         {
 403:Generated_Source\PSoC5/RTC_INT.c ****                             /* Set month alarm */
 404:Generated_Source\PSoC5/RTC_INT.c ****                             RTC_alarmCurStatus |= RTC_ALARM_MONTH_MASK;
 577              		.loc 1 404 0
 578 0276 0A4B     		ldr	r3, .L102+24
 579 0278 1B78     		ldrb	r3, [r3]
 580 027a DBB2     		uxtb	r3, r3
 581 027c 43F04003 		orr	r3, r3, #64
 582 0280 DAB2     		uxtb	r2, r3
 583 0282 074B     		ldr	r3, .L102+24
 584 0284 1A70     		strb	r2, [r3]
 585 0286 17E0     		b	.L24
 586              	.L103:
 587              		.align	2
 588              	.L102:
 589 0288 00000000 		.word	RTC_currentTimeDate
 590 028c 00000000 		.word	RTC_statusDateTime
 591 0290 00000000 		.word	RTC_daysInMonths
 592 0294 1F85EB51 		.word	1374389535
 593 0298 00000000 		.word	RTC_alarmCfgMask
 594 029c 00000000 		.word	RTC_alarmCfgTimeDate
 595 02a0 00000000 		.word	RTC_alarmCurStatus
 596 02a4 00000000 		.word	RTC_intervalCfgMask
 597              	.L25:
 405:Generated_Source\PSoC5/RTC_INT.c ****                         }
 406:Generated_Source\PSoC5/RTC_INT.c ****                         else
 407:Generated_Source\PSoC5/RTC_INT.c ****                         {
 408:Generated_Source\PSoC5/RTC_INT.c ****                             /* Clear month alarm */
 409:Generated_Source\PSoC5/RTC_INT.c ****                             RTC_alarmCurStatus &= (uint8)(~RTC_ALARM_MONTH_MASK);
 598              		.loc 1 409 0
 599 02a8 A34B     		ldr	r3, .L104
 600 02aa 1B78     		ldrb	r3, [r3]
 601 02ac DBB2     		uxtb	r3, r3
 602 02ae 23F04003 		bic	r3, r3, #64
 603 02b2 DAB2     		uxtb	r2, r3
 604 02b4 A04B     		ldr	r3, .L104
 605 02b6 1A70     		strb	r2, [r3]
 606              	.L24:
 410:Generated_Source\PSoC5/RTC_INT.c ****                         }
 411:Generated_Source\PSoC5/RTC_INT.c ****                     }   /* Month alarm is masked */
 412:Generated_Source\PSoC5/RTC_INT.c **** 
 413:Generated_Source\PSoC5/RTC_INT.c ****                     #if (1u == RTC_DST_FUNC_ENABLE)
ARM GAS  C:\Users\Admin\AppData\Local\Temp\cc0dUITO.s 			page 19


 414:Generated_Source\PSoC5/RTC_INT.c ****                         if(RTC_dstTimeDateStop.Month == RTC_currentTimeDate.Month)
 607              		.loc 1 414 0
 608 02b8 A04B     		ldr	r3, .L104+4
 609 02ba 1B79     		ldrb	r3, [r3, #4]
 610 02bc DAB2     		uxtb	r2, r3
 611 02be A04B     		ldr	r3, .L104+8
 612 02c0 1B7A     		ldrb	r3, [r3, #8]
 613 02c2 DBB2     		uxtb	r3, r3
 614 02c4 9A42     		cmp	r2, r3
 615 02c6 08D1     		bne	.L26
 415:Generated_Source\PSoC5/RTC_INT.c ****                         {
 416:Generated_Source\PSoC5/RTC_INT.c ****                             RTC_dstStopStatus |= RTC_DST_MONTH;
 616              		.loc 1 416 0
 617 02c8 9E4B     		ldr	r3, .L104+12
 618 02ca 1B78     		ldrb	r3, [r3]
 619 02cc DBB2     		uxtb	r3, r3
 620 02ce 43F00403 		orr	r3, r3, #4
 621 02d2 DAB2     		uxtb	r2, r3
 622 02d4 9B4B     		ldr	r3, .L104+12
 623 02d6 1A70     		strb	r2, [r3]
 624 02d8 07E0     		b	.L27
 625              	.L26:
 417:Generated_Source\PSoC5/RTC_INT.c ****                         }
 418:Generated_Source\PSoC5/RTC_INT.c ****                         else
 419:Generated_Source\PSoC5/RTC_INT.c ****                         {
 420:Generated_Source\PSoC5/RTC_INT.c ****                             RTC_dstStopStatus &= (uint8)(~RTC_DST_MONTH);
 626              		.loc 1 420 0
 627 02da 9A4B     		ldr	r3, .L104+12
 628 02dc 1B78     		ldrb	r3, [r3]
 629 02de DBB2     		uxtb	r3, r3
 630 02e0 23F00403 		bic	r3, r3, #4
 631 02e4 DAB2     		uxtb	r2, r3
 632 02e6 974B     		ldr	r3, .L104+12
 633 02e8 1A70     		strb	r2, [r3]
 634              	.L27:
 421:Generated_Source\PSoC5/RTC_INT.c ****                         }
 422:Generated_Source\PSoC5/RTC_INT.c **** 
 423:Generated_Source\PSoC5/RTC_INT.c ****                         if(RTC_dstTimeDateStart.Month == RTC_currentTimeDate.Month)
 635              		.loc 1 423 0
 636 02ea 974B     		ldr	r3, .L104+16
 637 02ec 1B79     		ldrb	r3, [r3, #4]
 638 02ee DAB2     		uxtb	r2, r3
 639 02f0 934B     		ldr	r3, .L104+8
 640 02f2 1B7A     		ldrb	r3, [r3, #8]
 641 02f4 DBB2     		uxtb	r3, r3
 642 02f6 9A42     		cmp	r2, r3
 643 02f8 08D1     		bne	.L28
 424:Generated_Source\PSoC5/RTC_INT.c ****                         {
 425:Generated_Source\PSoC5/RTC_INT.c ****                             RTC_dstStartStatus |= RTC_DST_MONTH;
 644              		.loc 1 425 0
 645 02fa 944B     		ldr	r3, .L104+20
 646 02fc 1B78     		ldrb	r3, [r3]
 647 02fe DBB2     		uxtb	r3, r3
 648 0300 43F00403 		orr	r3, r3, #4
 649 0304 DAB2     		uxtb	r2, r3
 650 0306 914B     		ldr	r3, .L104+20
 651 0308 1A70     		strb	r2, [r3]
ARM GAS  C:\Users\Admin\AppData\Local\Temp\cc0dUITO.s 			page 20


 652 030a 07E0     		b	.L29
 653              	.L28:
 426:Generated_Source\PSoC5/RTC_INT.c ****                         }
 427:Generated_Source\PSoC5/RTC_INT.c ****                         else
 428:Generated_Source\PSoC5/RTC_INT.c ****                         {
 429:Generated_Source\PSoC5/RTC_INT.c ****                             RTC_dstStartStatus &= (uint8)(~RTC_DST_MONTH);
 654              		.loc 1 429 0
 655 030c 8F4B     		ldr	r3, .L104+20
 656 030e 1B78     		ldrb	r3, [r3]
 657 0310 DBB2     		uxtb	r3, r3
 658 0312 23F00403 		bic	r3, r3, #4
 659 0316 DAB2     		uxtb	r2, r3
 660 0318 8C4B     		ldr	r3, .L104+20
 661 031a 1A70     		strb	r2, [r3]
 662              	.L29:
 430:Generated_Source\PSoC5/RTC_INT.c ****                         }
 431:Generated_Source\PSoC5/RTC_INT.c ****                     #endif /* 1u == RTC_DST_FUNC_ENABLE */
 432:Generated_Source\PSoC5/RTC_INT.c **** 
 433:Generated_Source\PSoC5/RTC_INT.c ****                     /* Set Alarm flag event */
 434:Generated_Source\PSoC5/RTC_INT.c ****                     RTC_tmp = RTC_alarmCfgMask;
 663              		.loc 1 434 0
 664 031c 8C4B     		ldr	r3, .L104+24
 665 031e 1B78     		ldrb	r3, [r3]
 666 0320 FB71     		strb	r3, [r7, #7]
 435:Generated_Source\PSoC5/RTC_INT.c ****                     RTC_SET_ALARM(RTC_tmp,
 667              		.loc 1 435 0
 668 0322 FB79     		ldrb	r3, [r7, #7]	@ zero_extendqisi2
 669 0324 002B     		cmp	r3, #0
 670 0326 13D0     		beq	.L30
 671              		.loc 1 435 0 is_stmt 0 discriminator 1
 672 0328 834B     		ldr	r3, .L104
 673 032a 1B78     		ldrb	r3, [r3]
 674 032c DAB2     		uxtb	r2, r3
 675 032e FB79     		ldrb	r3, [r7, #7]
 676 0330 1340     		ands	r3, r3, r2
 677 0332 DBB2     		uxtb	r3, r3
 678 0334 FA79     		ldrb	r2, [r7, #7]	@ zero_extendqisi2
 679 0336 9A42     		cmp	r2, r3
 680 0338 0AD1     		bne	.L30
 681              		.loc 1 435 0 discriminator 2
 682 033a 864B     		ldr	r3, .L104+28
 683 033c 1B78     		ldrb	r3, [r3]
 684 033e DBB2     		uxtb	r3, r3
 685 0340 43F00803 		orr	r3, r3, #8
 686 0344 DAB2     		uxtb	r2, r3
 687 0346 834B     		ldr	r3, .L104+28
 688 0348 1A70     		strb	r2, [r3]
 689 034a 7B4B     		ldr	r3, .L104
 690 034c 0022     		movs	r2, #0
 691 034e 1A70     		strb	r2, [r3]
 692              	.L30:
 436:Generated_Source\PSoC5/RTC_INT.c ****                                                RTC_alarmCurStatus,
 437:Generated_Source\PSoC5/RTC_INT.c ****                                                RTC_statusDateTime);
 438:Generated_Source\PSoC5/RTC_INT.c **** 
 439:Generated_Source\PSoC5/RTC_INT.c ****                     /* Every Month */
 440:Generated_Source\PSoC5/RTC_INT.c ****                     if(0u != RTC_IS_BIT_SET(RTC_intervalCfgMask,
 693              		.loc 1 440 0 is_stmt 1
ARM GAS  C:\Users\Admin\AppData\Local\Temp\cc0dUITO.s 			page 21


 694 0350 814B     		ldr	r3, .L104+32
 695 0352 1B78     		ldrb	r3, [r3]
 696 0354 DBB2     		uxtb	r3, r3
 697 0356 03F02003 		and	r3, r3, #32
 698 035a 002B     		cmp	r3, #0
 699 035c 01D0     		beq	.L16
 441:Generated_Source\PSoC5/RTC_INT.c ****                                                          RTC_INTERVAL_MONTH_MASK))
 442:Generated_Source\PSoC5/RTC_INT.c ****                     {
 443:Generated_Source\PSoC5/RTC_INT.c ****                         RTC_EveryMonthHandler();
 700              		.loc 1 443 0
 701 035e FFF7FEFF 		bl	RTC_EveryMonthHandler
 702              	.L16:
 444:Generated_Source\PSoC5/RTC_INT.c ****                     }
 445:Generated_Source\PSoC5/RTC_INT.c ****                 }   /* Day roll over */
 446:Generated_Source\PSoC5/RTC_INT.c **** 
 447:Generated_Source\PSoC5/RTC_INT.c ****                 /* Alarm DAYOFWEEK */
 448:Generated_Source\PSoC5/RTC_INT.c ****                 if(0u != RTC_IS_BIT_SET(RTC_alarmCfgMask,
 703              		.loc 1 448 0
 704 0362 7B4B     		ldr	r3, .L104+24
 705 0364 1B78     		ldrb	r3, [r3]
 706 0366 DBB2     		uxtb	r3, r3
 707 0368 03F00803 		and	r3, r3, #8
 708 036c 002B     		cmp	r3, #0
 709 036e 18D0     		beq	.L31
 449:Generated_Source\PSoC5/RTC_INT.c ****                                                      RTC_ALARM_DAYOFWEEK_MASK))
 450:Generated_Source\PSoC5/RTC_INT.c ****                 {
 451:Generated_Source\PSoC5/RTC_INT.c ****                     if(RTC_alarmCfgTimeDate.DayOfWeek == RTC_currentTimeDate.DayOfWeek)
 710              		.loc 1 451 0
 711 0370 7A4B     		ldr	r3, .L104+36
 712 0372 DB78     		ldrb	r3, [r3, #3]
 713 0374 DAB2     		uxtb	r2, r3
 714 0376 724B     		ldr	r3, .L104+8
 715 0378 DB78     		ldrb	r3, [r3, #3]
 716 037a DBB2     		uxtb	r3, r3
 717 037c 9A42     		cmp	r2, r3
 718 037e 08D1     		bne	.L32
 452:Generated_Source\PSoC5/RTC_INT.c ****                     {
 453:Generated_Source\PSoC5/RTC_INT.c ****                         /* Set day of week alarm */
 454:Generated_Source\PSoC5/RTC_INT.c ****                         RTC_alarmCurStatus |= RTC_ALARM_DAYOFWEEK_MASK;
 719              		.loc 1 454 0
 720 0380 6D4B     		ldr	r3, .L104
 721 0382 1B78     		ldrb	r3, [r3]
 722 0384 DBB2     		uxtb	r3, r3
 723 0386 43F00803 		orr	r3, r3, #8
 724 038a DAB2     		uxtb	r2, r3
 725 038c 6A4B     		ldr	r3, .L104
 726 038e 1A70     		strb	r2, [r3]
 727 0390 07E0     		b	.L31
 728              	.L32:
 455:Generated_Source\PSoC5/RTC_INT.c ****                     }
 456:Generated_Source\PSoC5/RTC_INT.c ****                     else
 457:Generated_Source\PSoC5/RTC_INT.c ****                     {
 458:Generated_Source\PSoC5/RTC_INT.c ****                         /* Clear day of week alarm */
 459:Generated_Source\PSoC5/RTC_INT.c ****                         RTC_alarmCurStatus &= (uint8)(~RTC_ALARM_DAYOFWEEK_MASK);
 729              		.loc 1 459 0
 730 0392 694B     		ldr	r3, .L104
 731 0394 1B78     		ldrb	r3, [r3]
ARM GAS  C:\Users\Admin\AppData\Local\Temp\cc0dUITO.s 			page 22


 732 0396 DBB2     		uxtb	r3, r3
 733 0398 23F00803 		bic	r3, r3, #8
 734 039c DAB2     		uxtb	r2, r3
 735 039e 664B     		ldr	r3, .L104
 736 03a0 1A70     		strb	r2, [r3]
 737              	.L31:
 460:Generated_Source\PSoC5/RTC_INT.c ****                     }
 461:Generated_Source\PSoC5/RTC_INT.c ****                 }   /* Day of week alarm is masked */
 462:Generated_Source\PSoC5/RTC_INT.c **** 
 463:Generated_Source\PSoC5/RTC_INT.c ****                 /* Alarm DAYOFYEAR */
 464:Generated_Source\PSoC5/RTC_INT.c ****                 if(0u != RTC_IS_BIT_SET(RTC_alarmCfgMask,
 738              		.loc 1 464 0
 739 03a2 6B4B     		ldr	r3, .L104+24
 740 03a4 1B78     		ldrb	r3, [r3]
 741 03a6 DBB2     		uxtb	r3, r3
 742 03a8 03F02003 		and	r3, r3, #32
 743 03ac 002B     		cmp	r3, #0
 744 03ae 18D0     		beq	.L33
 465:Generated_Source\PSoC5/RTC_INT.c ****                                                      RTC_ALARM_DAYOFYEAR_MASK))
 466:Generated_Source\PSoC5/RTC_INT.c ****                 {
 467:Generated_Source\PSoC5/RTC_INT.c ****                     if(RTC_alarmCfgTimeDate.DayOfYear == RTC_currentTimeDate.DayOfYear)
 745              		.loc 1 467 0
 746 03b0 6A4B     		ldr	r3, .L104+36
 747 03b2 DB88     		ldrh	r3, [r3, #6]	@ movhi
 748 03b4 9AB2     		uxth	r2, r3
 749 03b6 624B     		ldr	r3, .L104+8
 750 03b8 DB88     		ldrh	r3, [r3, #6]	@ movhi
 751 03ba 9BB2     		uxth	r3, r3
 752 03bc 9A42     		cmp	r2, r3
 753 03be 08D1     		bne	.L34
 468:Generated_Source\PSoC5/RTC_INT.c ****                     {
 469:Generated_Source\PSoC5/RTC_INT.c ****                         /* Set day of year alarm */
 470:Generated_Source\PSoC5/RTC_INT.c ****                         RTC_alarmCurStatus |= RTC_ALARM_DAYOFYEAR_MASK;
 754              		.loc 1 470 0
 755 03c0 5D4B     		ldr	r3, .L104
 756 03c2 1B78     		ldrb	r3, [r3]
 757 03c4 DBB2     		uxtb	r3, r3
 758 03c6 43F02003 		orr	r3, r3, #32
 759 03ca DAB2     		uxtb	r2, r3
 760 03cc 5A4B     		ldr	r3, .L104
 761 03ce 1A70     		strb	r2, [r3]
 762 03d0 07E0     		b	.L33
 763              	.L34:
 471:Generated_Source\PSoC5/RTC_INT.c ****                     }
 472:Generated_Source\PSoC5/RTC_INT.c ****                     else
 473:Generated_Source\PSoC5/RTC_INT.c ****                     {
 474:Generated_Source\PSoC5/RTC_INT.c ****                         /* Clear day of year alarm */
 475:Generated_Source\PSoC5/RTC_INT.c ****                         RTC_alarmCurStatus &= (uint8)(~RTC_ALARM_DAYOFYEAR_MASK);
 764              		.loc 1 475 0
 765 03d2 594B     		ldr	r3, .L104
 766 03d4 1B78     		ldrb	r3, [r3]
 767 03d6 DBB2     		uxtb	r3, r3
 768 03d8 23F02003 		bic	r3, r3, #32
 769 03dc DAB2     		uxtb	r2, r3
 770 03de 564B     		ldr	r3, .L104
 771 03e0 1A70     		strb	r2, [r3]
 772              	.L33:
ARM GAS  C:\Users\Admin\AppData\Local\Temp\cc0dUITO.s 			page 23


 476:Generated_Source\PSoC5/RTC_INT.c ****                     }
 477:Generated_Source\PSoC5/RTC_INT.c ****                 }   /* Day of year alarm is masked */
 478:Generated_Source\PSoC5/RTC_INT.c **** 
 479:Generated_Source\PSoC5/RTC_INT.c ****                 /* Alarm DAYOFMONTH */
 480:Generated_Source\PSoC5/RTC_INT.c ****                 if(0u != RTC_IS_BIT_SET(RTC_alarmCfgMask,
 773              		.loc 1 480 0
 774 03e2 5B4B     		ldr	r3, .L104+24
 775 03e4 1B78     		ldrb	r3, [r3]
 776 03e6 DBB2     		uxtb	r3, r3
 777 03e8 03F01003 		and	r3, r3, #16
 778 03ec 002B     		cmp	r3, #0
 779 03ee 18D0     		beq	.L35
 481:Generated_Source\PSoC5/RTC_INT.c ****                          RTC_ALARM_DAYOFMONTH_MASK))
 482:Generated_Source\PSoC5/RTC_INT.c ****                 {
 483:Generated_Source\PSoC5/RTC_INT.c ****                     if(RTC_alarmCfgTimeDate.DayOfMonth == RTC_currentTimeDate.DayOfMonth)
 780              		.loc 1 483 0
 781 03f0 5A4B     		ldr	r3, .L104+36
 782 03f2 1B79     		ldrb	r3, [r3, #4]
 783 03f4 DAB2     		uxtb	r2, r3
 784 03f6 524B     		ldr	r3, .L104+8
 785 03f8 1B79     		ldrb	r3, [r3, #4]
 786 03fa DBB2     		uxtb	r3, r3
 787 03fc 9A42     		cmp	r2, r3
 788 03fe 08D1     		bne	.L36
 484:Generated_Source\PSoC5/RTC_INT.c ****                     {
 485:Generated_Source\PSoC5/RTC_INT.c ****                         /* Set day of month alarm */
 486:Generated_Source\PSoC5/RTC_INT.c ****                         RTC_alarmCurStatus |= RTC_ALARM_DAYOFMONTH_MASK;
 789              		.loc 1 486 0
 790 0400 4D4B     		ldr	r3, .L104
 791 0402 1B78     		ldrb	r3, [r3]
 792 0404 DBB2     		uxtb	r3, r3
 793 0406 43F01003 		orr	r3, r3, #16
 794 040a DAB2     		uxtb	r2, r3
 795 040c 4A4B     		ldr	r3, .L104
 796 040e 1A70     		strb	r2, [r3]
 797 0410 07E0     		b	.L35
 798              	.L36:
 487:Generated_Source\PSoC5/RTC_INT.c ****                     }
 488:Generated_Source\PSoC5/RTC_INT.c ****                     else
 489:Generated_Source\PSoC5/RTC_INT.c ****                     {
 490:Generated_Source\PSoC5/RTC_INT.c ****                         /* Clear day of month alarm */
 491:Generated_Source\PSoC5/RTC_INT.c ****                         RTC_alarmCurStatus &= (uint8)(~RTC_ALARM_DAYOFMONTH_MASK);
 799              		.loc 1 491 0
 800 0412 494B     		ldr	r3, .L104
 801 0414 1B78     		ldrb	r3, [r3]
 802 0416 DBB2     		uxtb	r3, r3
 803 0418 23F01003 		bic	r3, r3, #16
 804 041c DAB2     		uxtb	r2, r3
 805 041e 464B     		ldr	r3, .L104
 806 0420 1A70     		strb	r2, [r3]
 807              	.L35:
 492:Generated_Source\PSoC5/RTC_INT.c ****                     }
 493:Generated_Source\PSoC5/RTC_INT.c ****                 }   /* Day of month alarm is masked */
 494:Generated_Source\PSoC5/RTC_INT.c **** 
 495:Generated_Source\PSoC5/RTC_INT.c ****                 #if (1u == RTC_DST_FUNC_ENABLE)
 496:Generated_Source\PSoC5/RTC_INT.c ****                     if(RTC_dstTimeDateStop.DayOfMonth == RTC_currentTimeDate.DayOfMonth)
 808              		.loc 1 496 0
ARM GAS  C:\Users\Admin\AppData\Local\Temp\cc0dUITO.s 			page 24


 809 0422 464B     		ldr	r3, .L104+4
 810 0424 DB78     		ldrb	r3, [r3, #3]
 811 0426 DAB2     		uxtb	r2, r3
 812 0428 454B     		ldr	r3, .L104+8
 813 042a 1B79     		ldrb	r3, [r3, #4]
 814 042c DBB2     		uxtb	r3, r3
 815 042e 9A42     		cmp	r2, r3
 816 0430 08D1     		bne	.L37
 497:Generated_Source\PSoC5/RTC_INT.c ****                     {
 498:Generated_Source\PSoC5/RTC_INT.c ****                         RTC_dstStopStatus |= RTC_DST_DAYOFMONTH;
 817              		.loc 1 498 0
 818 0432 444B     		ldr	r3, .L104+12
 819 0434 1B78     		ldrb	r3, [r3]
 820 0436 DBB2     		uxtb	r3, r3
 821 0438 43F00203 		orr	r3, r3, #2
 822 043c DAB2     		uxtb	r2, r3
 823 043e 414B     		ldr	r3, .L104+12
 824 0440 1A70     		strb	r2, [r3]
 825 0442 07E0     		b	.L38
 826              	.L37:
 499:Generated_Source\PSoC5/RTC_INT.c ****                     }
 500:Generated_Source\PSoC5/RTC_INT.c ****                     else
 501:Generated_Source\PSoC5/RTC_INT.c ****                     {
 502:Generated_Source\PSoC5/RTC_INT.c ****                         RTC_dstStopStatus &= (uint8)(~RTC_DST_DAYOFMONTH);
 827              		.loc 1 502 0
 828 0444 3F4B     		ldr	r3, .L104+12
 829 0446 1B78     		ldrb	r3, [r3]
 830 0448 DBB2     		uxtb	r3, r3
 831 044a 23F00203 		bic	r3, r3, #2
 832 044e DAB2     		uxtb	r2, r3
 833 0450 3C4B     		ldr	r3, .L104+12
 834 0452 1A70     		strb	r2, [r3]
 835              	.L38:
 503:Generated_Source\PSoC5/RTC_INT.c ****                     }
 504:Generated_Source\PSoC5/RTC_INT.c **** 
 505:Generated_Source\PSoC5/RTC_INT.c ****                     if(RTC_dstTimeDateStart.DayOfMonth == RTC_currentTimeDate.DayOfMonth)
 836              		.loc 1 505 0
 837 0454 3C4B     		ldr	r3, .L104+16
 838 0456 DB78     		ldrb	r3, [r3, #3]
 839 0458 DAB2     		uxtb	r2, r3
 840 045a 394B     		ldr	r3, .L104+8
 841 045c 1B79     		ldrb	r3, [r3, #4]
 842 045e DBB2     		uxtb	r3, r3
 843 0460 9A42     		cmp	r2, r3
 844 0462 08D1     		bne	.L39
 506:Generated_Source\PSoC5/RTC_INT.c ****                     {
 507:Generated_Source\PSoC5/RTC_INT.c ****                         RTC_dstStartStatus |= RTC_DST_DAYOFMONTH;
 845              		.loc 1 507 0
 846 0464 394B     		ldr	r3, .L104+20
 847 0466 1B78     		ldrb	r3, [r3]
 848 0468 DBB2     		uxtb	r3, r3
 849 046a 43F00203 		orr	r3, r3, #2
 850 046e DAB2     		uxtb	r2, r3
 851 0470 364B     		ldr	r3, .L104+20
 852 0472 1A70     		strb	r2, [r3]
 853 0474 07E0     		b	.L40
 854              	.L39:
ARM GAS  C:\Users\Admin\AppData\Local\Temp\cc0dUITO.s 			page 25


 508:Generated_Source\PSoC5/RTC_INT.c ****                     }
 509:Generated_Source\PSoC5/RTC_INT.c ****                     else
 510:Generated_Source\PSoC5/RTC_INT.c ****                     {
 511:Generated_Source\PSoC5/RTC_INT.c ****                         RTC_dstStartStatus &= (uint8)(~RTC_DST_DAYOFMONTH);
 855              		.loc 1 511 0
 856 0476 354B     		ldr	r3, .L104+20
 857 0478 1B78     		ldrb	r3, [r3]
 858 047a DBB2     		uxtb	r3, r3
 859 047c 23F00203 		bic	r3, r3, #2
 860 0480 DAB2     		uxtb	r2, r3
 861 0482 324B     		ldr	r3, .L104+20
 862 0484 1A70     		strb	r2, [r3]
 863              	.L40:
 512:Generated_Source\PSoC5/RTC_INT.c ****                     }
 513:Generated_Source\PSoC5/RTC_INT.c ****                 #endif /* 1u == RTC_DST_FUNC_ENABLE */
 514:Generated_Source\PSoC5/RTC_INT.c **** 
 515:Generated_Source\PSoC5/RTC_INT.c ****                 /* Set Alarm flag event */
 516:Generated_Source\PSoC5/RTC_INT.c ****                 RTC_tmp = RTC_alarmCfgMask;
 864              		.loc 1 516 0
 865 0486 324B     		ldr	r3, .L104+24
 866 0488 1B78     		ldrb	r3, [r3]
 867 048a FB71     		strb	r3, [r7, #7]
 517:Generated_Source\PSoC5/RTC_INT.c ****                 RTC_SET_ALARM(RTC_tmp,
 868              		.loc 1 517 0
 869 048c FB79     		ldrb	r3, [r7, #7]	@ zero_extendqisi2
 870 048e 002B     		cmp	r3, #0
 871 0490 13D0     		beq	.L41
 872              		.loc 1 517 0 is_stmt 0 discriminator 1
 873 0492 294B     		ldr	r3, .L104
 874 0494 1B78     		ldrb	r3, [r3]
 875 0496 DAB2     		uxtb	r2, r3
 876 0498 FB79     		ldrb	r3, [r7, #7]
 877 049a 1340     		ands	r3, r3, r2
 878 049c DBB2     		uxtb	r3, r3
 879 049e FA79     		ldrb	r2, [r7, #7]	@ zero_extendqisi2
 880 04a0 9A42     		cmp	r2, r3
 881 04a2 0AD1     		bne	.L41
 882              		.loc 1 517 0 discriminator 2
 883 04a4 2B4B     		ldr	r3, .L104+28
 884 04a6 1B78     		ldrb	r3, [r3]
 885 04a8 DBB2     		uxtb	r3, r3
 886 04aa 43F00803 		orr	r3, r3, #8
 887 04ae DAB2     		uxtb	r2, r3
 888 04b0 284B     		ldr	r3, .L104+28
 889 04b2 1A70     		strb	r2, [r3]
 890 04b4 204B     		ldr	r3, .L104
 891 04b6 0022     		movs	r2, #0
 892 04b8 1A70     		strb	r2, [r3]
 893              	.L41:
 518:Generated_Source\PSoC5/RTC_INT.c ****                                            RTC_alarmCurStatus,
 519:Generated_Source\PSoC5/RTC_INT.c ****                                            RTC_statusDateTime);
 520:Generated_Source\PSoC5/RTC_INT.c **** 
 521:Generated_Source\PSoC5/RTC_INT.c ****                 /* Every Day */
 522:Generated_Source\PSoC5/RTC_INT.c ****                 if(0u != RTC_IS_BIT_SET(RTC_intervalCfgMask,
 894              		.loc 1 522 0 is_stmt 1
 895 04ba 274B     		ldr	r3, .L104+32
 896 04bc 1B78     		ldrb	r3, [r3]
ARM GAS  C:\Users\Admin\AppData\Local\Temp\cc0dUITO.s 			page 26


 897 04be DBB2     		uxtb	r3, r3
 898 04c0 03F00803 		and	r3, r3, #8
 899 04c4 002B     		cmp	r3, #0
 900 04c6 01D0     		beq	.L42
 523:Generated_Source\PSoC5/RTC_INT.c ****                          RTC_INTERVAL_DAY_MASK))
 524:Generated_Source\PSoC5/RTC_INT.c ****                 {
 525:Generated_Source\PSoC5/RTC_INT.c ****                     RTC_EveryDayHandler();
 901              		.loc 1 525 0
 902 04c8 FFF7FEFF 		bl	RTC_EveryDayHandler
 903              	.L42:
 526:Generated_Source\PSoC5/RTC_INT.c ****                 }
 527:Generated_Source\PSoC5/RTC_INT.c **** 
 528:Generated_Source\PSoC5/RTC_INT.c ****                 if(1u == RTC_currentTimeDate.DayOfWeek)
 904              		.loc 1 528 0
 905 04cc 1C4B     		ldr	r3, .L104+8
 906 04ce DB78     		ldrb	r3, [r3, #3]
 907 04d0 DBB2     		uxtb	r3, r3
 908 04d2 012B     		cmp	r3, #1
 909 04d4 08D1     		bne	.L11
 529:Generated_Source\PSoC5/RTC_INT.c ****                 {
 530:Generated_Source\PSoC5/RTC_INT.c ****                     /* Every Week */
 531:Generated_Source\PSoC5/RTC_INT.c ****                     if(0u != RTC_IS_BIT_SET(RTC_intervalCfgMask,
 910              		.loc 1 531 0
 911 04d6 204B     		ldr	r3, .L104+32
 912 04d8 1B78     		ldrb	r3, [r3]
 913 04da DBB2     		uxtb	r3, r3
 914 04dc 03F01003 		and	r3, r3, #16
 915 04e0 002B     		cmp	r3, #0
 916 04e2 01D0     		beq	.L11
 532:Generated_Source\PSoC5/RTC_INT.c ****                                                          RTC_INTERVAL_WEEK_MASK))
 533:Generated_Source\PSoC5/RTC_INT.c ****                     {
 534:Generated_Source\PSoC5/RTC_INT.c ****                        RTC_EveryWeekHandler();
 917              		.loc 1 534 0
 918 04e4 FFF7FEFF 		bl	RTC_EveryWeekHandler
 919              	.L11:
 535:Generated_Source\PSoC5/RTC_INT.c ****                     }
 536:Generated_Source\PSoC5/RTC_INT.c ****                 }
 537:Generated_Source\PSoC5/RTC_INT.c **** 
 538:Generated_Source\PSoC5/RTC_INT.c ****             } /* End of day roll over */
 539:Generated_Source\PSoC5/RTC_INT.c **** 
 540:Generated_Source\PSoC5/RTC_INT.c ****             /* Status set PM/AM flag */
 541:Generated_Source\PSoC5/RTC_INT.c ****             if(RTC_currentTimeDate.Hour < RTC_HALF_OF_DAY_ELAPSED)
 920              		.loc 1 541 0
 921 04e8 154B     		ldr	r3, .L104+8
 922 04ea 9B78     		ldrb	r3, [r3, #2]
 923 04ec DBB2     		uxtb	r3, r3
 924 04ee 0B2B     		cmp	r3, #11
 925 04f0 08D8     		bhi	.L43
 542:Generated_Source\PSoC5/RTC_INT.c ****             {
 543:Generated_Source\PSoC5/RTC_INT.c ****                 /* AM Hour 00:00-11:59, flag zero */
 544:Generated_Source\PSoC5/RTC_INT.c ****                 RTC_statusDateTime &= (uint8)(~RTC_STATUS_AM_PM);
 926              		.loc 1 544 0
 927 04f2 184B     		ldr	r3, .L104+28
 928 04f4 1B78     		ldrb	r3, [r3]
 929 04f6 DBB2     		uxtb	r3, r3
 930 04f8 23F00403 		bic	r3, r3, #4
 931 04fc DAB2     		uxtb	r2, r3
ARM GAS  C:\Users\Admin\AppData\Local\Temp\cc0dUITO.s 			page 27


 932 04fe 154B     		ldr	r3, .L104+28
 933 0500 1A70     		strb	r2, [r3]
 934 0502 07E0     		b	.L44
 935              	.L43:
 545:Generated_Source\PSoC5/RTC_INT.c ****             }
 546:Generated_Source\PSoC5/RTC_INT.c ****             else
 547:Generated_Source\PSoC5/RTC_INT.c ****             {
 548:Generated_Source\PSoC5/RTC_INT.c ****                 /* PM Hour 12:00-23:59, flag set */
 549:Generated_Source\PSoC5/RTC_INT.c ****                 RTC_statusDateTime |= RTC_STATUS_AM_PM;
 936              		.loc 1 549 0
 937 0504 134B     		ldr	r3, .L104+28
 938 0506 1B78     		ldrb	r3, [r3]
 939 0508 DBB2     		uxtb	r3, r3
 940 050a 43F00403 		orr	r3, r3, #4
 941 050e DAB2     		uxtb	r2, r3
 942 0510 104B     		ldr	r3, .L104+28
 943 0512 1A70     		strb	r2, [r3]
 944              	.L44:
 550:Generated_Source\PSoC5/RTC_INT.c ****             }
 551:Generated_Source\PSoC5/RTC_INT.c **** 
 552:Generated_Source\PSoC5/RTC_INT.c ****             #if (1u == RTC_DST_FUNC_ENABLE)
 553:Generated_Source\PSoC5/RTC_INT.c ****                 if(RTC_dstTimeDateStop.Hour == RTC_currentTimeDate.Hour)
 945              		.loc 1 553 0
 946 0514 094B     		ldr	r3, .L104+4
 947 0516 1B78     		ldrb	r3, [r3]
 948 0518 DAB2     		uxtb	r2, r3
 949 051a 094B     		ldr	r3, .L104+8
 950 051c 9B78     		ldrb	r3, [r3, #2]
 951 051e DBB2     		uxtb	r3, r3
 952 0520 9A42     		cmp	r2, r3
 953 0522 1DD1     		bne	.L45
 554:Generated_Source\PSoC5/RTC_INT.c ****                 {
 555:Generated_Source\PSoC5/RTC_INT.c ****                     RTC_dstStopStatus |= RTC_DST_HOUR;
 954              		.loc 1 555 0
 955 0524 074B     		ldr	r3, .L104+12
 956 0526 1B78     		ldrb	r3, [r3]
 957 0528 DBB2     		uxtb	r3, r3
 958 052a 43F00103 		orr	r3, r3, #1
 959 052e DAB2     		uxtb	r2, r3
 960 0530 044B     		ldr	r3, .L104+12
 961 0532 1A70     		strb	r2, [r3]
 962 0534 1CE0     		b	.L46
 963              	.L105:
 964 0536 00BF     		.align	2
 965              	.L104:
 966 0538 00000000 		.word	RTC_alarmCurStatus
 967 053c 00000000 		.word	RTC_dstTimeDateStop
 968 0540 00000000 		.word	RTC_currentTimeDate
 969 0544 00000000 		.word	RTC_dstStopStatus
 970 0548 00000000 		.word	RTC_dstTimeDateStart
 971 054c 00000000 		.word	RTC_dstStartStatus
 972 0550 00000000 		.word	RTC_alarmCfgMask
 973 0554 00000000 		.word	RTC_statusDateTime
 974 0558 00000000 		.word	RTC_intervalCfgMask
 975 055c 00000000 		.word	RTC_alarmCfgTimeDate
 976              	.L45:
 556:Generated_Source\PSoC5/RTC_INT.c ****                 }
ARM GAS  C:\Users\Admin\AppData\Local\Temp\cc0dUITO.s 			page 28


 557:Generated_Source\PSoC5/RTC_INT.c ****                 else
 558:Generated_Source\PSoC5/RTC_INT.c ****                 {
 559:Generated_Source\PSoC5/RTC_INT.c ****                     RTC_dstStopStatus &= (uint8)(~RTC_DST_HOUR);
 977              		.loc 1 559 0
 978 0560 A24B     		ldr	r3, .L106
 979 0562 1B78     		ldrb	r3, [r3]
 980 0564 DBB2     		uxtb	r3, r3
 981 0566 23F00103 		bic	r3, r3, #1
 982 056a DAB2     		uxtb	r2, r3
 983 056c 9F4B     		ldr	r3, .L106
 984 056e 1A70     		strb	r2, [r3]
 985              	.L46:
 560:Generated_Source\PSoC5/RTC_INT.c ****                 }
 561:Generated_Source\PSoC5/RTC_INT.c **** 
 562:Generated_Source\PSoC5/RTC_INT.c ****                 if(RTC_dstTimeDateStart.Hour == RTC_currentTimeDate.Hour)
 986              		.loc 1 562 0
 987 0570 9F4B     		ldr	r3, .L106+4
 988 0572 1B78     		ldrb	r3, [r3]
 989 0574 DAB2     		uxtb	r2, r3
 990 0576 9F4B     		ldr	r3, .L106+8
 991 0578 9B78     		ldrb	r3, [r3, #2]
 992 057a DBB2     		uxtb	r3, r3
 993 057c 9A42     		cmp	r2, r3
 994 057e 08D1     		bne	.L47
 563:Generated_Source\PSoC5/RTC_INT.c ****                 {
 564:Generated_Source\PSoC5/RTC_INT.c ****                     RTC_dstStartStatus |= RTC_DST_HOUR;
 995              		.loc 1 564 0
 996 0580 9D4B     		ldr	r3, .L106+12
 997 0582 1B78     		ldrb	r3, [r3]
 998 0584 DBB2     		uxtb	r3, r3
 999 0586 43F00103 		orr	r3, r3, #1
 1000 058a DAB2     		uxtb	r2, r3
 1001 058c 9A4B     		ldr	r3, .L106+12
 1002 058e 1A70     		strb	r2, [r3]
 1003 0590 07E0     		b	.L48
 1004              	.L47:
 565:Generated_Source\PSoC5/RTC_INT.c ****                 }
 566:Generated_Source\PSoC5/RTC_INT.c ****                 else
 567:Generated_Source\PSoC5/RTC_INT.c ****                 {
 568:Generated_Source\PSoC5/RTC_INT.c ****                 RTC_dstStartStatus &= (uint8)(~RTC_DST_HOUR);
 1005              		.loc 1 568 0
 1006 0592 994B     		ldr	r3, .L106+12
 1007 0594 1B78     		ldrb	r3, [r3]
 1008 0596 DBB2     		uxtb	r3, r3
 1009 0598 23F00103 		bic	r3, r3, #1
 1010 059c DAB2     		uxtb	r2, r3
 1011 059e 964B     		ldr	r3, .L106+12
 1012 05a0 1A70     		strb	r2, [r3]
 1013              	.L48:
 569:Generated_Source\PSoC5/RTC_INT.c ****                 }
 570:Generated_Source\PSoC5/RTC_INT.c **** 
 571:Generated_Source\PSoC5/RTC_INT.c ****                 /* DST Enable ? */
 572:Generated_Source\PSoC5/RTC_INT.c ****                 if(0u != RTC_IS_BIT_SET(RTC_dstModeType, RTC_DST_ENABLE))
 1014              		.loc 1 572 0
 1015 05a2 964B     		ldr	r3, .L106+16
 1016 05a4 1B78     		ldrb	r3, [r3]
 1017 05a6 DBB2     		uxtb	r3, r3
ARM GAS  C:\Users\Admin\AppData\Local\Temp\cc0dUITO.s 			page 29


 1018 05a8 03F00103 		and	r3, r3, #1
 1019 05ac 002B     		cmp	r3, #0
 1020 05ae 00F05583 		beq	.L49
 573:Generated_Source\PSoC5/RTC_INT.c ****                 {
 574:Generated_Source\PSoC5/RTC_INT.c ****                     if(0u != RTC_IS_BIT_SET(RTC_statusDateTime, RTC_STATUS_DST))
 1021              		.loc 1 574 0
 1022 05b2 934B     		ldr	r3, .L106+20
 1023 05b4 1B78     		ldrb	r3, [r3]
 1024 05b6 DBB2     		uxtb	r3, r3
 1025 05b8 03F00103 		and	r3, r3, #1
 1026 05bc 002B     		cmp	r3, #0
 1027 05be 00F02981 		beq	.L50
 575:Generated_Source\PSoC5/RTC_INT.c ****                     {
 576:Generated_Source\PSoC5/RTC_INT.c ****                         if(0u != RTC_IS_BIT_SET(RTC_dstStopStatus, RTC_DST_HOUR |
 1028              		.loc 1 576 0
 1029 05c2 8A4B     		ldr	r3, .L106
 1030 05c4 1B78     		ldrb	r3, [r3]
 1031 05c6 DBB2     		uxtb	r3, r3
 1032 05c8 03F00703 		and	r3, r3, #7
 1033 05cc 072B     		cmp	r3, #7
 1034 05ce 40F08C82 		bne	.L64
 577:Generated_Source\PSoC5/RTC_INT.c ****                                                        RTC_DST_DAYOFMONTH | RTC_DST_MONTH))
 578:Generated_Source\PSoC5/RTC_INT.c ****                         {
 579:Generated_Source\PSoC5/RTC_INT.c ****                             /* Substruct from current value of minutes, number of minutes
 580:Generated_Source\PSoC5/RTC_INT.c ****                             * in DST offset which is out of complete hour
 581:Generated_Source\PSoC5/RTC_INT.c ****                             */
 582:Generated_Source\PSoC5/RTC_INT.c ****                             RTC_currentTimeDate.Min -=
 583:Generated_Source\PSoC5/RTC_INT.c ****                                                 RTC_dstOffsetMin % (RTC_HOUR_ELAPSED + 1u);
 1035              		.loc 1 583 0
 1036 05d2 8C4B     		ldr	r3, .L106+24
 1037 05d4 1B78     		ldrb	r3, [r3]
 1038 05d6 DAB2     		uxtb	r2, r3
 1039 05d8 8B4B     		ldr	r3, .L106+28
 1040 05da A3FB0213 		umull	r1, r3, r3, r2
 1041 05de 5909     		lsrs	r1, r3, #5
 1042 05e0 0B46     		mov	r3, r1
 1043 05e2 1B01     		lsls	r3, r3, #4
 1044 05e4 5B1A     		subs	r3, r3, r1
 1045 05e6 9B00     		lsls	r3, r3, #2
 1046 05e8 D31A     		subs	r3, r2, r3
 1047 05ea DBB2     		uxtb	r3, r3
 1048 05ec 1946     		mov	r1, r3
 582:Generated_Source\PSoC5/RTC_INT.c ****                                                 RTC_dstOffsetMin % (RTC_HOUR_ELAPSED + 1u);
 1049              		.loc 1 582 0
 1050 05ee 814B     		ldr	r3, .L106+8
 1051 05f0 5B78     		ldrb	r3, [r3, #1]
 1052 05f2 DAB2     		uxtb	r2, r3
 1053 05f4 CBB2     		uxtb	r3, r1
 1054 05f6 D31A     		subs	r3, r2, r3
 1055 05f8 DAB2     		uxtb	r2, r3
 1056 05fa 7E4B     		ldr	r3, .L106+8
 1057 05fc 5A70     		strb	r2, [r3, #1]
 584:Generated_Source\PSoC5/RTC_INT.c **** 
 585:Generated_Source\PSoC5/RTC_INT.c ****                             /* Is minute value negative? */
 586:Generated_Source\PSoC5/RTC_INT.c ****                             if(RTC_currentTimeDate.Min > RTC_HOUR_ELAPSED)
 1058              		.loc 1 586 0
 1059 05fe 7D4B     		ldr	r3, .L106+8
ARM GAS  C:\Users\Admin\AppData\Local\Temp\cc0dUITO.s 			page 30


 1060 0600 5B78     		ldrb	r3, [r3, #1]
 1061 0602 DBB2     		uxtb	r3, r3
 1062 0604 3B2B     		cmp	r3, #59
 1063 0606 0DD9     		bls	.L52
 587:Generated_Source\PSoC5/RTC_INT.c ****                             {
 588:Generated_Source\PSoC5/RTC_INT.c ****                                 /* Convert to the positive.
 589:Generated_Source\PSoC5/RTC_INT.c ****                                 * HOUR_ELAPSED -     (~currentTimeDate.Min    ) ==
 590:Generated_Source\PSoC5/RTC_INT.c ****                                 * HOUR_ELAPSED + 1 - (~currentTimeDate.Min + 1)
 591:Generated_Source\PSoC5/RTC_INT.c ****                                 */
 592:Generated_Source\PSoC5/RTC_INT.c ****                                 RTC_currentTimeDate.Min = RTC_HOUR_ELAPSED -
 593:Generated_Source\PSoC5/RTC_INT.c ****                                                              ((uint8)(~RTC_currentTimeDate.Min));
 1064              		.loc 1 593 0
 1065 0608 7A4B     		ldr	r3, .L106+8
 1066 060a 5B78     		ldrb	r3, [r3, #1]
 1067 060c DBB2     		uxtb	r3, r3
 592:Generated_Source\PSoC5/RTC_INT.c ****                                                              ((uint8)(~RTC_currentTimeDate.Min));
 1068              		.loc 1 592 0
 1069 060e 3C33     		adds	r3, r3, #60
 1070 0610 DAB2     		uxtb	r2, r3
 1071 0612 784B     		ldr	r3, .L106+8
 1072 0614 5A70     		strb	r2, [r3, #1]
 594:Generated_Source\PSoC5/RTC_INT.c **** 
 595:Generated_Source\PSoC5/RTC_INT.c ****                                 RTC_currentTimeDate.Hour--;
 1073              		.loc 1 595 0
 1074 0616 774B     		ldr	r3, .L106+8
 1075 0618 9B78     		ldrb	r3, [r3, #2]
 1076 061a DBB2     		uxtb	r3, r3
 1077 061c 013B     		subs	r3, r3, #1
 1078 061e DAB2     		uxtb	r2, r3
 1079 0620 744B     		ldr	r3, .L106+8
 1080 0622 9A70     		strb	r2, [r3, #2]
 1081              	.L52:
 596:Generated_Source\PSoC5/RTC_INT.c ****                             }
 597:Generated_Source\PSoC5/RTC_INT.c **** 
 598:Generated_Source\PSoC5/RTC_INT.c ****                             RTC_currentTimeDate.Hour -= RTC_dstOffsetMin /
 1082              		.loc 1 598 0
 1083 0624 774B     		ldr	r3, .L106+24
 1084 0626 1B78     		ldrb	r3, [r3]
 1085 0628 DBB2     		uxtb	r3, r3
 1086 062a 774A     		ldr	r2, .L106+28
 1087 062c A2FB0323 		umull	r2, r3, r2, r3
 1088 0630 5B09     		lsrs	r3, r3, #5
 1089 0632 DBB2     		uxtb	r3, r3
 1090 0634 1946     		mov	r1, r3
 1091 0636 6F4B     		ldr	r3, .L106+8
 1092 0638 9B78     		ldrb	r3, [r3, #2]
 1093 063a DAB2     		uxtb	r2, r3
 1094 063c CBB2     		uxtb	r3, r1
 1095 063e D31A     		subs	r3, r2, r3
 1096 0640 DAB2     		uxtb	r2, r3
 1097 0642 6C4B     		ldr	r3, .L106+8
 1098 0644 9A70     		strb	r2, [r3, #2]
 599:Generated_Source\PSoC5/RTC_INT.c ****                                                                      (RTC_HOUR_ELAPSED + 1u);
 600:Generated_Source\PSoC5/RTC_INT.c **** 
 601:Generated_Source\PSoC5/RTC_INT.c ****                             /* Day roll over
 602:Generated_Source\PSoC5/RTC_INT.c ****                             * Is hour value negative? */
 603:Generated_Source\PSoC5/RTC_INT.c ****                             if(RTC_currentTimeDate.Hour > RTC_DAY_ELAPSED)
ARM GAS  C:\Users\Admin\AppData\Local\Temp\cc0dUITO.s 			page 31


 1099              		.loc 1 603 0
 1100 0646 6B4B     		ldr	r3, .L106+8
 1101 0648 9B78     		ldrb	r3, [r3, #2]
 1102 064a DBB2     		uxtb	r3, r3
 1103 064c 172B     		cmp	r3, #23
 1104 064e 40F2C180 		bls	.L53
 604:Generated_Source\PSoC5/RTC_INT.c ****                             {
 605:Generated_Source\PSoC5/RTC_INT.c ****                                 /* Convert to the positive.
 606:Generated_Source\PSoC5/RTC_INT.c ****                                 * DAY_ELAPSED - (~currentTimeDate.Hour) ==
 607:Generated_Source\PSoC5/RTC_INT.c ****                                 * DAY_ELAPSED + 1 - (~currentTimeDate.Hour + 1)
 608:Generated_Source\PSoC5/RTC_INT.c ****                                 */
 609:Generated_Source\PSoC5/RTC_INT.c ****                                 RTC_currentTimeDate.Hour = RTC_DAY_ELAPSED -
 610:Generated_Source\PSoC5/RTC_INT.c ****                                                               ((uint8)(~RTC_currentTimeDate.Hour));
 1105              		.loc 1 610 0
 1106 0652 684B     		ldr	r3, .L106+8
 1107 0654 9B78     		ldrb	r3, [r3, #2]
 1108 0656 DBB2     		uxtb	r3, r3
 609:Generated_Source\PSoC5/RTC_INT.c ****                                                               ((uint8)(~RTC_currentTimeDate.Hour));
 1109              		.loc 1 609 0
 1110 0658 1833     		adds	r3, r3, #24
 1111 065a DAB2     		uxtb	r2, r3
 1112 065c 654B     		ldr	r3, .L106+8
 1113 065e 9A70     		strb	r2, [r3, #2]
 611:Generated_Source\PSoC5/RTC_INT.c **** 
 612:Generated_Source\PSoC5/RTC_INT.c ****                                 /* Status set PM/AM flag */
 613:Generated_Source\PSoC5/RTC_INT.c ****                                 if(RTC_currentTimeDate.Hour < RTC_HALF_OF_DAY_ELAPSED)
 1114              		.loc 1 613 0
 1115 0660 644B     		ldr	r3, .L106+8
 1116 0662 9B78     		ldrb	r3, [r3, #2]
 1117 0664 DBB2     		uxtb	r3, r3
 1118 0666 0B2B     		cmp	r3, #11
 1119 0668 08D8     		bhi	.L54
 614:Generated_Source\PSoC5/RTC_INT.c ****                                 {
 615:Generated_Source\PSoC5/RTC_INT.c ****                                     /* AM Hour 00:00-11:59, flag zero */
 616:Generated_Source\PSoC5/RTC_INT.c ****                                     RTC_statusDateTime &= (uint8)(~RTC_STATUS_AM_PM);
 1120              		.loc 1 616 0
 1121 066a 654B     		ldr	r3, .L106+20
 1122 066c 1B78     		ldrb	r3, [r3]
 1123 066e DBB2     		uxtb	r3, r3
 1124 0670 23F00403 		bic	r3, r3, #4
 1125 0674 DAB2     		uxtb	r2, r3
 1126 0676 624B     		ldr	r3, .L106+20
 1127 0678 1A70     		strb	r2, [r3]
 1128 067a 07E0     		b	.L55
 1129              	.L54:
 617:Generated_Source\PSoC5/RTC_INT.c ****                                 }
 618:Generated_Source\PSoC5/RTC_INT.c ****                                 else
 619:Generated_Source\PSoC5/RTC_INT.c ****                                 {
 620:Generated_Source\PSoC5/RTC_INT.c ****                                     /* PM Hour 12:00-23:59, flag set */
 621:Generated_Source\PSoC5/RTC_INT.c ****                                     RTC_statusDateTime |= RTC_STATUS_AM_PM;
 1130              		.loc 1 621 0
 1131 067c 604B     		ldr	r3, .L106+20
 1132 067e 1B78     		ldrb	r3, [r3]
 1133 0680 DBB2     		uxtb	r3, r3
 1134 0682 43F00403 		orr	r3, r3, #4
 1135 0686 DAB2     		uxtb	r2, r3
 1136 0688 5D4B     		ldr	r3, .L106+20
ARM GAS  C:\Users\Admin\AppData\Local\Temp\cc0dUITO.s 			page 32


 1137 068a 1A70     		strb	r2, [r3]
 1138              	.L55:
 622:Generated_Source\PSoC5/RTC_INT.c ****                                 }
 623:Generated_Source\PSoC5/RTC_INT.c **** 
 624:Generated_Source\PSoC5/RTC_INT.c ****                                 RTC_currentTimeDate.DayOfMonth--;
 1139              		.loc 1 624 0
 1140 068c 594B     		ldr	r3, .L106+8
 1141 068e 1B79     		ldrb	r3, [r3, #4]
 1142 0690 DBB2     		uxtb	r3, r3
 1143 0692 013B     		subs	r3, r3, #1
 1144 0694 DAB2     		uxtb	r2, r3
 1145 0696 574B     		ldr	r3, .L106+8
 1146 0698 1A71     		strb	r2, [r3, #4]
 625:Generated_Source\PSoC5/RTC_INT.c ****                                 RTC_currentTimeDate.DayOfYear--;
 1147              		.loc 1 625 0
 1148 069a 564B     		ldr	r3, .L106+8
 1149 069c DB88     		ldrh	r3, [r3, #6]	@ movhi
 1150 069e 9BB2     		uxth	r3, r3
 1151 06a0 013B     		subs	r3, r3, #1
 1152 06a2 9AB2     		uxth	r2, r3
 1153 06a4 534B     		ldr	r3, .L106+8
 1154 06a6 DA80     		strh	r2, [r3, #6]	@ movhi
 626:Generated_Source\PSoC5/RTC_INT.c ****                                 RTC_currentTimeDate.DayOfWeek--;
 1155              		.loc 1 626 0
 1156 06a8 524B     		ldr	r3, .L106+8
 1157 06aa DB78     		ldrb	r3, [r3, #3]
 1158 06ac DBB2     		uxtb	r3, r3
 1159 06ae 013B     		subs	r3, r3, #1
 1160 06b0 DAB2     		uxtb	r2, r3
 1161 06b2 504B     		ldr	r3, .L106+8
 1162 06b4 DA70     		strb	r2, [r3, #3]
 627:Generated_Source\PSoC5/RTC_INT.c **** 
 628:Generated_Source\PSoC5/RTC_INT.c ****                                 if(0u == RTC_currentTimeDate.DayOfWeek)
 1163              		.loc 1 628 0
 1164 06b6 4F4B     		ldr	r3, .L106+8
 1165 06b8 DB78     		ldrb	r3, [r3, #3]
 1166 06ba DBB2     		uxtb	r3, r3
 1167 06bc 002B     		cmp	r3, #0
 1168 06be 02D1     		bne	.L56
 629:Generated_Source\PSoC5/RTC_INT.c ****                                 {
 630:Generated_Source\PSoC5/RTC_INT.c ****                                     RTC_currentTimeDate.DayOfWeek = RTC_DAYS_IN_WEEK;
 1169              		.loc 1 630 0
 1170 06c0 4C4B     		ldr	r3, .L106+8
 1171 06c2 0722     		movs	r2, #7
 1172 06c4 DA70     		strb	r2, [r3, #3]
 1173              	.L56:
 631:Generated_Source\PSoC5/RTC_INT.c ****                                 }
 632:Generated_Source\PSoC5/RTC_INT.c **** 
 633:Generated_Source\PSoC5/RTC_INT.c ****                                 if(0u == RTC_currentTimeDate.DayOfMonth)
 1174              		.loc 1 633 0
 1175 06c6 4B4B     		ldr	r3, .L106+8
 1176 06c8 1B79     		ldrb	r3, [r3, #4]
 1177 06ca DBB2     		uxtb	r3, r3
 1178 06cc 002B     		cmp	r3, #0
 1179 06ce 7FD1     		bne	.L57
 634:Generated_Source\PSoC5/RTC_INT.c ****                                 {
 635:Generated_Source\PSoC5/RTC_INT.c ****                                     RTC_currentTimeDate.Month--;
ARM GAS  C:\Users\Admin\AppData\Local\Temp\cc0dUITO.s 			page 33


 1180              		.loc 1 635 0
 1181 06d0 484B     		ldr	r3, .L106+8
 1182 06d2 1B7A     		ldrb	r3, [r3, #8]
 1183 06d4 DBB2     		uxtb	r3, r3
 1184 06d6 013B     		subs	r3, r3, #1
 1185 06d8 DAB2     		uxtb	r2, r3
 1186 06da 464B     		ldr	r3, .L106+8
 1187 06dc 1A72     		strb	r2, [r3, #8]
 636:Generated_Source\PSoC5/RTC_INT.c ****                                     if(0u == RTC_currentTimeDate.Month)
 1188              		.loc 1 636 0
 1189 06de 454B     		ldr	r3, .L106+8
 1190 06e0 1B7A     		ldrb	r3, [r3, #8]
 1191 06e2 DBB2     		uxtb	r3, r3
 1192 06e4 002B     		cmp	r3, #0
 1193 06e6 52D1     		bne	.L58
 637:Generated_Source\PSoC5/RTC_INT.c ****                                     {
 638:Generated_Source\PSoC5/RTC_INT.c ****                                         RTC_currentTimeDate.Month = RTC_DECEMBER;
 1194              		.loc 1 638 0
 1195 06e8 424B     		ldr	r3, .L106+8
 1196 06ea 0C22     		movs	r2, #12
 1197 06ec 1A72     		strb	r2, [r3, #8]
 639:Generated_Source\PSoC5/RTC_INT.c **** 
 640:Generated_Source\PSoC5/RTC_INT.c ****                                         RTC_currentTimeDate.DayOfMonth =
 641:Generated_Source\PSoC5/RTC_INT.c ****                                             RTC_daysInMonths[RTC_currentTimeDate.Month - 1u];
 1198              		.loc 1 641 0
 1199 06ee 414B     		ldr	r3, .L106+8
 1200 06f0 1B7A     		ldrb	r3, [r3, #8]
 1201 06f2 DBB2     		uxtb	r3, r3
 1202 06f4 013B     		subs	r3, r3, #1
 1203 06f6 454A     		ldr	r2, .L106+32
 1204 06f8 D25C     		ldrb	r2, [r2, r3]	@ zero_extendqisi2
 640:Generated_Source\PSoC5/RTC_INT.c ****                                             RTC_daysInMonths[RTC_currentTimeDate.Month - 1u];
 1205              		.loc 1 640 0
 1206 06fa 3E4B     		ldr	r3, .L106+8
 1207 06fc 1A71     		strb	r2, [r3, #4]
 642:Generated_Source\PSoC5/RTC_INT.c **** 
 643:Generated_Source\PSoC5/RTC_INT.c ****                                         RTC_currentTimeDate.Year--;
 1208              		.loc 1 643 0
 1209 06fe 3D4B     		ldr	r3, .L106+8
 1210 0700 5B89     		ldrh	r3, [r3, #10]	@ movhi
 1211 0702 9BB2     		uxth	r3, r3
 1212 0704 013B     		subs	r3, r3, #1
 1213 0706 9AB2     		uxth	r2, r3
 1214 0708 3A4B     		ldr	r3, .L106+8
 1215 070a 5A81     		strh	r2, [r3, #10]	@ movhi
 644:Generated_Source\PSoC5/RTC_INT.c **** 
 645:Generated_Source\PSoC5/RTC_INT.c ****                                         if(1u == RTC_LEAP_YEAR(RTC_currentTimeDate.Year))
 1216              		.loc 1 645 0
 1217 070c 394B     		ldr	r3, .L106+8
 1218 070e 5B89     		ldrh	r3, [r3, #10]	@ movhi
 1219 0710 9BB2     		uxth	r3, r3
 1220 0712 3F4A     		ldr	r2, .L106+36
 1221 0714 A2FB0312 		umull	r1, r2, r2, r3
 1222 0718 D209     		lsrs	r2, r2, #7
 1223 071a 4FF4C871 		mov	r1, #400
 1224 071e 01FB02F2 		mul	r2, r1, r2
 1225 0722 9B1A     		subs	r3, r3, r2
ARM GAS  C:\Users\Admin\AppData\Local\Temp\cc0dUITO.s 			page 34


 1226 0724 9BB2     		uxth	r3, r3
 1227 0726 002B     		cmp	r3, #0
 1228 0728 15D0     		beq	.L59
 1229              		.loc 1 645 0 is_stmt 0 discriminator 1
 1230 072a 324B     		ldr	r3, .L106+8
 1231 072c 5B89     		ldrh	r3, [r3, #10]	@ movhi
 1232 072e 9BB2     		uxth	r3, r3
 1233 0730 03F00303 		and	r3, r3, #3
 1234 0734 9BB2     		uxth	r3, r3
 1235 0736 002B     		cmp	r3, #0
 1236 0738 1AD1     		bne	.L60
 1237              		.loc 1 645 0 discriminator 2
 1238 073a 2E4B     		ldr	r3, .L106+8
 1239 073c 5B89     		ldrh	r3, [r3, #10]	@ movhi
 1240 073e 9BB2     		uxth	r3, r3
 1241 0740 334A     		ldr	r2, .L106+36
 1242 0742 A2FB0312 		umull	r1, r2, r2, r3
 1243 0746 5209     		lsrs	r2, r2, #5
 1244 0748 6421     		movs	r1, #100
 1245 074a 01FB02F2 		mul	r2, r1, r2
 1246 074e 9B1A     		subs	r3, r3, r2
 1247 0750 9BB2     		uxth	r3, r3
 1248 0752 002B     		cmp	r3, #0
 1249 0754 0CD0     		beq	.L60
 1250              	.L59:
 646:Generated_Source\PSoC5/RTC_INT.c ****                                         {
 647:Generated_Source\PSoC5/RTC_INT.c ****                                             /* LP - true, else - false */
 648:Generated_Source\PSoC5/RTC_INT.c ****                                             RTC_statusDateTime |= RTC_STATUS_LY;
 1251              		.loc 1 648 0 is_stmt 1
 1252 0756 2A4B     		ldr	r3, .L106+20
 1253 0758 1B78     		ldrb	r3, [r3]
 1254 075a DBB2     		uxtb	r3, r3
 1255 075c 43F00203 		orr	r3, r3, #2
 1256 0760 DAB2     		uxtb	r2, r3
 1257 0762 274B     		ldr	r3, .L106+20
 1258 0764 1A70     		strb	r2, [r3]
 649:Generated_Source\PSoC5/RTC_INT.c ****                                             RTC_currentTimeDate.DayOfYear =
 1259              		.loc 1 649 0
 1260 0766 234B     		ldr	r3, .L106+8
 1261 0768 4FF4B772 		mov	r2, #366
 1262 076c DA80     		strh	r2, [r3, #6]	@ movhi
 1263 076e 0BE0     		b	.L61
 1264              	.L60:
 650:Generated_Source\PSoC5/RTC_INT.c ****                                                                                     RTC_DAYS_IN_LEA
 651:Generated_Source\PSoC5/RTC_INT.c ****                                         }
 652:Generated_Source\PSoC5/RTC_INT.c ****                                         else
 653:Generated_Source\PSoC5/RTC_INT.c ****                                         {
 654:Generated_Source\PSoC5/RTC_INT.c ****                                             RTC_statusDateTime &= (uint8)(~RTC_STATUS_LY);
 1265              		.loc 1 654 0
 1266 0770 234B     		ldr	r3, .L106+20
 1267 0772 1B78     		ldrb	r3, [r3]
 1268 0774 DBB2     		uxtb	r3, r3
 1269 0776 23F00203 		bic	r3, r3, #2
 1270 077a DAB2     		uxtb	r2, r3
 1271 077c 204B     		ldr	r3, .L106+20
 1272 077e 1A70     		strb	r2, [r3]
 655:Generated_Source\PSoC5/RTC_INT.c ****                                             RTC_currentTimeDate.DayOfYear = RTC_DAYS_IN_YEAR;
ARM GAS  C:\Users\Admin\AppData\Local\Temp\cc0dUITO.s 			page 35


 1273              		.loc 1 655 0
 1274 0780 1C4B     		ldr	r3, .L106+8
 1275 0782 40F26D12 		movw	r2, #365
 1276 0786 DA80     		strh	r2, [r3, #6]	@ movhi
 1277              	.L61:
 656:Generated_Source\PSoC5/RTC_INT.c ****                                         }
 657:Generated_Source\PSoC5/RTC_INT.c ****                                         RTC_EveryYearHandler();
 1278              		.loc 1 657 0
 1279 0788 FFF7FEFF 		bl	RTC_EveryYearHandler
 1280 078c 1EE0     		b	.L62
 1281              	.L58:
 658:Generated_Source\PSoC5/RTC_INT.c ****                                     }
 659:Generated_Source\PSoC5/RTC_INT.c ****                                     else
 660:Generated_Source\PSoC5/RTC_INT.c ****                                     {
 661:Generated_Source\PSoC5/RTC_INT.c ****                                         /* Day of month roll over.
 662:Generated_Source\PSoC5/RTC_INT.c ****                                         * Check if day of month February 29 of leap year
 663:Generated_Source\PSoC5/RTC_INT.c ****                                         */
 664:Generated_Source\PSoC5/RTC_INT.c ****                                         if((0u != (RTC_statusDateTime & RTC_STATUS_LY)) &&
 1282              		.loc 1 664 0
 1283 078e 1C4B     		ldr	r3, .L106+20
 1284 0790 1B78     		ldrb	r3, [r3]
 1285 0792 DBB2     		uxtb	r3, r3
 1286 0794 03F00203 		and	r3, r3, #2
 1287 0798 002B     		cmp	r3, #0
 1288 079a 0FD0     		beq	.L63
 665:Generated_Source\PSoC5/RTC_INT.c ****                                             (RTC_currentTimeDate.Month == RTC_FEBRUARY))
 1289              		.loc 1 665 0 discriminator 1
 1290 079c 154B     		ldr	r3, .L106+8
 1291 079e 1B7A     		ldrb	r3, [r3, #8]
 1292 07a0 DBB2     		uxtb	r3, r3
 664:Generated_Source\PSoC5/RTC_INT.c ****                                             (RTC_currentTimeDate.Month == RTC_FEBRUARY))
 1293              		.loc 1 664 0 discriminator 1
 1294 07a2 022B     		cmp	r3, #2
 1295 07a4 0AD1     		bne	.L63
 666:Generated_Source\PSoC5/RTC_INT.c ****                                         {
 667:Generated_Source\PSoC5/RTC_INT.c ****                                             RTC_currentTimeDate.DayOfMonth =
 668:Generated_Source\PSoC5/RTC_INT.c ****                                             RTC_daysInMonths[RTC_currentTimeDate.Month - 1u]
 1296              		.loc 1 668 0
 1297 07a6 134B     		ldr	r3, .L106+8
 1298 07a8 1B7A     		ldrb	r3, [r3, #8]
 1299 07aa DBB2     		uxtb	r3, r3
 1300 07ac 013B     		subs	r3, r3, #1
 1301 07ae 174A     		ldr	r2, .L106+32
 1302 07b0 D35C     		ldrb	r3, [r2, r3]	@ zero_extendqisi2
 667:Generated_Source\PSoC5/RTC_INT.c ****                                             RTC_daysInMonths[RTC_currentTimeDate.Month - 1u]
 1303              		.loc 1 667 0
 1304 07b2 0133     		adds	r3, r3, #1
 1305 07b4 DAB2     		uxtb	r2, r3
 1306 07b6 0F4B     		ldr	r3, .L106+8
 1307 07b8 1A71     		strb	r2, [r3, #4]
 1308 07ba 07E0     		b	.L62
 1309              	.L63:
 669:Generated_Source\PSoC5/RTC_INT.c ****                                             + 1u;
 670:Generated_Source\PSoC5/RTC_INT.c ****                                         }
 671:Generated_Source\PSoC5/RTC_INT.c ****                                         else
 672:Generated_Source\PSoC5/RTC_INT.c ****                                         {
 673:Generated_Source\PSoC5/RTC_INT.c ****                                             RTC_currentTimeDate.DayOfMonth =
ARM GAS  C:\Users\Admin\AppData\Local\Temp\cc0dUITO.s 			page 36


 674:Generated_Source\PSoC5/RTC_INT.c ****                                             RTC_daysInMonths[RTC_currentTimeDate.Month - 1u];
 1310              		.loc 1 674 0
 1311 07bc 0D4B     		ldr	r3, .L106+8
 1312 07be 1B7A     		ldrb	r3, [r3, #8]
 1313 07c0 DBB2     		uxtb	r3, r3
 1314 07c2 013B     		subs	r3, r3, #1
 1315 07c4 114A     		ldr	r2, .L106+32
 1316 07c6 D25C     		ldrb	r2, [r2, r3]	@ zero_extendqisi2
 673:Generated_Source\PSoC5/RTC_INT.c ****                                             RTC_daysInMonths[RTC_currentTimeDate.Month - 1u];
 1317              		.loc 1 673 0
 1318 07c8 0A4B     		ldr	r3, .L106+8
 1319 07ca 1A71     		strb	r2, [r3, #4]
 1320              	.L62:
 675:Generated_Source\PSoC5/RTC_INT.c ****                                         }
 676:Generated_Source\PSoC5/RTC_INT.c ****                                     }
 677:Generated_Source\PSoC5/RTC_INT.c ****                                     RTC_EveryMonthHandler();
 1321              		.loc 1 677 0
 1322 07cc FFF7FEFF 		bl	RTC_EveryMonthHandler
 1323              	.L57:
 678:Generated_Source\PSoC5/RTC_INT.c ****                                 }
 679:Generated_Source\PSoC5/RTC_INT.c ****                                 RTC_EveryDayHandler();
 1324              		.loc 1 679 0
 1325 07d0 FFF7FEFF 		bl	RTC_EveryDayHandler
 1326              	.L53:
 680:Generated_Source\PSoC5/RTC_INT.c ****                             }
 681:Generated_Source\PSoC5/RTC_INT.c ****                             RTC_statusDateTime &= (uint8)(~RTC_STATUS_DST);
 1327              		.loc 1 681 0
 1328 07d4 0A4B     		ldr	r3, .L106+20
 1329 07d6 1B78     		ldrb	r3, [r3]
 1330 07d8 DBB2     		uxtb	r3, r3
 1331 07da 23F00103 		bic	r3, r3, #1
 1332 07de DAB2     		uxtb	r2, r3
 1333 07e0 074B     		ldr	r3, .L106+20
 1334 07e2 1A70     		strb	r2, [r3]
 682:Generated_Source\PSoC5/RTC_INT.c ****                             RTC_dstStopStatus = 0u;
 1335              		.loc 1 682 0
 1336 07e4 014B     		ldr	r3, .L106
 1337 07e6 0022     		movs	r2, #0
 1338 07e8 1A70     		strb	r2, [r3]
 1339 07ea 7EE1     		b	.L64
 1340              	.L107:
 1341              		.align	2
 1342              	.L106:
 1343 07ec 00000000 		.word	RTC_dstStopStatus
 1344 07f0 00000000 		.word	RTC_dstTimeDateStart
 1345 07f4 00000000 		.word	RTC_currentTimeDate
 1346 07f8 00000000 		.word	RTC_dstStartStatus
 1347 07fc 00000000 		.word	RTC_dstModeType
 1348 0800 00000000 		.word	RTC_statusDateTime
 1349 0804 00000000 		.word	RTC_dstOffsetMin
 1350 0808 89888888 		.word	-2004318071
 1351 080c 00000000 		.word	RTC_daysInMonths
 1352 0810 1F85EB51 		.word	1374389535
 1353              	.L50:
 683:Generated_Source\PSoC5/RTC_INT.c ****                         }
 684:Generated_Source\PSoC5/RTC_INT.c ****                     }
 685:Generated_Source\PSoC5/RTC_INT.c ****                     else
ARM GAS  C:\Users\Admin\AppData\Local\Temp\cc0dUITO.s 			page 37


 686:Generated_Source\PSoC5/RTC_INT.c ****                     {
 687:Generated_Source\PSoC5/RTC_INT.c ****                         if(0u != RTC_IS_BIT_SET(RTC_dstStartStatus,
 1354              		.loc 1 687 0
 1355 0814 9B4B     		ldr	r3, .L108
 1356 0816 1B78     		ldrb	r3, [r3]
 1357 0818 DBB2     		uxtb	r3, r3
 1358 081a 03F00703 		and	r3, r3, #7
 1359 081e 072B     		cmp	r3, #7
 1360 0820 40F06381 		bne	.L64
 688:Generated_Source\PSoC5/RTC_INT.c ****                                                       (RTC_DST_HOUR | RTC_DST_DAYOFMONTH |
 689:Generated_Source\PSoC5/RTC_INT.c ****                                                        RTC_DST_MONTH)))
 690:Generated_Source\PSoC5/RTC_INT.c ****                         {
 691:Generated_Source\PSoC5/RTC_INT.c ****                             /* Add Hour and Min */
 692:Generated_Source\PSoC5/RTC_INT.c ****                             RTC_currentTimeDate.Min +=
 693:Generated_Source\PSoC5/RTC_INT.c ****                                                 RTC_dstOffsetMin % (RTC_HOUR_ELAPSED + 1u);
 1361              		.loc 1 693 0
 1362 0824 984B     		ldr	r3, .L108+4
 1363 0826 1B78     		ldrb	r3, [r3]
 1364 0828 DAB2     		uxtb	r2, r3
 1365 082a 984B     		ldr	r3, .L108+8
 1366 082c A3FB0213 		umull	r1, r3, r3, r2
 1367 0830 5909     		lsrs	r1, r3, #5
 1368 0832 0B46     		mov	r3, r1
 1369 0834 1B01     		lsls	r3, r3, #4
 1370 0836 5B1A     		subs	r3, r3, r1
 1371 0838 9B00     		lsls	r3, r3, #2
 1372 083a D31A     		subs	r3, r2, r3
 1373 083c DBB2     		uxtb	r3, r3
 1374 083e 1946     		mov	r1, r3
 692:Generated_Source\PSoC5/RTC_INT.c ****                                                 RTC_dstOffsetMin % (RTC_HOUR_ELAPSED + 1u);
 1375              		.loc 1 692 0
 1376 0840 934B     		ldr	r3, .L108+12
 1377 0842 5B78     		ldrb	r3, [r3, #1]
 1378 0844 DAB2     		uxtb	r2, r3
 1379 0846 CBB2     		uxtb	r3, r1
 1380 0848 1344     		add	r3, r3, r2
 1381 084a DAB2     		uxtb	r2, r3
 1382 084c 904B     		ldr	r3, .L108+12
 1383 084e 5A70     		strb	r2, [r3, #1]
 694:Generated_Source\PSoC5/RTC_INT.c **** 
 695:Generated_Source\PSoC5/RTC_INT.c ****                             if(RTC_currentTimeDate.Min > RTC_HOUR_ELAPSED)
 1384              		.loc 1 695 0
 1385 0850 8F4B     		ldr	r3, .L108+12
 1386 0852 5B78     		ldrb	r3, [r3, #1]
 1387 0854 DBB2     		uxtb	r3, r3
 1388 0856 3B2B     		cmp	r3, #59
 1389 0858 0DD9     		bls	.L65
 696:Generated_Source\PSoC5/RTC_INT.c ****                             {
 697:Generated_Source\PSoC5/RTC_INT.c ****                                 /* Adjust Min */
 698:Generated_Source\PSoC5/RTC_INT.c ****                                 RTC_currentTimeDate.Min -= (RTC_HOUR_ELAPSED + 1u);
 1390              		.loc 1 698 0
 1391 085a 8D4B     		ldr	r3, .L108+12
 1392 085c 5B78     		ldrb	r3, [r3, #1]
 1393 085e DBB2     		uxtb	r3, r3
 1394 0860 3C3B     		subs	r3, r3, #60
 1395 0862 DAB2     		uxtb	r2, r3
 1396 0864 8A4B     		ldr	r3, .L108+12
ARM GAS  C:\Users\Admin\AppData\Local\Temp\cc0dUITO.s 			page 38


 1397 0866 5A70     		strb	r2, [r3, #1]
 699:Generated_Source\PSoC5/RTC_INT.c ****                                 RTC_currentTimeDate.Hour++;
 1398              		.loc 1 699 0
 1399 0868 894B     		ldr	r3, .L108+12
 1400 086a 9B78     		ldrb	r3, [r3, #2]
 1401 086c DBB2     		uxtb	r3, r3
 1402 086e 0133     		adds	r3, r3, #1
 1403 0870 DAB2     		uxtb	r2, r3
 1404 0872 874B     		ldr	r3, .L108+12
 1405 0874 9A70     		strb	r2, [r3, #2]
 1406              	.L65:
 700:Generated_Source\PSoC5/RTC_INT.c ****                             }
 701:Generated_Source\PSoC5/RTC_INT.c **** 
 702:Generated_Source\PSoC5/RTC_INT.c ****                             RTC_currentTimeDate.Hour += RTC_dstOffsetMin /
 1407              		.loc 1 702 0
 1408 0876 844B     		ldr	r3, .L108+4
 1409 0878 1B78     		ldrb	r3, [r3]
 1410 087a DBB2     		uxtb	r3, r3
 1411 087c 834A     		ldr	r2, .L108+8
 1412 087e A2FB0323 		umull	r2, r3, r2, r3
 1413 0882 5B09     		lsrs	r3, r3, #5
 1414 0884 DBB2     		uxtb	r3, r3
 1415 0886 1946     		mov	r1, r3
 1416 0888 814B     		ldr	r3, .L108+12
 1417 088a 9B78     		ldrb	r3, [r3, #2]
 1418 088c DAB2     		uxtb	r2, r3
 1419 088e CBB2     		uxtb	r3, r1
 1420 0890 1344     		add	r3, r3, r2
 1421 0892 DAB2     		uxtb	r2, r3
 1422 0894 7E4B     		ldr	r3, .L108+12
 1423 0896 9A70     		strb	r2, [r3, #2]
 703:Generated_Source\PSoC5/RTC_INT.c ****                                                                      (RTC_HOUR_ELAPSED + 1u);
 704:Generated_Source\PSoC5/RTC_INT.c **** 
 705:Generated_Source\PSoC5/RTC_INT.c ****                             if(RTC_currentTimeDate.Hour > RTC_DAY_ELAPSED)
 1424              		.loc 1 705 0
 1425 0898 7D4B     		ldr	r3, .L108+12
 1426 089a 9B78     		ldrb	r3, [r3, #2]
 1427 089c DBB2     		uxtb	r3, r3
 1428 089e 172B     		cmp	r3, #23
 1429 08a0 40F2D480 		bls	.L66
 706:Generated_Source\PSoC5/RTC_INT.c ****                             {
 707:Generated_Source\PSoC5/RTC_INT.c ****                                 /* Adjust hour, add day */
 708:Generated_Source\PSoC5/RTC_INT.c ****                                 RTC_currentTimeDate.Hour -= (RTC_DAY_ELAPSED + 1u);
 1430              		.loc 1 708 0
 1431 08a4 7A4B     		ldr	r3, .L108+12
 1432 08a6 9B78     		ldrb	r3, [r3, #2]
 1433 08a8 DBB2     		uxtb	r3, r3
 1434 08aa 183B     		subs	r3, r3, #24
 1435 08ac DAB2     		uxtb	r2, r3
 1436 08ae 784B     		ldr	r3, .L108+12
 1437 08b0 9A70     		strb	r2, [r3, #2]
 709:Generated_Source\PSoC5/RTC_INT.c **** 
 710:Generated_Source\PSoC5/RTC_INT.c ****                                 /* Status set PM/AM flag */
 711:Generated_Source\PSoC5/RTC_INT.c ****                                 if(RTC_currentTimeDate.Hour < RTC_HALF_OF_DAY_ELAPSED)
 1438              		.loc 1 711 0
 1439 08b2 774B     		ldr	r3, .L108+12
 1440 08b4 9B78     		ldrb	r3, [r3, #2]
ARM GAS  C:\Users\Admin\AppData\Local\Temp\cc0dUITO.s 			page 39


 1441 08b6 DBB2     		uxtb	r3, r3
 1442 08b8 0B2B     		cmp	r3, #11
 1443 08ba 08D8     		bhi	.L67
 712:Generated_Source\PSoC5/RTC_INT.c ****                                 {
 713:Generated_Source\PSoC5/RTC_INT.c ****                                     /* AM Hour 00:00-11:59, flag zero */
 714:Generated_Source\PSoC5/RTC_INT.c ****                                     RTC_statusDateTime &= (uint8)(~RTC_STATUS_AM_PM);
 1444              		.loc 1 714 0
 1445 08bc 754B     		ldr	r3, .L108+16
 1446 08be 1B78     		ldrb	r3, [r3]
 1447 08c0 DBB2     		uxtb	r3, r3
 1448 08c2 23F00403 		bic	r3, r3, #4
 1449 08c6 DAB2     		uxtb	r2, r3
 1450 08c8 724B     		ldr	r3, .L108+16
 1451 08ca 1A70     		strb	r2, [r3]
 1452 08cc 07E0     		b	.L68
 1453              	.L67:
 715:Generated_Source\PSoC5/RTC_INT.c ****                                 }
 716:Generated_Source\PSoC5/RTC_INT.c ****                                 else
 717:Generated_Source\PSoC5/RTC_INT.c ****                                 {
 718:Generated_Source\PSoC5/RTC_INT.c ****                                     /* PM Hour 12:00-23:59, flag set */
 719:Generated_Source\PSoC5/RTC_INT.c ****                                     RTC_statusDateTime |= RTC_STATUS_AM_PM;
 1454              		.loc 1 719 0
 1455 08ce 714B     		ldr	r3, .L108+16
 1456 08d0 1B78     		ldrb	r3, [r3]
 1457 08d2 DBB2     		uxtb	r3, r3
 1458 08d4 43F00403 		orr	r3, r3, #4
 1459 08d8 DAB2     		uxtb	r2, r3
 1460 08da 6E4B     		ldr	r3, .L108+16
 1461 08dc 1A70     		strb	r2, [r3]
 1462              	.L68:
 720:Generated_Source\PSoC5/RTC_INT.c ****                                 }
 721:Generated_Source\PSoC5/RTC_INT.c **** 
 722:Generated_Source\PSoC5/RTC_INT.c ****                                 RTC_currentTimeDate.DayOfMonth++;
 1463              		.loc 1 722 0
 1464 08de 6C4B     		ldr	r3, .L108+12
 1465 08e0 1B79     		ldrb	r3, [r3, #4]
 1466 08e2 DBB2     		uxtb	r3, r3
 1467 08e4 0133     		adds	r3, r3, #1
 1468 08e6 DAB2     		uxtb	r2, r3
 1469 08e8 694B     		ldr	r3, .L108+12
 1470 08ea 1A71     		strb	r2, [r3, #4]
 723:Generated_Source\PSoC5/RTC_INT.c ****                                 RTC_currentTimeDate.DayOfYear++;
 1471              		.loc 1 723 0
 1472 08ec 684B     		ldr	r3, .L108+12
 1473 08ee DB88     		ldrh	r3, [r3, #6]	@ movhi
 1474 08f0 9BB2     		uxth	r3, r3
 1475 08f2 0133     		adds	r3, r3, #1
 1476 08f4 9AB2     		uxth	r2, r3
 1477 08f6 664B     		ldr	r3, .L108+12
 1478 08f8 DA80     		strh	r2, [r3, #6]	@ movhi
 724:Generated_Source\PSoC5/RTC_INT.c ****                                 RTC_currentTimeDate.DayOfWeek++;
 1479              		.loc 1 724 0
 1480 08fa 654B     		ldr	r3, .L108+12
 1481 08fc DB78     		ldrb	r3, [r3, #3]
 1482 08fe DBB2     		uxtb	r3, r3
 1483 0900 0133     		adds	r3, r3, #1
 1484 0902 DAB2     		uxtb	r2, r3
ARM GAS  C:\Users\Admin\AppData\Local\Temp\cc0dUITO.s 			page 40


 1485 0904 624B     		ldr	r3, .L108+12
 1486 0906 DA70     		strb	r2, [r3, #3]
 725:Generated_Source\PSoC5/RTC_INT.c **** 
 726:Generated_Source\PSoC5/RTC_INT.c ****                                 if(RTC_currentTimeDate.DayOfWeek > RTC_WEEK_ELAPSED)
 1487              		.loc 1 726 0
 1488 0908 614B     		ldr	r3, .L108+12
 1489 090a DB78     		ldrb	r3, [r3, #3]
 1490 090c DBB2     		uxtb	r3, r3
 1491 090e 072B     		cmp	r3, #7
 1492 0910 02D9     		bls	.L69
 727:Generated_Source\PSoC5/RTC_INT.c ****                                 {
 728:Generated_Source\PSoC5/RTC_INT.c ****                                     RTC_currentTimeDate.DayOfWeek = 1u;
 1493              		.loc 1 728 0
 1494 0912 5F4B     		ldr	r3, .L108+12
 1495 0914 0122     		movs	r2, #1
 1496 0916 DA70     		strb	r2, [r3, #3]
 1497              	.L69:
 729:Generated_Source\PSoC5/RTC_INT.c ****                                 }
 730:Generated_Source\PSoC5/RTC_INT.c **** 
 731:Generated_Source\PSoC5/RTC_INT.c ****                                 /* Day of month roll over.
 732:Generated_Source\PSoC5/RTC_INT.c ****                                 * Check if day of month greater than 29 in February of leap year or
 733:Generated_Source\PSoC5/RTC_INT.c ****                                 * if day of month greater than 28 NOT in February of NON leap year 
 734:Generated_Source\PSoC5/RTC_INT.c ****                                 * if day of month greater than it should be in every month in non l
 735:Generated_Source\PSoC5/RTC_INT.c ****                                 */
 736:Generated_Source\PSoC5/RTC_INT.c ****                                 if(((0u != (RTC_statusDateTime & RTC_STATUS_LY)) &&
 1498              		.loc 1 736 0
 1499 0918 5E4B     		ldr	r3, .L108+16
 1500 091a 1B78     		ldrb	r3, [r3]
 1501 091c DBB2     		uxtb	r3, r3
 1502 091e 03F00203 		and	r3, r3, #2
 1503 0922 002B     		cmp	r3, #0
 1504 0924 11D0     		beq	.L70
 737:Generated_Source\PSoC5/RTC_INT.c ****                                     (RTC_currentTimeDate.Month == RTC_FEBRUARY)  &&
 1505              		.loc 1 737 0 discriminator 1
 1506 0926 5A4B     		ldr	r3, .L108+12
 1507 0928 1B7A     		ldrb	r3, [r3, #8]
 1508 092a DBB2     		uxtb	r3, r3
 736:Generated_Source\PSoC5/RTC_INT.c ****                                     (RTC_currentTimeDate.Month == RTC_FEBRUARY)  &&
 1509              		.loc 1 736 0 discriminator 1
 1510 092c 022B     		cmp	r3, #2
 1511 092e 0CD1     		bne	.L70
 738:Generated_Source\PSoC5/RTC_INT.c ****                                     (RTC_currentTimeDate.DayOfMonth >
 1512              		.loc 1 738 0
 1513 0930 574B     		ldr	r3, .L108+12
 1514 0932 1B79     		ldrb	r3, [r3, #4]
 1515 0934 DBB2     		uxtb	r3, r3
 1516 0936 1946     		mov	r1, r3
 739:Generated_Source\PSoC5/RTC_INT.c ****                                   (RTC_daysInMonths[RTC_currentTimeDate.Month - 1u] + 1u))) ||
 1517              		.loc 1 739 0
 1518 0938 554B     		ldr	r3, .L108+12
 1519 093a 1B7A     		ldrb	r3, [r3, #8]
 1520 093c DBB2     		uxtb	r3, r3
 1521 093e 013B     		subs	r3, r3, #1
 1522 0940 554A     		ldr	r2, .L108+20
 1523 0942 D35C     		ldrb	r3, [r2, r3]	@ zero_extendqisi2
 1524 0944 0133     		adds	r3, r3, #1
 737:Generated_Source\PSoC5/RTC_INT.c ****                                     (RTC_currentTimeDate.DayOfMonth >
ARM GAS  C:\Users\Admin\AppData\Local\Temp\cc0dUITO.s 			page 41


 1525              		.loc 1 737 0
 1526 0946 9942     		cmp	r1, r3
 1527 0948 28D8     		bhi	.L71
 1528              	.L70:
 740:Generated_Source\PSoC5/RTC_INT.c ****                                    ((0u != (RTC_statusDateTime & RTC_STATUS_LY)) &&
 1529              		.loc 1 740 0
 1530 094a 524B     		ldr	r3, .L108+16
 1531 094c 1B78     		ldrb	r3, [r3]
 1532 094e DBB2     		uxtb	r3, r3
 1533 0950 03F00203 		and	r3, r3, #2
 739:Generated_Source\PSoC5/RTC_INT.c ****                                   (RTC_daysInMonths[RTC_currentTimeDate.Month - 1u] + 1u))) ||
 1534              		.loc 1 739 0
 1535 0954 002B     		cmp	r3, #0
 1536 0956 0FD0     		beq	.L72
 741:Generated_Source\PSoC5/RTC_INT.c ****                                     (RTC_currentTimeDate.Month != RTC_FEBRUARY)  &&
 1537              		.loc 1 741 0
 1538 0958 4D4B     		ldr	r3, .L108+12
 1539 095a 1B7A     		ldrb	r3, [r3, #8]
 1540 095c DBB2     		uxtb	r3, r3
 740:Generated_Source\PSoC5/RTC_INT.c ****                                    ((0u != (RTC_statusDateTime & RTC_STATUS_LY)) &&
 1541              		.loc 1 740 0
 1542 095e 022B     		cmp	r3, #2
 1543 0960 0AD0     		beq	.L72
 742:Generated_Source\PSoC5/RTC_INT.c ****                                     (RTC_currentTimeDate.DayOfMonth >
 1544              		.loc 1 742 0
 1545 0962 4B4B     		ldr	r3, .L108+12
 1546 0964 1B79     		ldrb	r3, [r3, #4]
 1547 0966 DAB2     		uxtb	r2, r3
 743:Generated_Source\PSoC5/RTC_INT.c ****                                      RTC_daysInMonths[RTC_currentTimeDate.Month - 1u])) ||
 1548              		.loc 1 743 0
 1549 0968 494B     		ldr	r3, .L108+12
 1550 096a 1B7A     		ldrb	r3, [r3, #8]
 1551 096c DBB2     		uxtb	r3, r3
 1552 096e 013B     		subs	r3, r3, #1
 1553 0970 4949     		ldr	r1, .L108+20
 1554 0972 CB5C     		ldrb	r3, [r1, r3]	@ zero_extendqisi2
 741:Generated_Source\PSoC5/RTC_INT.c ****                                     (RTC_currentTimeDate.Month != RTC_FEBRUARY)  &&
 1555              		.loc 1 741 0
 1556 0974 9A42     		cmp	r2, r3
 1557 0976 11D8     		bhi	.L71
 1558              	.L72:
 744:Generated_Source\PSoC5/RTC_INT.c ****                                    ((0u == (RTC_statusDateTime & RTC_STATUS_LY)) &&
 1559              		.loc 1 744 0
 1560 0978 464B     		ldr	r3, .L108+16
 1561 097a 1B78     		ldrb	r3, [r3]
 1562 097c DBB2     		uxtb	r3, r3
 1563 097e 03F00203 		and	r3, r3, #2
 743:Generated_Source\PSoC5/RTC_INT.c ****                                      RTC_daysInMonths[RTC_currentTimeDate.Month - 1u])) ||
 1564              		.loc 1 743 0
 1565 0982 002B     		cmp	r3, #0
 1566 0984 60D1     		bne	.L73
 745:Generated_Source\PSoC5/RTC_INT.c ****                                     (RTC_currentTimeDate.DayOfMonth >
 1567              		.loc 1 745 0
 1568 0986 424B     		ldr	r3, .L108+12
 1569 0988 1B79     		ldrb	r3, [r3, #4]
 1570 098a DAB2     		uxtb	r2, r3
 746:Generated_Source\PSoC5/RTC_INT.c ****                                      RTC_daysInMonths[RTC_currentTimeDate.Month - 1u])))
ARM GAS  C:\Users\Admin\AppData\Local\Temp\cc0dUITO.s 			page 42


 1571              		.loc 1 746 0
 1572 098c 404B     		ldr	r3, .L108+12
 1573 098e 1B7A     		ldrb	r3, [r3, #8]
 1574 0990 DBB2     		uxtb	r3, r3
 1575 0992 013B     		subs	r3, r3, #1
 1576 0994 4049     		ldr	r1, .L108+20
 1577 0996 CB5C     		ldrb	r3, [r1, r3]	@ zero_extendqisi2
 744:Generated_Source\PSoC5/RTC_INT.c ****                                    ((0u == (RTC_statusDateTime & RTC_STATUS_LY)) &&
 1578              		.loc 1 744 0
 1579 0998 9A42     		cmp	r2, r3
 1580 099a 55D9     		bls	.L73
 1581              	.L71:
 747:Generated_Source\PSoC5/RTC_INT.c ****                                 {
 748:Generated_Source\PSoC5/RTC_INT.c ****                                     RTC_currentTimeDate.Month++;
 1582              		.loc 1 748 0
 1583 099c 3C4B     		ldr	r3, .L108+12
 1584 099e 1B7A     		ldrb	r3, [r3, #8]
 1585 09a0 DBB2     		uxtb	r3, r3
 1586 09a2 0133     		adds	r3, r3, #1
 1587 09a4 DAB2     		uxtb	r2, r3
 1588 09a6 3A4B     		ldr	r3, .L108+12
 1589 09a8 1A72     		strb	r2, [r3, #8]
 749:Generated_Source\PSoC5/RTC_INT.c ****                                     RTC_currentTimeDate.DayOfMonth = 1u;
 1590              		.loc 1 749 0
 1591 09aa 394B     		ldr	r3, .L108+12
 1592 09ac 0122     		movs	r2, #1
 1593 09ae 1A71     		strb	r2, [r3, #4]
 750:Generated_Source\PSoC5/RTC_INT.c ****                                     if(RTC_currentTimeDate.Month > RTC_YEAR_ELAPSED)
 1594              		.loc 1 750 0
 1595 09b0 374B     		ldr	r3, .L108+12
 1596 09b2 1B7A     		ldrb	r3, [r3, #8]
 1597 09b4 DBB2     		uxtb	r3, r3
 1598 09b6 0C2B     		cmp	r3, #12
 1599 09b8 44D9     		bls	.L74
 751:Generated_Source\PSoC5/RTC_INT.c ****                                     {
 752:Generated_Source\PSoC5/RTC_INT.c ****                                         RTC_currentTimeDate.Month = RTC_JANUARY;
 1600              		.loc 1 752 0
 1601 09ba 354B     		ldr	r3, .L108+12
 1602 09bc 0122     		movs	r2, #1
 1603 09be 1A72     		strb	r2, [r3, #8]
 753:Generated_Source\PSoC5/RTC_INT.c ****                                         RTC_currentTimeDate.Year++;
 1604              		.loc 1 753 0
 1605 09c0 334B     		ldr	r3, .L108+12
 1606 09c2 5B89     		ldrh	r3, [r3, #10]	@ movhi
 1607 09c4 9BB2     		uxth	r3, r3
 1608 09c6 0133     		adds	r3, r3, #1
 1609 09c8 9AB2     		uxth	r2, r3
 1610 09ca 314B     		ldr	r3, .L108+12
 1611 09cc 5A81     		strh	r2, [r3, #10]	@ movhi
 754:Generated_Source\PSoC5/RTC_INT.c **** 
 755:Generated_Source\PSoC5/RTC_INT.c ****                                         if(1u == RTC_LEAP_YEAR(RTC_currentTimeDate.Year))
 1612              		.loc 1 755 0
 1613 09ce 304B     		ldr	r3, .L108+12
 1614 09d0 5B89     		ldrh	r3, [r3, #10]	@ movhi
 1615 09d2 9BB2     		uxth	r3, r3
 1616 09d4 314A     		ldr	r2, .L108+24
 1617 09d6 A2FB0312 		umull	r1, r2, r2, r3
ARM GAS  C:\Users\Admin\AppData\Local\Temp\cc0dUITO.s 			page 43


 1618 09da D209     		lsrs	r2, r2, #7
 1619 09dc 4FF4C871 		mov	r1, #400
 1620 09e0 01FB02F2 		mul	r2, r1, r2
 1621 09e4 9B1A     		subs	r3, r3, r2
 1622 09e6 9BB2     		uxth	r3, r3
 1623 09e8 002B     		cmp	r3, #0
 1624 09ea 15D0     		beq	.L75
 1625              		.loc 1 755 0 is_stmt 0 discriminator 1
 1626 09ec 284B     		ldr	r3, .L108+12
 1627 09ee 5B89     		ldrh	r3, [r3, #10]	@ movhi
 1628 09f0 9BB2     		uxth	r3, r3
 1629 09f2 03F00303 		and	r3, r3, #3
 1630 09f6 9BB2     		uxth	r3, r3
 1631 09f8 002B     		cmp	r3, #0
 1632 09fa 16D1     		bne	.L76
 1633              		.loc 1 755 0 discriminator 2
 1634 09fc 244B     		ldr	r3, .L108+12
 1635 09fe 5B89     		ldrh	r3, [r3, #10]	@ movhi
 1636 0a00 9BB2     		uxth	r3, r3
 1637 0a02 264A     		ldr	r2, .L108+24
 1638 0a04 A2FB0312 		umull	r1, r2, r2, r3
 1639 0a08 5209     		lsrs	r2, r2, #5
 1640 0a0a 6421     		movs	r1, #100
 1641 0a0c 01FB02F2 		mul	r2, r1, r2
 1642 0a10 9B1A     		subs	r3, r3, r2
 1643 0a12 9BB2     		uxth	r3, r3
 1644 0a14 002B     		cmp	r3, #0
 1645 0a16 08D0     		beq	.L76
 1646              	.L75:
 756:Generated_Source\PSoC5/RTC_INT.c ****                                         {
 757:Generated_Source\PSoC5/RTC_INT.c ****                                             /* LP - true, else - false */
 758:Generated_Source\PSoC5/RTC_INT.c ****                                             RTC_statusDateTime |= RTC_STATUS_LY;
 1647              		.loc 1 758 0 is_stmt 1
 1648 0a18 1E4B     		ldr	r3, .L108+16
 1649 0a1a 1B78     		ldrb	r3, [r3]
 1650 0a1c DBB2     		uxtb	r3, r3
 1651 0a1e 43F00203 		orr	r3, r3, #2
 1652 0a22 DAB2     		uxtb	r2, r3
 1653 0a24 1B4B     		ldr	r3, .L108+16
 1654 0a26 1A70     		strb	r2, [r3]
 1655 0a28 07E0     		b	.L77
 1656              	.L76:
 759:Generated_Source\PSoC5/RTC_INT.c ****                                         }
 760:Generated_Source\PSoC5/RTC_INT.c ****                                         else
 761:Generated_Source\PSoC5/RTC_INT.c ****                                         {
 762:Generated_Source\PSoC5/RTC_INT.c ****                                             RTC_statusDateTime &= (uint8)(~RTC_STATUS_LY);
 1657              		.loc 1 762 0
 1658 0a2a 1A4B     		ldr	r3, .L108+16
 1659 0a2c 1B78     		ldrb	r3, [r3]
 1660 0a2e DBB2     		uxtb	r3, r3
 1661 0a30 23F00203 		bic	r3, r3, #2
 1662 0a34 DAB2     		uxtb	r2, r3
 1663 0a36 174B     		ldr	r3, .L108+16
 1664 0a38 1A70     		strb	r2, [r3]
 1665              	.L77:
 763:Generated_Source\PSoC5/RTC_INT.c ****                                         }
 764:Generated_Source\PSoC5/RTC_INT.c ****                                         RTC_currentTimeDate.DayOfYear = 1u;
ARM GAS  C:\Users\Admin\AppData\Local\Temp\cc0dUITO.s 			page 44


 1666              		.loc 1 764 0
 1667 0a3a 154B     		ldr	r3, .L108+12
 1668 0a3c 0122     		movs	r2, #1
 1669 0a3e DA80     		strh	r2, [r3, #6]	@ movhi
 765:Generated_Source\PSoC5/RTC_INT.c **** 
 766:Generated_Source\PSoC5/RTC_INT.c ****                                         RTC_EveryYearHandler();
 1670              		.loc 1 766 0
 1671 0a40 FFF7FEFF 		bl	RTC_EveryYearHandler
 1672              	.L74:
 767:Generated_Source\PSoC5/RTC_INT.c ****                                     }
 768:Generated_Source\PSoC5/RTC_INT.c ****                                     RTC_EveryMonthHandler();
 1673              		.loc 1 768 0
 1674 0a44 FFF7FEFF 		bl	RTC_EveryMonthHandler
 1675              	.L73:
 769:Generated_Source\PSoC5/RTC_INT.c ****                                 }
 770:Generated_Source\PSoC5/RTC_INT.c ****                                 RTC_EveryDayHandler();
 1676              		.loc 1 770 0
 1677 0a48 FFF7FEFF 		bl	RTC_EveryDayHandler
 1678              	.L66:
 771:Generated_Source\PSoC5/RTC_INT.c ****                             }
 772:Generated_Source\PSoC5/RTC_INT.c ****                             RTC_statusDateTime |= RTC_STATUS_DST;
 1679              		.loc 1 772 0
 1680 0a4c 114B     		ldr	r3, .L108+16
 1681 0a4e 1B78     		ldrb	r3, [r3]
 1682 0a50 DBB2     		uxtb	r3, r3
 1683 0a52 43F00103 		orr	r3, r3, #1
 1684 0a56 DAB2     		uxtb	r2, r3
 1685 0a58 0E4B     		ldr	r3, .L108+16
 1686 0a5a 1A70     		strb	r2, [r3]
 773:Generated_Source\PSoC5/RTC_INT.c ****                             RTC_dstStartStatus = 0u;
 1687              		.loc 1 773 0
 1688 0a5c 094B     		ldr	r3, .L108
 1689 0a5e 0022     		movs	r2, #0
 1690 0a60 1A70     		strb	r2, [r3]
 774:Generated_Source\PSoC5/RTC_INT.c **** 
 775:Generated_Source\PSoC5/RTC_INT.c ****                             /* Month */
 776:Generated_Source\PSoC5/RTC_INT.c ****                             if(RTC_dstTimeDateStop.Month == RTC_currentTimeDate.Month)
 1691              		.loc 1 776 0
 1692 0a62 0F4B     		ldr	r3, .L108+28
 1693 0a64 1B79     		ldrb	r3, [r3, #4]
 1694 0a66 DAB2     		uxtb	r2, r3
 1695 0a68 094B     		ldr	r3, .L108+12
 1696 0a6a 1B7A     		ldrb	r3, [r3, #8]
 1697 0a6c DBB2     		uxtb	r3, r3
 1698 0a6e 9A42     		cmp	r2, r3
 1699 0a70 1AD1     		bne	.L78
 777:Generated_Source\PSoC5/RTC_INT.c ****                             {
 778:Generated_Source\PSoC5/RTC_INT.c ****                                 RTC_dstStopStatus |= RTC_DST_MONTH;
 1700              		.loc 1 778 0
 1701 0a72 0C4B     		ldr	r3, .L108+32
 1702 0a74 1B78     		ldrb	r3, [r3]
 1703 0a76 DBB2     		uxtb	r3, r3
 1704 0a78 43F00403 		orr	r3, r3, #4
 1705 0a7c DAB2     		uxtb	r2, r3
 1706 0a7e 094B     		ldr	r3, .L108+32
 1707 0a80 1A70     		strb	r2, [r3]
 1708 0a82 19E0     		b	.L79
ARM GAS  C:\Users\Admin\AppData\Local\Temp\cc0dUITO.s 			page 45


 1709              	.L109:
 1710              		.align	2
 1711              	.L108:
 1712 0a84 00000000 		.word	RTC_dstStartStatus
 1713 0a88 00000000 		.word	RTC_dstOffsetMin
 1714 0a8c 89888888 		.word	-2004318071
 1715 0a90 00000000 		.word	RTC_currentTimeDate
 1716 0a94 00000000 		.word	RTC_statusDateTime
 1717 0a98 00000000 		.word	RTC_daysInMonths
 1718 0a9c 1F85EB51 		.word	1374389535
 1719 0aa0 00000000 		.word	RTC_dstTimeDateStop
 1720 0aa4 00000000 		.word	RTC_dstStopStatus
 1721              	.L78:
 779:Generated_Source\PSoC5/RTC_INT.c ****                             }
 780:Generated_Source\PSoC5/RTC_INT.c ****                             else
 781:Generated_Source\PSoC5/RTC_INT.c ****                             {
 782:Generated_Source\PSoC5/RTC_INT.c ****                                 RTC_dstStopStatus &= (uint8)(~RTC_DST_MONTH);
 1722              		.loc 1 782 0
 1723 0aa8 9A4B     		ldr	r3, .L110
 1724 0aaa 1B78     		ldrb	r3, [r3]
 1725 0aac DBB2     		uxtb	r3, r3
 1726 0aae 23F00403 		bic	r3, r3, #4
 1727 0ab2 DAB2     		uxtb	r2, r3
 1728 0ab4 974B     		ldr	r3, .L110
 1729 0ab6 1A70     		strb	r2, [r3]
 1730              	.L79:
 783:Generated_Source\PSoC5/RTC_INT.c ****                             }
 784:Generated_Source\PSoC5/RTC_INT.c **** 
 785:Generated_Source\PSoC5/RTC_INT.c ****                             /* DayOfMonth */
 786:Generated_Source\PSoC5/RTC_INT.c ****                             if(RTC_dstTimeDateStop.DayOfMonth ==
 1731              		.loc 1 786 0
 1732 0ab8 974B     		ldr	r3, .L110+4
 1733 0aba DB78     		ldrb	r3, [r3, #3]
 1734 0abc DAB2     		uxtb	r2, r3
 787:Generated_Source\PSoC5/RTC_INT.c ****                                                                             RTC_currentTimeDate.Day
 1735              		.loc 1 787 0
 1736 0abe 974B     		ldr	r3, .L110+8
 1737 0ac0 1B79     		ldrb	r3, [r3, #4]
 1738 0ac2 DBB2     		uxtb	r3, r3
 786:Generated_Source\PSoC5/RTC_INT.c ****                                                                             RTC_currentTimeDate.Day
 1739              		.loc 1 786 0
 1740 0ac4 9A42     		cmp	r2, r3
 1741 0ac6 08D1     		bne	.L80
 788:Generated_Source\PSoC5/RTC_INT.c ****                             {
 789:Generated_Source\PSoC5/RTC_INT.c ****                                 RTC_dstStopStatus |= RTC_DST_DAYOFMONTH;
 1742              		.loc 1 789 0
 1743 0ac8 924B     		ldr	r3, .L110
 1744 0aca 1B78     		ldrb	r3, [r3]
 1745 0acc DBB2     		uxtb	r3, r3
 1746 0ace 43F00203 		orr	r3, r3, #2
 1747 0ad2 DAB2     		uxtb	r2, r3
 1748 0ad4 8F4B     		ldr	r3, .L110
 1749 0ad6 1A70     		strb	r2, [r3]
 1750 0ad8 07E0     		b	.L64
 1751              	.L80:
 790:Generated_Source\PSoC5/RTC_INT.c ****                             }
 791:Generated_Source\PSoC5/RTC_INT.c ****                             else
ARM GAS  C:\Users\Admin\AppData\Local\Temp\cc0dUITO.s 			page 46


 792:Generated_Source\PSoC5/RTC_INT.c ****                             {
 793:Generated_Source\PSoC5/RTC_INT.c ****                                 RTC_dstStopStatus &= (uint8)(~RTC_DST_DAYOFMONTH);
 1752              		.loc 1 793 0
 1753 0ada 8E4B     		ldr	r3, .L110
 1754 0adc 1B78     		ldrb	r3, [r3]
 1755 0ade DBB2     		uxtb	r3, r3
 1756 0ae0 23F00203 		bic	r3, r3, #2
 1757 0ae4 DAB2     		uxtb	r2, r3
 1758 0ae6 8B4B     		ldr	r3, .L110
 1759 0ae8 1A70     		strb	r2, [r3]
 1760              	.L64:
 794:Generated_Source\PSoC5/RTC_INT.c ****                             }
 795:Generated_Source\PSoC5/RTC_INT.c ****                         }
 796:Generated_Source\PSoC5/RTC_INT.c ****                     }
 797:Generated_Source\PSoC5/RTC_INT.c **** 
 798:Generated_Source\PSoC5/RTC_INT.c ****                     /* Alarm DAYOFWEEK */
 799:Generated_Source\PSoC5/RTC_INT.c ****                     if(0u != RTC_IS_BIT_SET(RTC_alarmCfgMask,
 1761              		.loc 1 799 0
 1762 0aea 8D4B     		ldr	r3, .L110+12
 1763 0aec 1B78     		ldrb	r3, [r3]
 1764 0aee DBB2     		uxtb	r3, r3
 1765 0af0 03F00803 		and	r3, r3, #8
 1766 0af4 002B     		cmp	r3, #0
 1767 0af6 18D0     		beq	.L81
 800:Generated_Source\PSoC5/RTC_INT.c ****                                                          RTC_ALARM_DAYOFWEEK_MASK))
 801:Generated_Source\PSoC5/RTC_INT.c ****                     {
 802:Generated_Source\PSoC5/RTC_INT.c ****                         if(RTC_alarmCfgTimeDate.DayOfWeek == RTC_currentTimeDate.DayOfWeek)
 1768              		.loc 1 802 0
 1769 0af8 8A4B     		ldr	r3, .L110+16
 1770 0afa DB78     		ldrb	r3, [r3, #3]
 1771 0afc DAB2     		uxtb	r2, r3
 1772 0afe 874B     		ldr	r3, .L110+8
 1773 0b00 DB78     		ldrb	r3, [r3, #3]
 1774 0b02 DBB2     		uxtb	r3, r3
 1775 0b04 9A42     		cmp	r2, r3
 1776 0b06 08D1     		bne	.L82
 803:Generated_Source\PSoC5/RTC_INT.c ****                         {
 804:Generated_Source\PSoC5/RTC_INT.c ****                             RTC_alarmCurStatus |= RTC_ALARM_DAYOFWEEK_MASK;
 1777              		.loc 1 804 0
 1778 0b08 874B     		ldr	r3, .L110+20
 1779 0b0a 1B78     		ldrb	r3, [r3]
 1780 0b0c DBB2     		uxtb	r3, r3
 1781 0b0e 43F00803 		orr	r3, r3, #8
 1782 0b12 DAB2     		uxtb	r2, r3
 1783 0b14 844B     		ldr	r3, .L110+20
 1784 0b16 1A70     		strb	r2, [r3]
 1785 0b18 07E0     		b	.L81
 1786              	.L82:
 805:Generated_Source\PSoC5/RTC_INT.c ****                         }
 806:Generated_Source\PSoC5/RTC_INT.c ****                         else
 807:Generated_Source\PSoC5/RTC_INT.c ****                         {
 808:Generated_Source\PSoC5/RTC_INT.c ****                             RTC_alarmCurStatus &= (uint8)(~RTC_ALARM_DAYOFWEEK_MASK);
 1787              		.loc 1 808 0
 1788 0b1a 834B     		ldr	r3, .L110+20
 1789 0b1c 1B78     		ldrb	r3, [r3]
 1790 0b1e DBB2     		uxtb	r3, r3
 1791 0b20 23F00803 		bic	r3, r3, #8
ARM GAS  C:\Users\Admin\AppData\Local\Temp\cc0dUITO.s 			page 47


 1792 0b24 DAB2     		uxtb	r2, r3
 1793 0b26 804B     		ldr	r3, .L110+20
 1794 0b28 1A70     		strb	r2, [r3]
 1795              	.L81:
 809:Generated_Source\PSoC5/RTC_INT.c ****                         }
 810:Generated_Source\PSoC5/RTC_INT.c ****                     }
 811:Generated_Source\PSoC5/RTC_INT.c **** 
 812:Generated_Source\PSoC5/RTC_INT.c ****                     /* Alarm DAYOFYEAR */
 813:Generated_Source\PSoC5/RTC_INT.c ****                     if(0u != RTC_IS_BIT_SET(RTC_alarmCfgMask,
 1796              		.loc 1 813 0
 1797 0b2a 7D4B     		ldr	r3, .L110+12
 1798 0b2c 1B78     		ldrb	r3, [r3]
 1799 0b2e DBB2     		uxtb	r3, r3
 1800 0b30 03F02003 		and	r3, r3, #32
 1801 0b34 002B     		cmp	r3, #0
 1802 0b36 18D0     		beq	.L83
 814:Generated_Source\PSoC5/RTC_INT.c ****                                                          RTC_ALARM_DAYOFYEAR_MASK))
 815:Generated_Source\PSoC5/RTC_INT.c ****                     {
 816:Generated_Source\PSoC5/RTC_INT.c ****                         if(RTC_alarmCfgTimeDate.DayOfYear == RTC_currentTimeDate.DayOfYear)
 1803              		.loc 1 816 0
 1804 0b38 7A4B     		ldr	r3, .L110+16
 1805 0b3a DB88     		ldrh	r3, [r3, #6]	@ movhi
 1806 0b3c 9AB2     		uxth	r2, r3
 1807 0b3e 774B     		ldr	r3, .L110+8
 1808 0b40 DB88     		ldrh	r3, [r3, #6]	@ movhi
 1809 0b42 9BB2     		uxth	r3, r3
 1810 0b44 9A42     		cmp	r2, r3
 1811 0b46 08D1     		bne	.L84
 817:Generated_Source\PSoC5/RTC_INT.c ****                         {
 818:Generated_Source\PSoC5/RTC_INT.c ****                             RTC_alarmCurStatus |= RTC_ALARM_DAYOFYEAR_MASK;
 1812              		.loc 1 818 0
 1813 0b48 774B     		ldr	r3, .L110+20
 1814 0b4a 1B78     		ldrb	r3, [r3]
 1815 0b4c DBB2     		uxtb	r3, r3
 1816 0b4e 43F02003 		orr	r3, r3, #32
 1817 0b52 DAB2     		uxtb	r2, r3
 1818 0b54 744B     		ldr	r3, .L110+20
 1819 0b56 1A70     		strb	r2, [r3]
 1820 0b58 07E0     		b	.L83
 1821              	.L84:
 819:Generated_Source\PSoC5/RTC_INT.c ****                         }
 820:Generated_Source\PSoC5/RTC_INT.c ****                         else
 821:Generated_Source\PSoC5/RTC_INT.c ****                         {
 822:Generated_Source\PSoC5/RTC_INT.c ****                             RTC_alarmCurStatus &= (uint8)(~RTC_ALARM_DAYOFYEAR_MASK);
 1822              		.loc 1 822 0
 1823 0b5a 734B     		ldr	r3, .L110+20
 1824 0b5c 1B78     		ldrb	r3, [r3]
 1825 0b5e DBB2     		uxtb	r3, r3
 1826 0b60 23F02003 		bic	r3, r3, #32
 1827 0b64 DAB2     		uxtb	r2, r3
 1828 0b66 704B     		ldr	r3, .L110+20
 1829 0b68 1A70     		strb	r2, [r3]
 1830              	.L83:
 823:Generated_Source\PSoC5/RTC_INT.c ****                         }
 824:Generated_Source\PSoC5/RTC_INT.c ****                     }
 825:Generated_Source\PSoC5/RTC_INT.c **** 
 826:Generated_Source\PSoC5/RTC_INT.c ****                     /* Alarm DAYOFMONTH */
ARM GAS  C:\Users\Admin\AppData\Local\Temp\cc0dUITO.s 			page 48


 827:Generated_Source\PSoC5/RTC_INT.c ****                     if(0u != RTC_IS_BIT_SET(RTC_alarmCfgMask,
 1831              		.loc 1 827 0
 1832 0b6a 6D4B     		ldr	r3, .L110+12
 1833 0b6c 1B78     		ldrb	r3, [r3]
 1834 0b6e DBB2     		uxtb	r3, r3
 1835 0b70 03F01003 		and	r3, r3, #16
 1836 0b74 002B     		cmp	r3, #0
 1837 0b76 18D0     		beq	.L85
 828:Generated_Source\PSoC5/RTC_INT.c ****                                                          RTC_ALARM_DAYOFMONTH_MASK))
 829:Generated_Source\PSoC5/RTC_INT.c ****                     {
 830:Generated_Source\PSoC5/RTC_INT.c ****                         if(RTC_alarmCfgTimeDate.DayOfMonth == RTC_currentTimeDate.DayOfMonth)
 1838              		.loc 1 830 0
 1839 0b78 6A4B     		ldr	r3, .L110+16
 1840 0b7a 1B79     		ldrb	r3, [r3, #4]
 1841 0b7c DAB2     		uxtb	r2, r3
 1842 0b7e 674B     		ldr	r3, .L110+8
 1843 0b80 1B79     		ldrb	r3, [r3, #4]
 1844 0b82 DBB2     		uxtb	r3, r3
 1845 0b84 9A42     		cmp	r2, r3
 1846 0b86 08D1     		bne	.L86
 831:Generated_Source\PSoC5/RTC_INT.c ****                         {
 832:Generated_Source\PSoC5/RTC_INT.c ****                             RTC_alarmCurStatus |= RTC_ALARM_DAYOFMONTH_MASK;
 1847              		.loc 1 832 0
 1848 0b88 674B     		ldr	r3, .L110+20
 1849 0b8a 1B78     		ldrb	r3, [r3]
 1850 0b8c DBB2     		uxtb	r3, r3
 1851 0b8e 43F01003 		orr	r3, r3, #16
 1852 0b92 DAB2     		uxtb	r2, r3
 1853 0b94 644B     		ldr	r3, .L110+20
 1854 0b96 1A70     		strb	r2, [r3]
 1855 0b98 07E0     		b	.L85
 1856              	.L86:
 833:Generated_Source\PSoC5/RTC_INT.c ****                         }
 834:Generated_Source\PSoC5/RTC_INT.c ****                         else
 835:Generated_Source\PSoC5/RTC_INT.c ****                         {
 836:Generated_Source\PSoC5/RTC_INT.c ****                             RTC_alarmCurStatus &= (uint8)(~RTC_ALARM_DAYOFMONTH_MASK);
 1857              		.loc 1 836 0
 1858 0b9a 634B     		ldr	r3, .L110+20
 1859 0b9c 1B78     		ldrb	r3, [r3]
 1860 0b9e DBB2     		uxtb	r3, r3
 1861 0ba0 23F01003 		bic	r3, r3, #16
 1862 0ba4 DAB2     		uxtb	r2, r3
 1863 0ba6 604B     		ldr	r3, .L110+20
 1864 0ba8 1A70     		strb	r2, [r3]
 1865              	.L85:
 837:Generated_Source\PSoC5/RTC_INT.c ****                         }
 838:Generated_Source\PSoC5/RTC_INT.c ****                     }
 839:Generated_Source\PSoC5/RTC_INT.c **** 
 840:Generated_Source\PSoC5/RTC_INT.c ****                     /* Alarm MONTH */
 841:Generated_Source\PSoC5/RTC_INT.c ****                     if(0u != RTC_IS_BIT_SET(RTC_alarmCfgMask,
 1866              		.loc 1 841 0
 1867 0baa 5D4B     		ldr	r3, .L110+12
 1868 0bac 1B78     		ldrb	r3, [r3]
 1869 0bae DBB2     		uxtb	r3, r3
 1870 0bb0 03F04003 		and	r3, r3, #64
 1871 0bb4 002B     		cmp	r3, #0
 1872 0bb6 18D0     		beq	.L87
ARM GAS  C:\Users\Admin\AppData\Local\Temp\cc0dUITO.s 			page 49


 842:Generated_Source\PSoC5/RTC_INT.c ****                                                          RTC_ALARM_MONTH_MASK))
 843:Generated_Source\PSoC5/RTC_INT.c ****                     {
 844:Generated_Source\PSoC5/RTC_INT.c ****                         if(RTC_alarmCfgTimeDate.Month == RTC_currentTimeDate.Month)
 1873              		.loc 1 844 0
 1874 0bb8 5A4B     		ldr	r3, .L110+16
 1875 0bba 1B7A     		ldrb	r3, [r3, #8]
 1876 0bbc DAB2     		uxtb	r2, r3
 1877 0bbe 574B     		ldr	r3, .L110+8
 1878 0bc0 1B7A     		ldrb	r3, [r3, #8]
 1879 0bc2 DBB2     		uxtb	r3, r3
 1880 0bc4 9A42     		cmp	r2, r3
 1881 0bc6 08D1     		bne	.L88
 845:Generated_Source\PSoC5/RTC_INT.c ****                         {
 846:Generated_Source\PSoC5/RTC_INT.c ****                             RTC_alarmCurStatus |= RTC_ALARM_MONTH_MASK;
 1882              		.loc 1 846 0
 1883 0bc8 574B     		ldr	r3, .L110+20
 1884 0bca 1B78     		ldrb	r3, [r3]
 1885 0bcc DBB2     		uxtb	r3, r3
 1886 0bce 43F04003 		orr	r3, r3, #64
 1887 0bd2 DAB2     		uxtb	r2, r3
 1888 0bd4 544B     		ldr	r3, .L110+20
 1889 0bd6 1A70     		strb	r2, [r3]
 1890 0bd8 07E0     		b	.L87
 1891              	.L88:
 847:Generated_Source\PSoC5/RTC_INT.c ****                         }
 848:Generated_Source\PSoC5/RTC_INT.c ****                         else
 849:Generated_Source\PSoC5/RTC_INT.c ****                         {
 850:Generated_Source\PSoC5/RTC_INT.c ****                             RTC_alarmCurStatus &= (uint8)(~RTC_ALARM_MONTH_MASK);
 1892              		.loc 1 850 0
 1893 0bda 534B     		ldr	r3, .L110+20
 1894 0bdc 1B78     		ldrb	r3, [r3]
 1895 0bde DBB2     		uxtb	r3, r3
 1896 0be0 23F04003 		bic	r3, r3, #64
 1897 0be4 DAB2     		uxtb	r2, r3
 1898 0be6 504B     		ldr	r3, .L110+20
 1899 0be8 1A70     		strb	r2, [r3]
 1900              	.L87:
 851:Generated_Source\PSoC5/RTC_INT.c ****                         }
 852:Generated_Source\PSoC5/RTC_INT.c ****                     }
 853:Generated_Source\PSoC5/RTC_INT.c **** 
 854:Generated_Source\PSoC5/RTC_INT.c ****                     /* Alarm YEAR */
 855:Generated_Source\PSoC5/RTC_INT.c ****                     if(0u != RTC_IS_BIT_SET(RTC_alarmCfgMask,
 1901              		.loc 1 855 0
 1902 0bea 4D4B     		ldr	r3, .L110+12
 1903 0bec 1B78     		ldrb	r3, [r3]
 1904 0bee DBB2     		uxtb	r3, r3
 1905 0bf0 5BB2     		sxtb	r3, r3
 1906 0bf2 002B     		cmp	r3, #0
 1907 0bf4 18DA     		bge	.L89
 856:Generated_Source\PSoC5/RTC_INT.c ****                                                          RTC_ALARM_YEAR_MASK))
 857:Generated_Source\PSoC5/RTC_INT.c ****                     {
 858:Generated_Source\PSoC5/RTC_INT.c ****                         if(RTC_alarmCfgTimeDate.Year == RTC_currentTimeDate.Year)
 1908              		.loc 1 858 0
 1909 0bf6 4B4B     		ldr	r3, .L110+16
 1910 0bf8 5B89     		ldrh	r3, [r3, #10]	@ movhi
 1911 0bfa 9AB2     		uxth	r2, r3
 1912 0bfc 474B     		ldr	r3, .L110+8
ARM GAS  C:\Users\Admin\AppData\Local\Temp\cc0dUITO.s 			page 50


 1913 0bfe 5B89     		ldrh	r3, [r3, #10]	@ movhi
 1914 0c00 9BB2     		uxth	r3, r3
 1915 0c02 9A42     		cmp	r2, r3
 1916 0c04 08D1     		bne	.L90
 859:Generated_Source\PSoC5/RTC_INT.c ****                         {
 860:Generated_Source\PSoC5/RTC_INT.c ****                             RTC_alarmCurStatus |= RTC_ALARM_YEAR_MASK;
 1917              		.loc 1 860 0
 1918 0c06 484B     		ldr	r3, .L110+20
 1919 0c08 1B78     		ldrb	r3, [r3]
 1920 0c0a DBB2     		uxtb	r3, r3
 1921 0c0c 63F07F03 		orn	r3, r3, #127
 1922 0c10 DAB2     		uxtb	r2, r3
 1923 0c12 454B     		ldr	r3, .L110+20
 1924 0c14 1A70     		strb	r2, [r3]
 1925 0c16 07E0     		b	.L89
 1926              	.L90:
 861:Generated_Source\PSoC5/RTC_INT.c ****                         }
 862:Generated_Source\PSoC5/RTC_INT.c ****                         else
 863:Generated_Source\PSoC5/RTC_INT.c ****                         {
 864:Generated_Source\PSoC5/RTC_INT.c ****                             RTC_alarmCurStatus &= (uint8)(~RTC_ALARM_YEAR_MASK);
 1927              		.loc 1 864 0
 1928 0c18 434B     		ldr	r3, .L110+20
 1929 0c1a 1B78     		ldrb	r3, [r3]
 1930 0c1c DBB2     		uxtb	r3, r3
 1931 0c1e 03F07F03 		and	r3, r3, #127
 1932 0c22 DAB2     		uxtb	r2, r3
 1933 0c24 404B     		ldr	r3, .L110+20
 1934 0c26 1A70     		strb	r2, [r3]
 1935              	.L89:
 865:Generated_Source\PSoC5/RTC_INT.c ****                         }
 866:Generated_Source\PSoC5/RTC_INT.c ****                     }
 867:Generated_Source\PSoC5/RTC_INT.c **** 
 868:Generated_Source\PSoC5/RTC_INT.c ****                     /* Set Alarm flag event */
 869:Generated_Source\PSoC5/RTC_INT.c ****                     RTC_tmp = RTC_alarmCfgMask;
 1936              		.loc 1 869 0
 1937 0c28 3D4B     		ldr	r3, .L110+12
 1938 0c2a 1B78     		ldrb	r3, [r3]
 1939 0c2c FB71     		strb	r3, [r7, #7]
 870:Generated_Source\PSoC5/RTC_INT.c ****                     RTC_SET_ALARM(RTC_tmp,
 1940              		.loc 1 870 0
 1941 0c2e FB79     		ldrb	r3, [r7, #7]	@ zero_extendqisi2
 1942 0c30 002B     		cmp	r3, #0
 1943 0c32 13D0     		beq	.L49
 1944              		.loc 1 870 0 is_stmt 0 discriminator 1
 1945 0c34 3C4B     		ldr	r3, .L110+20
 1946 0c36 1B78     		ldrb	r3, [r3]
 1947 0c38 DAB2     		uxtb	r2, r3
 1948 0c3a FB79     		ldrb	r3, [r7, #7]
 1949 0c3c 1340     		ands	r3, r3, r2
 1950 0c3e DBB2     		uxtb	r3, r3
 1951 0c40 FA79     		ldrb	r2, [r7, #7]	@ zero_extendqisi2
 1952 0c42 9A42     		cmp	r2, r3
 1953 0c44 0AD1     		bne	.L49
 1954              		.loc 1 870 0 discriminator 2
 1955 0c46 394B     		ldr	r3, .L110+24
 1956 0c48 1B78     		ldrb	r3, [r3]
 1957 0c4a DBB2     		uxtb	r3, r3
ARM GAS  C:\Users\Admin\AppData\Local\Temp\cc0dUITO.s 			page 51


 1958 0c4c 43F00803 		orr	r3, r3, #8
 1959 0c50 DAB2     		uxtb	r2, r3
 1960 0c52 364B     		ldr	r3, .L110+24
 1961 0c54 1A70     		strb	r2, [r3]
 1962 0c56 344B     		ldr	r3, .L110+20
 1963 0c58 0022     		movs	r2, #0
 1964 0c5a 1A70     		strb	r2, [r3]
 1965              	.L49:
 871:Generated_Source\PSoC5/RTC_INT.c ****                                                RTC_alarmCurStatus,
 872:Generated_Source\PSoC5/RTC_INT.c ****                                                RTC_statusDateTime);
 873:Generated_Source\PSoC5/RTC_INT.c ****                 }
 874:Generated_Source\PSoC5/RTC_INT.c ****             #endif /* 1u == RTC_DST_FUNC_ENABLE */
 875:Generated_Source\PSoC5/RTC_INT.c **** 
 876:Generated_Source\PSoC5/RTC_INT.c ****             /* Alarm HOUR */
 877:Generated_Source\PSoC5/RTC_INT.c ****             if(0u != RTC_IS_BIT_SET(RTC_alarmCfgMask, RTC_ALARM_HOUR_MASK))
 1966              		.loc 1 877 0 is_stmt 1
 1967 0c5c 304B     		ldr	r3, .L110+12
 1968 0c5e 1B78     		ldrb	r3, [r3]
 1969 0c60 DBB2     		uxtb	r3, r3
 1970 0c62 03F00403 		and	r3, r3, #4
 1971 0c66 002B     		cmp	r3, #0
 1972 0c68 18D0     		beq	.L91
 878:Generated_Source\PSoC5/RTC_INT.c ****             {
 879:Generated_Source\PSoC5/RTC_INT.c ****                 if(RTC_alarmCfgTimeDate.Hour == RTC_currentTimeDate.Hour)
 1973              		.loc 1 879 0
 1974 0c6a 2E4B     		ldr	r3, .L110+16
 1975 0c6c 9B78     		ldrb	r3, [r3, #2]
 1976 0c6e DAB2     		uxtb	r2, r3
 1977 0c70 2A4B     		ldr	r3, .L110+8
 1978 0c72 9B78     		ldrb	r3, [r3, #2]
 1979 0c74 DBB2     		uxtb	r3, r3
 1980 0c76 9A42     		cmp	r2, r3
 1981 0c78 08D1     		bne	.L92
 880:Generated_Source\PSoC5/RTC_INT.c ****                 {
 881:Generated_Source\PSoC5/RTC_INT.c ****                     RTC_alarmCurStatus |= RTC_ALARM_HOUR_MASK;
 1982              		.loc 1 881 0
 1983 0c7a 2B4B     		ldr	r3, .L110+20
 1984 0c7c 1B78     		ldrb	r3, [r3]
 1985 0c7e DBB2     		uxtb	r3, r3
 1986 0c80 43F00403 		orr	r3, r3, #4
 1987 0c84 DAB2     		uxtb	r2, r3
 1988 0c86 284B     		ldr	r3, .L110+20
 1989 0c88 1A70     		strb	r2, [r3]
 1990 0c8a 07E0     		b	.L91
 1991              	.L92:
 882:Generated_Source\PSoC5/RTC_INT.c ****                 }
 883:Generated_Source\PSoC5/RTC_INT.c ****                 else
 884:Generated_Source\PSoC5/RTC_INT.c ****                 {
 885:Generated_Source\PSoC5/RTC_INT.c ****                     RTC_alarmCurStatus &= (uint8)(~RTC_ALARM_HOUR_MASK);
 1992              		.loc 1 885 0
 1993 0c8c 264B     		ldr	r3, .L110+20
 1994 0c8e 1B78     		ldrb	r3, [r3]
 1995 0c90 DBB2     		uxtb	r3, r3
 1996 0c92 23F00403 		bic	r3, r3, #4
 1997 0c96 DAB2     		uxtb	r2, r3
 1998 0c98 234B     		ldr	r3, .L110+20
 1999 0c9a 1A70     		strb	r2, [r3]
ARM GAS  C:\Users\Admin\AppData\Local\Temp\cc0dUITO.s 			page 52


 2000              	.L91:
 886:Generated_Source\PSoC5/RTC_INT.c ****                 }
 887:Generated_Source\PSoC5/RTC_INT.c ****             }
 888:Generated_Source\PSoC5/RTC_INT.c **** 
 889:Generated_Source\PSoC5/RTC_INT.c ****             /* Set Alarm flag event */
 890:Generated_Source\PSoC5/RTC_INT.c ****             RTC_tmp = RTC_alarmCfgMask;
 2001              		.loc 1 890 0
 2002 0c9c 204B     		ldr	r3, .L110+12
 2003 0c9e 1B78     		ldrb	r3, [r3]
 2004 0ca0 FB71     		strb	r3, [r7, #7]
 891:Generated_Source\PSoC5/RTC_INT.c ****             RTC_SET_ALARM(RTC_tmp,
 2005              		.loc 1 891 0
 2006 0ca2 FB79     		ldrb	r3, [r7, #7]	@ zero_extendqisi2
 2007 0ca4 002B     		cmp	r3, #0
 2008 0ca6 13D0     		beq	.L93
 2009              		.loc 1 891 0 is_stmt 0 discriminator 1
 2010 0ca8 1F4B     		ldr	r3, .L110+20
 2011 0caa 1B78     		ldrb	r3, [r3]
 2012 0cac DAB2     		uxtb	r2, r3
 2013 0cae FB79     		ldrb	r3, [r7, #7]
 2014 0cb0 1340     		ands	r3, r3, r2
 2015 0cb2 DBB2     		uxtb	r3, r3
 2016 0cb4 FA79     		ldrb	r2, [r7, #7]	@ zero_extendqisi2
 2017 0cb6 9A42     		cmp	r2, r3
 2018 0cb8 0AD1     		bne	.L93
 2019              		.loc 1 891 0 discriminator 2
 2020 0cba 1C4B     		ldr	r3, .L110+24
 2021 0cbc 1B78     		ldrb	r3, [r3]
 2022 0cbe DBB2     		uxtb	r3, r3
 2023 0cc0 43F00803 		orr	r3, r3, #8
 2024 0cc4 DAB2     		uxtb	r2, r3
 2025 0cc6 194B     		ldr	r3, .L110+24
 2026 0cc8 1A70     		strb	r2, [r3]
 2027 0cca 174B     		ldr	r3, .L110+20
 2028 0ccc 0022     		movs	r2, #0
 2029 0cce 1A70     		strb	r2, [r3]
 2030              	.L93:
 892:Generated_Source\PSoC5/RTC_INT.c ****                                        RTC_alarmCurStatus,
 893:Generated_Source\PSoC5/RTC_INT.c ****                                        RTC_statusDateTime);
 894:Generated_Source\PSoC5/RTC_INT.c **** 
 895:Generated_Source\PSoC5/RTC_INT.c ****             /* Every Hour */
 896:Generated_Source\PSoC5/RTC_INT.c ****             if(0u != RTC_IS_BIT_SET(RTC_intervalCfgMask, RTC_INTERVAL_HOUR_MASK))
 2031              		.loc 1 896 0 is_stmt 1
 2032 0cd0 174B     		ldr	r3, .L110+28
 2033 0cd2 1B78     		ldrb	r3, [r3]
 2034 0cd4 DBB2     		uxtb	r3, r3
 2035 0cd6 03F00403 		and	r3, r3, #4
 2036 0cda 002B     		cmp	r3, #0
 2037 0cdc 01D0     		beq	.L10
 897:Generated_Source\PSoC5/RTC_INT.c ****             {
 898:Generated_Source\PSoC5/RTC_INT.c ****                 RTC_EveryHourHandler();
 2038              		.loc 1 898 0
 2039 0cde FFF7FEFF 		bl	RTC_EveryHourHandler
 2040              	.L10:
 899:Generated_Source\PSoC5/RTC_INT.c ****             }
 900:Generated_Source\PSoC5/RTC_INT.c ****         } /* Min > 59 = Hour */
 901:Generated_Source\PSoC5/RTC_INT.c **** 
ARM GAS  C:\Users\Admin\AppData\Local\Temp\cc0dUITO.s 			page 53


 902:Generated_Source\PSoC5/RTC_INT.c ****         /* Alarm MIN */
 903:Generated_Source\PSoC5/RTC_INT.c ****         if(0u != RTC_IS_BIT_SET(RTC_alarmCfgMask, RTC_ALARM_MIN_MASK))
 2041              		.loc 1 903 0
 2042 0ce2 0F4B     		ldr	r3, .L110+12
 2043 0ce4 1B78     		ldrb	r3, [r3]
 2044 0ce6 DBB2     		uxtb	r3, r3
 2045 0ce8 03F00203 		and	r3, r3, #2
 2046 0cec 002B     		cmp	r3, #0
 2047 0cee 29D0     		beq	.L94
 904:Generated_Source\PSoC5/RTC_INT.c ****         {
 905:Generated_Source\PSoC5/RTC_INT.c ****             if(RTC_alarmCfgTimeDate.Min == RTC_currentTimeDate.Min)
 2048              		.loc 1 905 0
 2049 0cf0 0C4B     		ldr	r3, .L110+16
 2050 0cf2 5B78     		ldrb	r3, [r3, #1]
 2051 0cf4 DAB2     		uxtb	r2, r3
 2052 0cf6 094B     		ldr	r3, .L110+8
 2053 0cf8 5B78     		ldrb	r3, [r3, #1]
 2054 0cfa DBB2     		uxtb	r3, r3
 2055 0cfc 9A42     		cmp	r2, r3
 2056 0cfe 19D1     		bne	.L95
 906:Generated_Source\PSoC5/RTC_INT.c ****             {
 907:Generated_Source\PSoC5/RTC_INT.c ****                 RTC_alarmCurStatus |= RTC_ALARM_MIN_MASK;
 2057              		.loc 1 907 0
 2058 0d00 094B     		ldr	r3, .L110+20
 2059 0d02 1B78     		ldrb	r3, [r3]
 2060 0d04 DBB2     		uxtb	r3, r3
 2061 0d06 43F00203 		orr	r3, r3, #2
 2062 0d0a DAB2     		uxtb	r2, r3
 2063 0d0c 064B     		ldr	r3, .L110+20
 2064 0d0e 1A70     		strb	r2, [r3]
 2065 0d10 18E0     		b	.L94
 2066              	.L111:
 2067 0d12 00BF     		.align	2
 2068              	.L110:
 2069 0d14 00000000 		.word	RTC_dstStopStatus
 2070 0d18 00000000 		.word	RTC_dstTimeDateStop
 2071 0d1c 00000000 		.word	RTC_currentTimeDate
 2072 0d20 00000000 		.word	RTC_alarmCfgMask
 2073 0d24 00000000 		.word	RTC_alarmCfgTimeDate
 2074 0d28 00000000 		.word	RTC_alarmCurStatus
 2075 0d2c 00000000 		.word	RTC_statusDateTime
 2076 0d30 00000000 		.word	RTC_intervalCfgMask
 2077              	.L95:
 908:Generated_Source\PSoC5/RTC_INT.c ****             }
 909:Generated_Source\PSoC5/RTC_INT.c ****             else
 910:Generated_Source\PSoC5/RTC_INT.c ****             {
 911:Generated_Source\PSoC5/RTC_INT.c ****                 RTC_alarmCurStatus &= (uint8)(~RTC_ALARM_MIN_MASK);
 2078              		.loc 1 911 0
 2079 0d34 384B     		ldr	r3, .L112
 2080 0d36 1B78     		ldrb	r3, [r3]
 2081 0d38 DBB2     		uxtb	r3, r3
 2082 0d3a 23F00203 		bic	r3, r3, #2
 2083 0d3e DAB2     		uxtb	r2, r3
 2084 0d40 354B     		ldr	r3, .L112
 2085 0d42 1A70     		strb	r2, [r3]
 2086              	.L94:
 912:Generated_Source\PSoC5/RTC_INT.c ****             }
ARM GAS  C:\Users\Admin\AppData\Local\Temp\cc0dUITO.s 			page 54


 913:Generated_Source\PSoC5/RTC_INT.c ****         }
 914:Generated_Source\PSoC5/RTC_INT.c **** 
 915:Generated_Source\PSoC5/RTC_INT.c ****         /* Set Alarm flag event */
 916:Generated_Source\PSoC5/RTC_INT.c ****         RTC_tmp = RTC_alarmCfgMask;
 2087              		.loc 1 916 0
 2088 0d44 354B     		ldr	r3, .L112+4
 2089 0d46 1B78     		ldrb	r3, [r3]
 2090 0d48 FB71     		strb	r3, [r7, #7]
 917:Generated_Source\PSoC5/RTC_INT.c ****         RTC_SET_ALARM(RTC_tmp,
 2091              		.loc 1 917 0
 2092 0d4a FB79     		ldrb	r3, [r7, #7]	@ zero_extendqisi2
 2093 0d4c 002B     		cmp	r3, #0
 2094 0d4e 13D0     		beq	.L96
 2095              		.loc 1 917 0 is_stmt 0 discriminator 1
 2096 0d50 314B     		ldr	r3, .L112
 2097 0d52 1B78     		ldrb	r3, [r3]
 2098 0d54 DAB2     		uxtb	r2, r3
 2099 0d56 FB79     		ldrb	r3, [r7, #7]
 2100 0d58 1340     		ands	r3, r3, r2
 2101 0d5a DBB2     		uxtb	r3, r3
 2102 0d5c FA79     		ldrb	r2, [r7, #7]	@ zero_extendqisi2
 2103 0d5e 9A42     		cmp	r2, r3
 2104 0d60 0AD1     		bne	.L96
 2105              		.loc 1 917 0 discriminator 2
 2106 0d62 2F4B     		ldr	r3, .L112+8
 2107 0d64 1B78     		ldrb	r3, [r3]
 2108 0d66 DBB2     		uxtb	r3, r3
 2109 0d68 43F00803 		orr	r3, r3, #8
 2110 0d6c DAB2     		uxtb	r2, r3
 2111 0d6e 2C4B     		ldr	r3, .L112+8
 2112 0d70 1A70     		strb	r2, [r3]
 2113 0d72 294B     		ldr	r3, .L112
 2114 0d74 0022     		movs	r2, #0
 2115 0d76 1A70     		strb	r2, [r3]
 2116              	.L96:
 918:Generated_Source\PSoC5/RTC_INT.c ****                                    RTC_alarmCurStatus,
 919:Generated_Source\PSoC5/RTC_INT.c ****                                    RTC_statusDateTime);
 920:Generated_Source\PSoC5/RTC_INT.c **** 
 921:Generated_Source\PSoC5/RTC_INT.c ****         /* Every Min */
 922:Generated_Source\PSoC5/RTC_INT.c ****         if(0u != RTC_IS_BIT_SET(RTC_intervalCfgMask, RTC_INTERVAL_MIN_MASK))
 2117              		.loc 1 922 0 is_stmt 1
 2118 0d78 2A4B     		ldr	r3, .L112+12
 2119 0d7a 1B78     		ldrb	r3, [r3]
 2120 0d7c DBB2     		uxtb	r3, r3
 2121 0d7e 03F00203 		and	r3, r3, #2
 2122 0d82 002B     		cmp	r3, #0
 2123 0d84 01D0     		beq	.L9
 923:Generated_Source\PSoC5/RTC_INT.c ****         {
 924:Generated_Source\PSoC5/RTC_INT.c ****             RTC_EveryMinuteHandler();
 2124              		.loc 1 924 0
 2125 0d86 FFF7FEFF 		bl	RTC_EveryMinuteHandler
 2126              	.L9:
 925:Generated_Source\PSoC5/RTC_INT.c ****         }
 926:Generated_Source\PSoC5/RTC_INT.c ****     } /* Sec */
 927:Generated_Source\PSoC5/RTC_INT.c **** 
 928:Generated_Source\PSoC5/RTC_INT.c ****     /* Alarm SEC */
 929:Generated_Source\PSoC5/RTC_INT.c ****     if(0u != RTC_IS_BIT_SET(RTC_alarmCfgMask, RTC_ALARM_SEC_MASK))
ARM GAS  C:\Users\Admin\AppData\Local\Temp\cc0dUITO.s 			page 55


 2127              		.loc 1 929 0
 2128 0d8a 244B     		ldr	r3, .L112+4
 2129 0d8c 1B78     		ldrb	r3, [r3]
 2130 0d8e DBB2     		uxtb	r3, r3
 2131 0d90 03F00103 		and	r3, r3, #1
 2132 0d94 002B     		cmp	r3, #0
 2133 0d96 18D0     		beq	.L97
 930:Generated_Source\PSoC5/RTC_INT.c ****     {
 931:Generated_Source\PSoC5/RTC_INT.c ****         if(RTC_alarmCfgTimeDate.Sec == RTC_currentTimeDate.Sec)
 2134              		.loc 1 931 0
 2135 0d98 234B     		ldr	r3, .L112+16
 2136 0d9a 1B78     		ldrb	r3, [r3]
 2137 0d9c DAB2     		uxtb	r2, r3
 2138 0d9e 234B     		ldr	r3, .L112+20
 2139 0da0 1B78     		ldrb	r3, [r3]
 2140 0da2 DBB2     		uxtb	r3, r3
 2141 0da4 9A42     		cmp	r2, r3
 2142 0da6 08D1     		bne	.L98
 932:Generated_Source\PSoC5/RTC_INT.c ****         {
 933:Generated_Source\PSoC5/RTC_INT.c ****             RTC_alarmCurStatus |= RTC_ALARM_SEC_MASK;
 2143              		.loc 1 933 0
 2144 0da8 1B4B     		ldr	r3, .L112
 2145 0daa 1B78     		ldrb	r3, [r3]
 2146 0dac DBB2     		uxtb	r3, r3
 2147 0dae 43F00103 		orr	r3, r3, #1
 2148 0db2 DAB2     		uxtb	r2, r3
 2149 0db4 184B     		ldr	r3, .L112
 2150 0db6 1A70     		strb	r2, [r3]
 2151 0db8 07E0     		b	.L97
 2152              	.L98:
 934:Generated_Source\PSoC5/RTC_INT.c ****         }
 935:Generated_Source\PSoC5/RTC_INT.c ****         else
 936:Generated_Source\PSoC5/RTC_INT.c ****         {
 937:Generated_Source\PSoC5/RTC_INT.c ****             RTC_alarmCurStatus &= (uint8)(~RTC_ALARM_SEC_MASK);
 2153              		.loc 1 937 0
 2154 0dba 174B     		ldr	r3, .L112
 2155 0dbc 1B78     		ldrb	r3, [r3]
 2156 0dbe DBB2     		uxtb	r3, r3
 2157 0dc0 23F00103 		bic	r3, r3, #1
 2158 0dc4 DAB2     		uxtb	r2, r3
 2159 0dc6 144B     		ldr	r3, .L112
 2160 0dc8 1A70     		strb	r2, [r3]
 2161              	.L97:
 938:Generated_Source\PSoC5/RTC_INT.c ****         }
 939:Generated_Source\PSoC5/RTC_INT.c ****     }
 940:Generated_Source\PSoC5/RTC_INT.c **** 
 941:Generated_Source\PSoC5/RTC_INT.c ****     /* Set Alarm flag event */
 942:Generated_Source\PSoC5/RTC_INT.c ****     RTC_tmp = RTC_alarmCfgMask;
 2162              		.loc 1 942 0
 2163 0dca 144B     		ldr	r3, .L112+4
 2164 0dcc 1B78     		ldrb	r3, [r3]
 2165 0dce FB71     		strb	r3, [r7, #7]
 943:Generated_Source\PSoC5/RTC_INT.c ****     RTC_SET_ALARM(RTC_tmp, RTC_alarmCurStatus, RTC_statusDateTime);
 2166              		.loc 1 943 0
 2167 0dd0 FB79     		ldrb	r3, [r7, #7]	@ zero_extendqisi2
 2168 0dd2 002B     		cmp	r3, #0
 2169 0dd4 13D0     		beq	.L99
ARM GAS  C:\Users\Admin\AppData\Local\Temp\cc0dUITO.s 			page 56


 2170              		.loc 1 943 0 is_stmt 0 discriminator 1
 2171 0dd6 104B     		ldr	r3, .L112
 2172 0dd8 1B78     		ldrb	r3, [r3]
 2173 0dda DAB2     		uxtb	r2, r3
 2174 0ddc FB79     		ldrb	r3, [r7, #7]
 2175 0dde 1340     		ands	r3, r3, r2
 2176 0de0 DBB2     		uxtb	r3, r3
 2177 0de2 FA79     		ldrb	r2, [r7, #7]	@ zero_extendqisi2
 2178 0de4 9A42     		cmp	r2, r3
 2179 0de6 0AD1     		bne	.L99
 2180              		.loc 1 943 0 discriminator 2
 2181 0de8 0D4B     		ldr	r3, .L112+8
 2182 0dea 1B78     		ldrb	r3, [r3]
 2183 0dec DBB2     		uxtb	r3, r3
 2184 0dee 43F00803 		orr	r3, r3, #8
 2185 0df2 DAB2     		uxtb	r2, r3
 2186 0df4 0A4B     		ldr	r3, .L112+8
 2187 0df6 1A70     		strb	r2, [r3]
 2188 0df8 074B     		ldr	r3, .L112
 2189 0dfa 0022     		movs	r2, #0
 2190 0dfc 1A70     		strb	r2, [r3]
 2191              	.L99:
 944:Generated_Source\PSoC5/RTC_INT.c **** 
 945:Generated_Source\PSoC5/RTC_INT.c ****     /* Execute every second handler if needed */
 946:Generated_Source\PSoC5/RTC_INT.c ****     if(0u != RTC_IS_BIT_SET(RTC_intervalCfgMask, RTC_INTERVAL_SEC_MASK))
 2192              		.loc 1 946 0 is_stmt 1
 2193 0dfe 094B     		ldr	r3, .L112+12
 2194 0e00 1B78     		ldrb	r3, [r3]
 2195 0e02 DBB2     		uxtb	r3, r3
 2196 0e04 03F00103 		and	r3, r3, #1
 2197 0e08 002B     		cmp	r3, #0
 2198 0e0a 01D0     		beq	.L101
 947:Generated_Source\PSoC5/RTC_INT.c ****     {
 948:Generated_Source\PSoC5/RTC_INT.c ****         RTC_EverySecondHandler();
 2199              		.loc 1 948 0
 2200 0e0c FFF7FEFF 		bl	RTC_EverySecondHandler
 2201              	.L101:
 949:Generated_Source\PSoC5/RTC_INT.c ****     }
 950:Generated_Source\PSoC5/RTC_INT.c ****     
 951:Generated_Source\PSoC5/RTC_INT.c ****     #ifdef RTC_ISR_EXIT_CALLBACK
 952:Generated_Source\PSoC5/RTC_INT.c ****         RTC_ISR_ExitCallback();
 953:Generated_Source\PSoC5/RTC_INT.c ****     #endif /* RTC_ISR_EXIT_CALLBACK */
 954:Generated_Source\PSoC5/RTC_INT.c **** }
 2202              		.loc 1 954 0
 2203 0e10 00BF     		nop
 2204 0e12 0837     		adds	r7, r7, #8
 2205              		.cfi_def_cfa_offset 8
 2206 0e14 BD46     		mov	sp, r7
 2207              		.cfi_def_cfa_register 13
 2208              		@ sp needed
 2209 0e16 80BD     		pop	{r7, pc}
 2210              	.L113:
 2211              		.align	2
 2212              	.L112:
 2213 0e18 00000000 		.word	RTC_alarmCurStatus
 2214 0e1c 00000000 		.word	RTC_alarmCfgMask
 2215 0e20 00000000 		.word	RTC_statusDateTime
ARM GAS  C:\Users\Admin\AppData\Local\Temp\cc0dUITO.s 			page 57


 2216 0e24 00000000 		.word	RTC_intervalCfgMask
 2217 0e28 00000000 		.word	RTC_alarmCfgTimeDate
 2218 0e2c 00000000 		.word	RTC_currentTimeDate
 2219              		.cfi_endproc
 2220              	.LFE7:
 2221              		.size	RTC_ISR, .-RTC_ISR
 2222              		.text
 2223              	.Letext0:
 2224              		.file 2 "Generated_Source\\PSoC5\\cytypes.h"
 2225              		.file 3 "Generated_Source\\PSoC5\\RTC.h"
 2226              		.file 4 "./cyapicallbacks.h"
 2227              		.section	.debug_info,"",%progbits
 2228              	.Ldebug_info0:
 2229 0000 DA020000 		.4byte	0x2da
 2230 0004 0400     		.2byte	0x4
 2231 0006 00000000 		.4byte	.Ldebug_abbrev0
 2232 000a 04       		.byte	0x4
 2233 000b 01       		.uleb128 0x1
 2234 000c 0B000000 		.4byte	.LASF47
 2235 0010 0C       		.byte	0xc
 2236 0011 4C030000 		.4byte	.LASF48
 2237 0015 B2000000 		.4byte	.LASF49
 2238 0019 00000000 		.4byte	.Ldebug_ranges0+0
 2239 001d 00000000 		.4byte	0
 2240 0021 00000000 		.4byte	.Ldebug_line0
 2241 0025 02       		.uleb128 0x2
 2242 0026 01       		.byte	0x1
 2243 0027 06       		.byte	0x6
 2244 0028 29030000 		.4byte	.LASF0
 2245 002c 02       		.uleb128 0x2
 2246 002d 01       		.byte	0x1
 2247 002e 08       		.byte	0x8
 2248 002f 39010000 		.4byte	.LASF1
 2249 0033 02       		.uleb128 0x2
 2250 0034 02       		.byte	0x2
 2251 0035 05       		.byte	0x5
 2252 0036 E6020000 		.4byte	.LASF2
 2253 003a 02       		.uleb128 0x2
 2254 003b 02       		.byte	0x2
 2255 003c 07       		.byte	0x7
 2256 003d F0000000 		.4byte	.LASF3
 2257 0041 02       		.uleb128 0x2
 2258 0042 04       		.byte	0x4
 2259 0043 05       		.byte	0x5
 2260 0044 14030000 		.4byte	.LASF4
 2261 0048 02       		.uleb128 0x2
 2262 0049 04       		.byte	0x4
 2263 004a 07       		.byte	0x7
 2264 004b 79010000 		.4byte	.LASF5
 2265 004f 02       		.uleb128 0x2
 2266 0050 08       		.byte	0x8
 2267 0051 05       		.byte	0x5
 2268 0052 B0020000 		.4byte	.LASF6
 2269 0056 02       		.uleb128 0x2
 2270 0057 08       		.byte	0x8
 2271 0058 07       		.byte	0x7
 2272 0059 21020000 		.4byte	.LASF7
ARM GAS  C:\Users\Admin\AppData\Local\Temp\cc0dUITO.s 			page 58


 2273 005d 03       		.uleb128 0x3
 2274 005e 04       		.byte	0x4
 2275 005f 05       		.byte	0x5
 2276 0060 696E7400 		.ascii	"int\000"
 2277 0064 02       		.uleb128 0x2
 2278 0065 04       		.byte	0x4
 2279 0066 07       		.byte	0x7
 2280 0067 FE010000 		.4byte	.LASF8
 2281 006b 04       		.uleb128 0x4
 2282 006c 90010000 		.4byte	.LASF9
 2283 0070 02       		.byte	0x2
 2284 0071 9201     		.2byte	0x192
 2285 0073 2C000000 		.4byte	0x2c
 2286 0077 04       		.uleb128 0x4
 2287 0078 F7010000 		.4byte	.LASF10
 2288 007c 02       		.byte	0x2
 2289 007d 9301     		.2byte	0x193
 2290 007f 3A000000 		.4byte	0x3a
 2291 0083 02       		.uleb128 0x2
 2292 0084 04       		.byte	0x4
 2293 0085 04       		.byte	0x4
 2294 0086 33010000 		.4byte	.LASF11
 2295 008a 02       		.uleb128 0x2
 2296 008b 08       		.byte	0x8
 2297 008c 04       		.byte	0x4
 2298 008d D1010000 		.4byte	.LASF12
 2299 0091 02       		.uleb128 0x2
 2300 0092 01       		.byte	0x1
 2301 0093 08       		.byte	0x8
 2302 0094 BE020000 		.4byte	.LASF13
 2303 0098 05       		.uleb128 0x5
 2304 0099 6B000000 		.4byte	0x6b
 2305 009d 06       		.uleb128 0x6
 2306 009e 0C       		.byte	0xc
 2307 009f 03       		.byte	0x3
 2308 00a0 30       		.byte	0x30
 2309 00a1 06010000 		.4byte	0x106
 2310 00a5 07       		.uleb128 0x7
 2311 00a6 53656300 		.ascii	"Sec\000"
 2312 00aa 03       		.byte	0x3
 2313 00ab 32       		.byte	0x32
 2314 00ac 6B000000 		.4byte	0x6b
 2315 00b0 00       		.byte	0
 2316 00b1 07       		.uleb128 0x7
 2317 00b2 4D696E00 		.ascii	"Min\000"
 2318 00b6 03       		.byte	0x3
 2319 00b7 33       		.byte	0x33
 2320 00b8 6B000000 		.4byte	0x6b
 2321 00bc 01       		.byte	0x1
 2322 00bd 08       		.uleb128 0x8
 2323 00be F0020000 		.4byte	.LASF14
 2324 00c2 03       		.byte	0x3
 2325 00c3 34       		.byte	0x34
 2326 00c4 6B000000 		.4byte	0x6b
 2327 00c8 02       		.byte	0x2
 2328 00c9 08       		.uleb128 0x8
 2329 00ca 0A030000 		.4byte	.LASF15
ARM GAS  C:\Users\Admin\AppData\Local\Temp\cc0dUITO.s 			page 59


 2330 00ce 03       		.byte	0x3
 2331 00cf 35       		.byte	0x35
 2332 00d0 6B000000 		.4byte	0x6b
 2333 00d4 03       		.byte	0x3
 2334 00d5 08       		.uleb128 0x8
 2335 00d6 00000000 		.4byte	.LASF16
 2336 00da 03       		.byte	0x3
 2337 00db 36       		.byte	0x36
 2338 00dc 6B000000 		.4byte	0x6b
 2339 00e0 04       		.byte	0x4
 2340 00e1 08       		.uleb128 0x8
 2341 00e2 96010000 		.4byte	.LASF17
 2342 00e6 03       		.byte	0x3
 2343 00e7 37       		.byte	0x37
 2344 00e8 77000000 		.4byte	0x77
 2345 00ec 06       		.byte	0x6
 2346 00ed 08       		.uleb128 0x8
 2347 00ee A0010000 		.4byte	.LASF18
 2348 00f2 03       		.byte	0x3
 2349 00f3 38       		.byte	0x38
 2350 00f4 6B000000 		.4byte	0x6b
 2351 00f8 08       		.byte	0x8
 2352 00f9 08       		.uleb128 0x8
 2353 00fa BB010000 		.4byte	.LASF19
 2354 00fe 03       		.byte	0x3
 2355 00ff 39       		.byte	0x39
 2356 0100 77000000 		.4byte	0x77
 2357 0104 0A       		.byte	0xa
 2358 0105 00       		.byte	0
 2359 0106 09       		.uleb128 0x9
 2360 0107 D8020000 		.4byte	.LASF20
 2361 010b 03       		.byte	0x3
 2362 010c 3A       		.byte	0x3a
 2363 010d 11010000 		.4byte	0x111
 2364 0111 05       		.uleb128 0x5
 2365 0112 9D000000 		.4byte	0x9d
 2366 0116 06       		.uleb128 0x6
 2367 0117 05       		.byte	0x5
 2368 0118 03       		.byte	0x3
 2369 0119 3C       		.byte	0x3c
 2370 011a 5B010000 		.4byte	0x15b
 2371 011e 08       		.uleb128 0x8
 2372 011f F0020000 		.4byte	.LASF14
 2373 0123 03       		.byte	0x3
 2374 0124 3E       		.byte	0x3e
 2375 0125 6B000000 		.4byte	0x6b
 2376 0129 00       		.byte	0
 2377 012a 08       		.uleb128 0x8
 2378 012b 0A030000 		.4byte	.LASF15
 2379 012f 03       		.byte	0x3
 2380 0130 3F       		.byte	0x3f
 2381 0131 6B000000 		.4byte	0x6b
 2382 0135 01       		.byte	0x1
 2383 0136 08       		.uleb128 0x8
 2384 0137 AD000000 		.4byte	.LASF21
 2385 013b 03       		.byte	0x3
 2386 013c 40       		.byte	0x40
ARM GAS  C:\Users\Admin\AppData\Local\Temp\cc0dUITO.s 			page 60


 2387 013d 6B000000 		.4byte	0x6b
 2388 0141 02       		.byte	0x2
 2389 0142 08       		.uleb128 0x8
 2390 0143 00000000 		.4byte	.LASF16
 2391 0147 03       		.byte	0x3
 2392 0148 41       		.byte	0x41
 2393 0149 6B000000 		.4byte	0x6b
 2394 014d 03       		.byte	0x3
 2395 014e 08       		.uleb128 0x8
 2396 014f A0010000 		.4byte	.LASF18
 2397 0153 03       		.byte	0x3
 2398 0154 42       		.byte	0x42
 2399 0155 6B000000 		.4byte	0x6b
 2400 0159 04       		.byte	0x4
 2401 015a 00       		.byte	0
 2402 015b 09       		.uleb128 0x9
 2403 015c D8010000 		.4byte	.LASF22
 2404 0160 03       		.byte	0x3
 2405 0161 43       		.byte	0x43
 2406 0162 66010000 		.4byte	0x166
 2407 0166 05       		.uleb128 0x5
 2408 0167 16010000 		.4byte	0x116
 2409 016b 02       		.uleb128 0x2
 2410 016c 08       		.byte	0x8
 2411 016d 04       		.byte	0x4
 2412 016e 1D030000 		.4byte	.LASF23
 2413 0172 02       		.uleb128 0x2
 2414 0173 04       		.byte	0x4
 2415 0174 07       		.byte	0x7
 2416 0175 96020000 		.4byte	.LASF24
 2417 0179 0A       		.uleb128 0xa
 2418 017a 4F010000 		.4byte	.LASF25
 2419 017e 01       		.byte	0x1
 2420 017f 34       		.byte	0x34
 2421 0180 00000000 		.4byte	.LFB0
 2422 0184 0C000000 		.4byte	.LFE0-.LFB0
 2423 0188 01       		.uleb128 0x1
 2424 0189 9C       		.byte	0x9c
 2425 018a 0A       		.uleb128 0xa
 2426 018b 35030000 		.4byte	.LASF26
 2427 018f 01       		.byte	0x1
 2428 0190 4F       		.byte	0x4f
 2429 0191 00000000 		.4byte	.LFB1
 2430 0195 0C000000 		.4byte	.LFE1-.LFB1
 2431 0199 01       		.uleb128 0x1
 2432 019a 9C       		.byte	0x9c
 2433 019b 0A       		.uleb128 0xa
 2434 019c C3020000 		.4byte	.LASF27
 2435 01a0 01       		.byte	0x1
 2436 01a1 6A       		.byte	0x6a
 2437 01a2 00000000 		.4byte	.LFB2
 2438 01a6 0C000000 		.4byte	.LFE2-.LFB2
 2439 01aa 01       		.uleb128 0x1
 2440 01ab 9C       		.byte	0x9c
 2441 01ac 0A       		.uleb128 0xa
 2442 01ad 99000000 		.4byte	.LASF28
 2443 01b1 01       		.byte	0x1
ARM GAS  C:\Users\Admin\AppData\Local\Temp\cc0dUITO.s 			page 61


 2444 01b2 85       		.byte	0x85
 2445 01b3 00000000 		.4byte	.LFB3
 2446 01b7 0C000000 		.4byte	.LFE3-.LFB3
 2447 01bb 01       		.uleb128 0x1
 2448 01bc 9C       		.byte	0x9c
 2449 01bd 0B       		.uleb128 0xb
 2450 01be 5B020000 		.4byte	.LASF29
 2451 01c2 01       		.byte	0x1
 2452 01c3 A0       		.byte	0xa0
 2453 01c4 00000000 		.4byte	.LFB4
 2454 01c8 0C000000 		.4byte	.LFE4-.LFB4
 2455 01cc 01       		.uleb128 0x1
 2456 01cd 9C       		.byte	0x9c
 2457 01ce 0A       		.uleb128 0xa
 2458 01cf 0B020000 		.4byte	.LASF30
 2459 01d3 01       		.byte	0x1
 2460 01d4 BB       		.byte	0xbb
 2461 01d5 00000000 		.4byte	.LFB5
 2462 01d9 0C000000 		.4byte	.LFE5-.LFB5
 2463 01dd 01       		.uleb128 0x1
 2464 01de 9C       		.byte	0x9c
 2465 01df 0A       		.uleb128 0xa
 2466 01e0 1E010000 		.4byte	.LASF31
 2467 01e4 01       		.byte	0x1
 2468 01e5 D6       		.byte	0xd6
 2469 01e6 00000000 		.4byte	.LFB6
 2470 01ea 0C000000 		.4byte	.LFE6-.LFB6
 2471 01ee 01       		.uleb128 0x1
 2472 01ef 9C       		.byte	0x9c
 2473 01f0 0C       		.uleb128 0xc
 2474 01f1 47010000 		.4byte	.LASF50
 2475 01f5 01       		.byte	0x1
 2476 01f6 0901     		.2byte	0x109
 2477 01f8 00000000 		.4byte	.LFB7
 2478 01fc 300E0000 		.4byte	.LFE7-.LFB7
 2479 0200 01       		.uleb128 0x1
 2480 0201 9C       		.byte	0x9c
 2481 0202 16020000 		.4byte	0x216
 2482 0206 0D       		.uleb128 0xd
 2483 0207 03010000 		.4byte	.LASF32
 2484 020b 01       		.byte	0x1
 2485 020c 0B01     		.2byte	0x10b
 2486 020e 6B000000 		.4byte	0x6b
 2487 0212 02       		.uleb128 0x2
 2488 0213 91       		.byte	0x91
 2489 0214 77       		.sleb128 -9
 2490 0215 00       		.byte	0
 2491 0216 0E       		.uleb128 0xe
 2492 0217 8B010000 		.4byte	.LASF33
 2493 021b 04       		.byte	0x4
 2494 021c 1D       		.byte	0x1d
 2495 021d 98000000 		.4byte	0x98
 2496 0221 05       		.uleb128 0x5
 2497 0222 03       		.byte	0x3
 2498 0223 00000000 		.4byte	temp
 2499 0227 0F       		.uleb128 0xf
 2500 0228 A6010000 		.4byte	.LASF34
ARM GAS  C:\Users\Admin\AppData\Local\Temp\cc0dUITO.s 			page 62


 2501 022c 03       		.byte	0x3
 2502 022d 2D01     		.2byte	0x12d
 2503 022f 06010000 		.4byte	0x106
 2504 0233 0F       		.uleb128 0xf
 2505 0234 70020000 		.4byte	.LASF35
 2506 0238 03       		.byte	0x3
 2507 0239 2E01     		.2byte	0x12e
 2508 023b 06010000 		.4byte	0x106
 2509 023f 0F       		.uleb128 0xf
 2510 0240 38020000 		.4byte	.LASF36
 2511 0244 03       		.byte	0x3
 2512 0245 3101     		.2byte	0x131
 2513 0247 98000000 		.4byte	0x98
 2514 024b 0F       		.uleb128 0xf
 2515 024c F5020000 		.4byte	.LASF37
 2516 0250 03       		.byte	0x3
 2517 0251 3201     		.2byte	0x132
 2518 0253 5B010000 		.4byte	0x15b
 2519 0257 0F       		.uleb128 0xf
 2520 0258 E3010000 		.4byte	.LASF38
 2521 025c 03       		.byte	0x3
 2522 025d 3301     		.2byte	0x133
 2523 025f 5B010000 		.4byte	0x15b
 2524 0263 0F       		.uleb128 0xf
 2525 0264 DF000000 		.4byte	.LASF39
 2526 0268 03       		.byte	0x3
 2527 0269 3401     		.2byte	0x134
 2528 026b 98000000 		.4byte	0x98
 2529 026f 0F       		.uleb128 0xf
 2530 0270 66010000 		.4byte	.LASF40
 2531 0274 03       		.byte	0x3
 2532 0275 3501     		.2byte	0x135
 2533 0277 98000000 		.4byte	0x98
 2534 027b 0F       		.uleb128 0xf
 2535 027c 84020000 		.4byte	.LASF41
 2536 0280 03       		.byte	0x3
 2537 0281 3601     		.2byte	0x136
 2538 0283 98000000 		.4byte	0x98
 2539 0287 0F       		.uleb128 0xf
 2540 0288 C0010000 		.4byte	.LASF42
 2541 028c 03       		.byte	0x3
 2542 028d 3901     		.2byte	0x139
 2543 028f 98000000 		.4byte	0x98
 2544 0293 0F       		.uleb128 0xf
 2545 0294 48020000 		.4byte	.LASF43
 2546 0298 03       		.byte	0x3
 2547 0299 3A01     		.2byte	0x13a
 2548 029b 98000000 		.4byte	0x98
 2549 029f 0F       		.uleb128 0xf
 2550 02a0 6D030000 		.4byte	.LASF44
 2551 02a4 03       		.byte	0x3
 2552 02a5 3B01     		.2byte	0x13b
 2553 02a7 98000000 		.4byte	0x98
 2554 02ab 0F       		.uleb128 0xf
 2555 02ac 0B010000 		.4byte	.LASF45
 2556 02b0 03       		.byte	0x3
 2557 02b1 3C01     		.2byte	0x13c
ARM GAS  C:\Users\Admin\AppData\Local\Temp\cc0dUITO.s 			page 63


 2558 02b3 98000000 		.4byte	0x98
 2559 02b7 10       		.uleb128 0x10
 2560 02b8 C7020000 		.4byte	0x2c7
 2561 02bc C7020000 		.4byte	0x2c7
 2562 02c0 11       		.uleb128 0x11
 2563 02c1 72010000 		.4byte	0x172
 2564 02c5 0B       		.byte	0xb
 2565 02c6 00       		.byte	0
 2566 02c7 12       		.uleb128 0x12
 2567 02c8 6B000000 		.4byte	0x6b
 2568 02cc 0F       		.uleb128 0xf
 2569 02cd 9F020000 		.4byte	.LASF46
 2570 02d1 03       		.byte	0x3
 2571 02d2 3E01     		.2byte	0x13e
 2572 02d4 D8020000 		.4byte	0x2d8
 2573 02d8 12       		.uleb128 0x12
 2574 02d9 B7020000 		.4byte	0x2b7
 2575 02dd 00       		.byte	0
 2576              		.section	.debug_abbrev,"",%progbits
 2577              	.Ldebug_abbrev0:
 2578 0000 01       		.uleb128 0x1
 2579 0001 11       		.uleb128 0x11
 2580 0002 01       		.byte	0x1
 2581 0003 25       		.uleb128 0x25
 2582 0004 0E       		.uleb128 0xe
 2583 0005 13       		.uleb128 0x13
 2584 0006 0B       		.uleb128 0xb
 2585 0007 03       		.uleb128 0x3
 2586 0008 0E       		.uleb128 0xe
 2587 0009 1B       		.uleb128 0x1b
 2588 000a 0E       		.uleb128 0xe
 2589 000b 55       		.uleb128 0x55
 2590 000c 17       		.uleb128 0x17
 2591 000d 11       		.uleb128 0x11
 2592 000e 01       		.uleb128 0x1
 2593 000f 10       		.uleb128 0x10
 2594 0010 17       		.uleb128 0x17
 2595 0011 00       		.byte	0
 2596 0012 00       		.byte	0
 2597 0013 02       		.uleb128 0x2
 2598 0014 24       		.uleb128 0x24
 2599 0015 00       		.byte	0
 2600 0016 0B       		.uleb128 0xb
 2601 0017 0B       		.uleb128 0xb
 2602 0018 3E       		.uleb128 0x3e
 2603 0019 0B       		.uleb128 0xb
 2604 001a 03       		.uleb128 0x3
 2605 001b 0E       		.uleb128 0xe
 2606 001c 00       		.byte	0
 2607 001d 00       		.byte	0
 2608 001e 03       		.uleb128 0x3
 2609 001f 24       		.uleb128 0x24
 2610 0020 00       		.byte	0
 2611 0021 0B       		.uleb128 0xb
 2612 0022 0B       		.uleb128 0xb
 2613 0023 3E       		.uleb128 0x3e
 2614 0024 0B       		.uleb128 0xb
ARM GAS  C:\Users\Admin\AppData\Local\Temp\cc0dUITO.s 			page 64


 2615 0025 03       		.uleb128 0x3
 2616 0026 08       		.uleb128 0x8
 2617 0027 00       		.byte	0
 2618 0028 00       		.byte	0
 2619 0029 04       		.uleb128 0x4
 2620 002a 16       		.uleb128 0x16
 2621 002b 00       		.byte	0
 2622 002c 03       		.uleb128 0x3
 2623 002d 0E       		.uleb128 0xe
 2624 002e 3A       		.uleb128 0x3a
 2625 002f 0B       		.uleb128 0xb
 2626 0030 3B       		.uleb128 0x3b
 2627 0031 05       		.uleb128 0x5
 2628 0032 49       		.uleb128 0x49
 2629 0033 13       		.uleb128 0x13
 2630 0034 00       		.byte	0
 2631 0035 00       		.byte	0
 2632 0036 05       		.uleb128 0x5
 2633 0037 35       		.uleb128 0x35
 2634 0038 00       		.byte	0
 2635 0039 49       		.uleb128 0x49
 2636 003a 13       		.uleb128 0x13
 2637 003b 00       		.byte	0
 2638 003c 00       		.byte	0
 2639 003d 06       		.uleb128 0x6
 2640 003e 13       		.uleb128 0x13
 2641 003f 01       		.byte	0x1
 2642 0040 0B       		.uleb128 0xb
 2643 0041 0B       		.uleb128 0xb
 2644 0042 3A       		.uleb128 0x3a
 2645 0043 0B       		.uleb128 0xb
 2646 0044 3B       		.uleb128 0x3b
 2647 0045 0B       		.uleb128 0xb
 2648 0046 01       		.uleb128 0x1
 2649 0047 13       		.uleb128 0x13
 2650 0048 00       		.byte	0
 2651 0049 00       		.byte	0
 2652 004a 07       		.uleb128 0x7
 2653 004b 0D       		.uleb128 0xd
 2654 004c 00       		.byte	0
 2655 004d 03       		.uleb128 0x3
 2656 004e 08       		.uleb128 0x8
 2657 004f 3A       		.uleb128 0x3a
 2658 0050 0B       		.uleb128 0xb
 2659 0051 3B       		.uleb128 0x3b
 2660 0052 0B       		.uleb128 0xb
 2661 0053 49       		.uleb128 0x49
 2662 0054 13       		.uleb128 0x13
 2663 0055 38       		.uleb128 0x38
 2664 0056 0B       		.uleb128 0xb
 2665 0057 00       		.byte	0
 2666 0058 00       		.byte	0
 2667 0059 08       		.uleb128 0x8
 2668 005a 0D       		.uleb128 0xd
 2669 005b 00       		.byte	0
 2670 005c 03       		.uleb128 0x3
 2671 005d 0E       		.uleb128 0xe
ARM GAS  C:\Users\Admin\AppData\Local\Temp\cc0dUITO.s 			page 65


 2672 005e 3A       		.uleb128 0x3a
 2673 005f 0B       		.uleb128 0xb
 2674 0060 3B       		.uleb128 0x3b
 2675 0061 0B       		.uleb128 0xb
 2676 0062 49       		.uleb128 0x49
 2677 0063 13       		.uleb128 0x13
 2678 0064 38       		.uleb128 0x38
 2679 0065 0B       		.uleb128 0xb
 2680 0066 00       		.byte	0
 2681 0067 00       		.byte	0
 2682 0068 09       		.uleb128 0x9
 2683 0069 16       		.uleb128 0x16
 2684 006a 00       		.byte	0
 2685 006b 03       		.uleb128 0x3
 2686 006c 0E       		.uleb128 0xe
 2687 006d 3A       		.uleb128 0x3a
 2688 006e 0B       		.uleb128 0xb
 2689 006f 3B       		.uleb128 0x3b
 2690 0070 0B       		.uleb128 0xb
 2691 0071 49       		.uleb128 0x49
 2692 0072 13       		.uleb128 0x13
 2693 0073 00       		.byte	0
 2694 0074 00       		.byte	0
 2695 0075 0A       		.uleb128 0xa
 2696 0076 2E       		.uleb128 0x2e
 2697 0077 00       		.byte	0
 2698 0078 03       		.uleb128 0x3
 2699 0079 0E       		.uleb128 0xe
 2700 007a 3A       		.uleb128 0x3a
 2701 007b 0B       		.uleb128 0xb
 2702 007c 3B       		.uleb128 0x3b
 2703 007d 0B       		.uleb128 0xb
 2704 007e 27       		.uleb128 0x27
 2705 007f 19       		.uleb128 0x19
 2706 0080 11       		.uleb128 0x11
 2707 0081 01       		.uleb128 0x1
 2708 0082 12       		.uleb128 0x12
 2709 0083 06       		.uleb128 0x6
 2710 0084 40       		.uleb128 0x40
 2711 0085 18       		.uleb128 0x18
 2712 0086 9642     		.uleb128 0x2116
 2713 0088 19       		.uleb128 0x19
 2714 0089 00       		.byte	0
 2715 008a 00       		.byte	0
 2716 008b 0B       		.uleb128 0xb
 2717 008c 2E       		.uleb128 0x2e
 2718 008d 00       		.byte	0
 2719 008e 03       		.uleb128 0x3
 2720 008f 0E       		.uleb128 0xe
 2721 0090 3A       		.uleb128 0x3a
 2722 0091 0B       		.uleb128 0xb
 2723 0092 3B       		.uleb128 0x3b
 2724 0093 0B       		.uleb128 0xb
 2725 0094 27       		.uleb128 0x27
 2726 0095 19       		.uleb128 0x19
 2727 0096 11       		.uleb128 0x11
 2728 0097 01       		.uleb128 0x1
ARM GAS  C:\Users\Admin\AppData\Local\Temp\cc0dUITO.s 			page 66


 2729 0098 12       		.uleb128 0x12
 2730 0099 06       		.uleb128 0x6
 2731 009a 40       		.uleb128 0x40
 2732 009b 18       		.uleb128 0x18
 2733 009c 9742     		.uleb128 0x2117
 2734 009e 19       		.uleb128 0x19
 2735 009f 00       		.byte	0
 2736 00a0 00       		.byte	0
 2737 00a1 0C       		.uleb128 0xc
 2738 00a2 2E       		.uleb128 0x2e
 2739 00a3 01       		.byte	0x1
 2740 00a4 3F       		.uleb128 0x3f
 2741 00a5 19       		.uleb128 0x19
 2742 00a6 03       		.uleb128 0x3
 2743 00a7 0E       		.uleb128 0xe
 2744 00a8 3A       		.uleb128 0x3a
 2745 00a9 0B       		.uleb128 0xb
 2746 00aa 3B       		.uleb128 0x3b
 2747 00ab 05       		.uleb128 0x5
 2748 00ac 27       		.uleb128 0x27
 2749 00ad 19       		.uleb128 0x19
 2750 00ae 11       		.uleb128 0x11
 2751 00af 01       		.uleb128 0x1
 2752 00b0 12       		.uleb128 0x12
 2753 00b1 06       		.uleb128 0x6
 2754 00b2 40       		.uleb128 0x40
 2755 00b3 18       		.uleb128 0x18
 2756 00b4 9642     		.uleb128 0x2116
 2757 00b6 19       		.uleb128 0x19
 2758 00b7 01       		.uleb128 0x1
 2759 00b8 13       		.uleb128 0x13
 2760 00b9 00       		.byte	0
 2761 00ba 00       		.byte	0
 2762 00bb 0D       		.uleb128 0xd
 2763 00bc 34       		.uleb128 0x34
 2764 00bd 00       		.byte	0
 2765 00be 03       		.uleb128 0x3
 2766 00bf 0E       		.uleb128 0xe
 2767 00c0 3A       		.uleb128 0x3a
 2768 00c1 0B       		.uleb128 0xb
 2769 00c2 3B       		.uleb128 0x3b
 2770 00c3 05       		.uleb128 0x5
 2771 00c4 49       		.uleb128 0x49
 2772 00c5 13       		.uleb128 0x13
 2773 00c6 02       		.uleb128 0x2
 2774 00c7 18       		.uleb128 0x18
 2775 00c8 00       		.byte	0
 2776 00c9 00       		.byte	0
 2777 00ca 0E       		.uleb128 0xe
 2778 00cb 34       		.uleb128 0x34
 2779 00cc 00       		.byte	0
 2780 00cd 03       		.uleb128 0x3
 2781 00ce 0E       		.uleb128 0xe
 2782 00cf 3A       		.uleb128 0x3a
 2783 00d0 0B       		.uleb128 0xb
 2784 00d1 3B       		.uleb128 0x3b
 2785 00d2 0B       		.uleb128 0xb
ARM GAS  C:\Users\Admin\AppData\Local\Temp\cc0dUITO.s 			page 67


 2786 00d3 49       		.uleb128 0x49
 2787 00d4 13       		.uleb128 0x13
 2788 00d5 02       		.uleb128 0x2
 2789 00d6 18       		.uleb128 0x18
 2790 00d7 00       		.byte	0
 2791 00d8 00       		.byte	0
 2792 00d9 0F       		.uleb128 0xf
 2793 00da 34       		.uleb128 0x34
 2794 00db 00       		.byte	0
 2795 00dc 03       		.uleb128 0x3
 2796 00dd 0E       		.uleb128 0xe
 2797 00de 3A       		.uleb128 0x3a
 2798 00df 0B       		.uleb128 0xb
 2799 00e0 3B       		.uleb128 0x3b
 2800 00e1 05       		.uleb128 0x5
 2801 00e2 49       		.uleb128 0x49
 2802 00e3 13       		.uleb128 0x13
 2803 00e4 3F       		.uleb128 0x3f
 2804 00e5 19       		.uleb128 0x19
 2805 00e6 3C       		.uleb128 0x3c
 2806 00e7 19       		.uleb128 0x19
 2807 00e8 00       		.byte	0
 2808 00e9 00       		.byte	0
 2809 00ea 10       		.uleb128 0x10
 2810 00eb 01       		.uleb128 0x1
 2811 00ec 01       		.byte	0x1
 2812 00ed 49       		.uleb128 0x49
 2813 00ee 13       		.uleb128 0x13
 2814 00ef 01       		.uleb128 0x1
 2815 00f0 13       		.uleb128 0x13
 2816 00f1 00       		.byte	0
 2817 00f2 00       		.byte	0
 2818 00f3 11       		.uleb128 0x11
 2819 00f4 21       		.uleb128 0x21
 2820 00f5 00       		.byte	0
 2821 00f6 49       		.uleb128 0x49
 2822 00f7 13       		.uleb128 0x13
 2823 00f8 2F       		.uleb128 0x2f
 2824 00f9 0B       		.uleb128 0xb
 2825 00fa 00       		.byte	0
 2826 00fb 00       		.byte	0
 2827 00fc 12       		.uleb128 0x12
 2828 00fd 26       		.uleb128 0x26
 2829 00fe 00       		.byte	0
 2830 00ff 49       		.uleb128 0x49
 2831 0100 13       		.uleb128 0x13
 2832 0101 00       		.byte	0
 2833 0102 00       		.byte	0
 2834 0103 00       		.byte	0
 2835              		.section	.debug_aranges,"",%progbits
 2836 0000 54000000 		.4byte	0x54
 2837 0004 0200     		.2byte	0x2
 2838 0006 00000000 		.4byte	.Ldebug_info0
 2839 000a 04       		.byte	0x4
 2840 000b 00       		.byte	0
 2841 000c 0000     		.2byte	0
 2842 000e 0000     		.2byte	0
ARM GAS  C:\Users\Admin\AppData\Local\Temp\cc0dUITO.s 			page 68


 2843 0010 00000000 		.4byte	.LFB0
 2844 0014 0C000000 		.4byte	.LFE0-.LFB0
 2845 0018 00000000 		.4byte	.LFB1
 2846 001c 0C000000 		.4byte	.LFE1-.LFB1
 2847 0020 00000000 		.4byte	.LFB2
 2848 0024 0C000000 		.4byte	.LFE2-.LFB2
 2849 0028 00000000 		.4byte	.LFB3
 2850 002c 0C000000 		.4byte	.LFE3-.LFB3
 2851 0030 00000000 		.4byte	.LFB4
 2852 0034 0C000000 		.4byte	.LFE4-.LFB4
 2853 0038 00000000 		.4byte	.LFB5
 2854 003c 0C000000 		.4byte	.LFE5-.LFB5
 2855 0040 00000000 		.4byte	.LFB6
 2856 0044 0C000000 		.4byte	.LFE6-.LFB6
 2857 0048 00000000 		.4byte	.LFB7
 2858 004c 300E0000 		.4byte	.LFE7-.LFB7
 2859 0050 00000000 		.4byte	0
 2860 0054 00000000 		.4byte	0
 2861              		.section	.debug_ranges,"",%progbits
 2862              	.Ldebug_ranges0:
 2863 0000 00000000 		.4byte	.LFB0
 2864 0004 0C000000 		.4byte	.LFE0
 2865 0008 00000000 		.4byte	.LFB1
 2866 000c 0C000000 		.4byte	.LFE1
 2867 0010 00000000 		.4byte	.LFB2
 2868 0014 0C000000 		.4byte	.LFE2
 2869 0018 00000000 		.4byte	.LFB3
 2870 001c 0C000000 		.4byte	.LFE3
 2871 0020 00000000 		.4byte	.LFB4
 2872 0024 0C000000 		.4byte	.LFE4
 2873 0028 00000000 		.4byte	.LFB5
 2874 002c 0C000000 		.4byte	.LFE5
 2875 0030 00000000 		.4byte	.LFB6
 2876 0034 0C000000 		.4byte	.LFE6
 2877 0038 00000000 		.4byte	.LFB7
 2878 003c 300E0000 		.4byte	.LFE7
 2879 0040 00000000 		.4byte	0
 2880 0044 00000000 		.4byte	0
 2881              		.section	.debug_line,"",%progbits
 2882              	.Ldebug_line0:
 2883 0000 85020000 		.section	.debug_str,"MS",%progbits,1
 2883      02006300 
 2883      00000201 
 2883      FB0E0D00 
 2883      01010101 
 2884              	.LASF16:
 2885 0000 4461794F 		.ascii	"DayOfMonth\000"
 2885      664D6F6E 
 2885      746800
 2886              	.LASF47:
 2887 000b 474E5520 		.ascii	"GNU C11 5.4.1 20160609 (release) [ARM/embedded-5-br"
 2887      43313120 
 2887      352E342E 
 2887      31203230 
 2887      31363036 
 2888 003e 616E6368 		.ascii	"anch revision 237715] -mcpu=cortex-m3 -mthumb -g -O"
 2888      20726576 
ARM GAS  C:\Users\Admin\AppData\Local\Temp\cc0dUITO.s 			page 69


 2888      6973696F 
 2888      6E203233 
 2888      37373135 
 2889 0071 30202D66 		.ascii	"0 -ffunction-sections -ffat-lto-objects\000"
 2889      66756E63 
 2889      74696F6E 
 2889      2D736563 
 2889      74696F6E 
 2890              	.LASF28:
 2891 0099 5254435F 		.ascii	"RTC_EveryDayHandler\000"
 2891      45766572 
 2891      79446179 
 2891      48616E64 
 2891      6C657200 
 2892              	.LASF21:
 2893 00ad 5765656B 		.ascii	"Week\000"
 2893      00
 2894              	.LASF49:
 2895 00b2 443A5C4B 		.ascii	"D:\\KR_Marichka\\Workspace01\\RtcDesign01.cydsn\000"
 2895      525F4D61 
 2895      72696368 
 2895      6B615C57 
 2895      6F726B73 
 2896              	.LASF39:
 2897 00df 5254435F 		.ascii	"RTC_dstOffsetMin\000"
 2897      6473744F 
 2897      66667365 
 2897      744D696E 
 2897      00
 2898              	.LASF3:
 2899 00f0 73686F72 		.ascii	"short unsigned int\000"
 2899      7420756E 
 2899      7369676E 
 2899      65642069 
 2899      6E7400
 2900              	.LASF32:
 2901 0103 5254435F 		.ascii	"RTC_tmp\000"
 2901      746D7000 
 2902              	.LASF45:
 2903 010b 5254435F 		.ascii	"RTC_statusDateTime\000"
 2903      73746174 
 2903      75734461 
 2903      74655469 
 2903      6D6500
 2904              	.LASF31:
 2905 011e 5254435F 		.ascii	"RTC_EveryYearHandler\000"
 2905      45766572 
 2905      79596561 
 2905      7248616E 
 2905      646C6572 
 2906              	.LASF11:
 2907 0133 666C6F61 		.ascii	"float\000"
 2907      7400
 2908              	.LASF1:
 2909 0139 756E7369 		.ascii	"unsigned char\000"
 2909      676E6564 
 2909      20636861 
ARM GAS  C:\Users\Admin\AppData\Local\Temp\cc0dUITO.s 			page 70


 2909      7200
 2910              	.LASF50:
 2911 0147 5254435F 		.ascii	"RTC_ISR\000"
 2911      49535200 
 2912              	.LASF25:
 2913 014f 5254435F 		.ascii	"RTC_EverySecondHandler\000"
 2913      45766572 
 2913      79536563 
 2913      6F6E6448 
 2913      616E646C 
 2914              	.LASF40:
 2915 0166 5254435F 		.ascii	"RTC_dstStartStatus\000"
 2915      64737453 
 2915      74617274 
 2915      53746174 
 2915      757300
 2916              	.LASF5:
 2917 0179 6C6F6E67 		.ascii	"long unsigned int\000"
 2917      20756E73 
 2917      69676E65 
 2917      6420696E 
 2917      7400
 2918              	.LASF33:
 2919 018b 74656D70 		.ascii	"temp\000"
 2919      00
 2920              	.LASF9:
 2921 0190 75696E74 		.ascii	"uint8\000"
 2921      3800
 2922              	.LASF17:
 2923 0196 4461794F 		.ascii	"DayOfYear\000"
 2923      66596561 
 2923      7200
 2924              	.LASF18:
 2925 01a0 4D6F6E74 		.ascii	"Month\000"
 2925      6800
 2926              	.LASF34:
 2927 01a6 5254435F 		.ascii	"RTC_alarmCfgTimeDate\000"
 2927      616C6172 
 2927      6D436667 
 2927      54696D65 
 2927      44617465 
 2928              	.LASF19:
 2929 01bb 59656172 		.ascii	"Year\000"
 2929      00
 2930              	.LASF42:
 2931 01c0 5254435F 		.ascii	"RTC_alarmCfgMask\000"
 2931      616C6172 
 2931      6D436667 
 2931      4D61736B 
 2931      00
 2932              	.LASF12:
 2933 01d1 646F7562 		.ascii	"double\000"
 2933      6C6500
 2934              	.LASF22:
 2935 01d8 5254435F 		.ascii	"RTC_DSTIME\000"
 2935      44535449 
 2935      4D4500
ARM GAS  C:\Users\Admin\AppData\Local\Temp\cc0dUITO.s 			page 71


 2936              	.LASF38:
 2937 01e3 5254435F 		.ascii	"RTC_dstTimeDateStop\000"
 2937      64737454 
 2937      696D6544 
 2937      61746553 
 2937      746F7000 
 2938              	.LASF10:
 2939 01f7 75696E74 		.ascii	"uint16\000"
 2939      313600
 2940              	.LASF8:
 2941 01fe 756E7369 		.ascii	"unsigned int\000"
 2941      676E6564 
 2941      20696E74 
 2941      00
 2942              	.LASF30:
 2943 020b 5254435F 		.ascii	"RTC_EveryMonthHandler\000"
 2943      45766572 
 2943      794D6F6E 
 2943      74684861 
 2943      6E646C65 
 2944              	.LASF7:
 2945 0221 6C6F6E67 		.ascii	"long long unsigned int\000"
 2945      206C6F6E 
 2945      6720756E 
 2945      7369676E 
 2945      65642069 
 2946              	.LASF36:
 2947 0238 5254435F 		.ascii	"RTC_dstModeType\000"
 2947      6473744D 
 2947      6F646554 
 2947      79706500 
 2948              	.LASF43:
 2949 0248 5254435F 		.ascii	"RTC_alarmCurStatus\000"
 2949      616C6172 
 2949      6D437572 
 2949      53746174 
 2949      757300
 2950              	.LASF29:
 2951 025b 5254435F 		.ascii	"RTC_EveryWeekHandler\000"
 2951      45766572 
 2951      79576565 
 2951      6B48616E 
 2951      646C6572 
 2952              	.LASF35:
 2953 0270 5254435F 		.ascii	"RTC_currentTimeDate\000"
 2953      63757272 
 2953      656E7454 
 2953      696D6544 
 2953      61746500 
 2954              	.LASF41:
 2955 0284 5254435F 		.ascii	"RTC_dstStopStatus\000"
 2955      64737453 
 2955      746F7053 
 2955      74617475 
 2955      7300
 2956              	.LASF24:
 2957 0296 73697A65 		.ascii	"sizetype\000"
ARM GAS  C:\Users\Admin\AppData\Local\Temp\cc0dUITO.s 			page 72


 2957      74797065 
 2957      00
 2958              	.LASF46:
 2959 029f 5254435F 		.ascii	"RTC_daysInMonths\000"
 2959      64617973 
 2959      496E4D6F 
 2959      6E746873 
 2959      00
 2960              	.LASF6:
 2961 02b0 6C6F6E67 		.ascii	"long long int\000"
 2961      206C6F6E 
 2961      6720696E 
 2961      7400
 2962              	.LASF13:
 2963 02be 63686172 		.ascii	"char\000"
 2963      00
 2964              	.LASF27:
 2965 02c3 5254435F 		.ascii	"RTC_EveryHourHandler\000"
 2965      45766572 
 2965      79486F75 
 2965      7248616E 
 2965      646C6572 
 2966              	.LASF20:
 2967 02d8 5254435F 		.ascii	"RTC_TIME_DATE\000"
 2967      54494D45 
 2967      5F444154 
 2967      4500
 2968              	.LASF2:
 2969 02e6 73686F72 		.ascii	"short int\000"
 2969      7420696E 
 2969      7400
 2970              	.LASF14:
 2971 02f0 486F7572 		.ascii	"Hour\000"
 2971      00
 2972              	.LASF37:
 2973 02f5 5254435F 		.ascii	"RTC_dstTimeDateStart\000"
 2973      64737454 
 2973      696D6544 
 2973      61746553 
 2973      74617274 
 2974              	.LASF15:
 2975 030a 4461794F 		.ascii	"DayOfWeek\000"
 2975      66576565 
 2975      6B00
 2976              	.LASF4:
 2977 0314 6C6F6E67 		.ascii	"long int\000"
 2977      20696E74 
 2977      00
 2978              	.LASF23:
 2979 031d 6C6F6E67 		.ascii	"long double\000"
 2979      20646F75 
 2979      626C6500 
 2980              	.LASF0:
 2981 0329 7369676E 		.ascii	"signed char\000"
 2981      65642063 
 2981      68617200 
 2982              	.LASF26:
ARM GAS  C:\Users\Admin\AppData\Local\Temp\cc0dUITO.s 			page 73


 2983 0335 5254435F 		.ascii	"RTC_EveryMinuteHandler\000"
 2983      45766572 
 2983      794D696E 
 2983      75746548 
 2983      616E646C 
 2984              	.LASF48:
 2985 034c 47656E65 		.ascii	"Generated_Source\\PSoC5\\RTC_INT.c\000"
 2985      72617465 
 2985      645F536F 
 2985      75726365 
 2985      5C50536F 
 2986              	.LASF44:
 2987 036d 5254435F 		.ascii	"RTC_intervalCfgMask\000"
 2987      696E7465 
 2987      7276616C 
 2987      4366674D 
 2987      61736B00 
 2988              		.ident	"GCC: (GNU Tools for ARM Embedded Processors) 5.4.1 20160609 (release) [ARM/embedded-5-bran
