ARM GAS  C:\Users\Admin\AppData\Local\Temp\cc1uvXO4.s 			page 1


   1              		.syntax unified
   2              		.cpu cortex-m3
   3              		.fpu softvfp
   4              		.eabi_attribute 20, 1
   5              		.eabi_attribute 21, 1
   6              		.eabi_attribute 23, 3
   7              		.eabi_attribute 24, 1
   8              		.eabi_attribute 25, 1
   9              		.eabi_attribute 26, 1
  10              		.eabi_attribute 30, 6
  11              		.eabi_attribute 34, 1
  12              		.eabi_attribute 18, 4
  13              		.thumb
  14              		.syntax unified
  15              		.file	"utils.c"
  16              		.text
  17              	.Ltext0:
  18              		.cfi_sections	.debug_frame
  19              		.section	.text.PrintDecNumber,"ax",%progbits
  20              		.align	2
  21              		.global	PrintDecNumber
  22              		.thumb
  23              		.thumb_func
  24              		.type	PrintDecNumber, %function
  25              	PrintDecNumber:
  26              	.LFB63:
  27              		.file 1 "utils.c"
   1:utils.c       **** /*******************************************************************************
   2:utils.c       **** * File Name: utils.c
   3:utils.c       **** *
   4:utils.c       **** * Version: 3.30
   5:utils.c       **** *
   6:utils.c       **** * Description:
   7:utils.c       **** *  This is source code library for the datasheet example project of the
   8:utils.c       **** *  Real Time Clock (RTC) component.
   9:utils.c       **** *
  10:utils.c       **** ********************************************************************************
  11:utils.c       **** * Copyright 2013-2015, Cypress Semiconductor Corporation. All rights reserved.
  12:utils.c       **** * This software is owned by Cypress Semiconductor Corporation and is protected
  13:utils.c       **** * by and subject to worldwide patent and copyright laws and treaties.
  14:utils.c       **** * Therefore, you may use this software only as provided in the license agreement
  15:utils.c       **** * accompanying the software package from which you obtained this software.
  16:utils.c       **** * CYPRESS AND ITS SUPPLIERS MAKE NO WARRANTY OF ANY KIND, EXPRESS OR IMPLIED,
  17:utils.c       **** * WITH REGARD TO THIS SOFTWARE, INCLUDING, BUT NOT LIMITED TO, NONINFRINGEMENT,
  18:utils.c       **** * IMPLIED WARRANTIES OF MERCHANTABILITY AND FITNESS FOR A PARTICULAR PURPOSE.
  19:utils.c       **** *******************************************************************************/
  20:utils.c       **** 
  21:utils.c       **** #include "utils.h"
  22:utils.c       **** #include <project.h>
  23:utils.c       **** 
  24:utils.c       **** 
  25:utils.c       **** /*******************************************************************************
  26:utils.c       **** * Function Name: PrintDecNumber
  27:utils.c       **** ********************************************************************************
  28:utils.c       **** *
  29:utils.c       **** * Summary:
  30:utils.c       **** *  Prints decimal value of the number at a specified row and column of
ARM GAS  C:\Users\Admin\AppData\Local\Temp\cc1uvXO4.s 			page 2


  31:utils.c       **** *  LCD character display named LCD.
  32:utils.c       **** *
  33:utils.c       **** * Parameters:
  34:utils.c       **** *  uint8 num - Number to be printed.
  35:utils.c       **** *  uint8 row - Display row where to print.
  36:utils.c       **** *  uint8 col - Display column where to print.
  37:utils.c       **** *
  38:utils.c       **** * Return:
  39:utils.c       **** *  None.
  40:utils.c       **** *
  41:utils.c       **** *******************************************************************************/
  42:utils.c       **** void PrintDecNumber(uint8 num, uint8 row, uint8 col) CYREENTRANT
  43:utils.c       **** {
  28              		.loc 1 43 0
  29              		.cfi_startproc
  30              		@ args = 0, pretend = 0, frame = 16
  31              		@ frame_needed = 1, uses_anonymous_args = 0
  32 0000 80B5     		push	{r7, lr}
  33              		.cfi_def_cfa_offset 8
  34              		.cfi_offset 7, -8
  35              		.cfi_offset 14, -4
  36 0002 84B0     		sub	sp, sp, #16
  37              		.cfi_def_cfa_offset 24
  38 0004 00AF     		add	r7, sp, #0
  39              		.cfi_def_cfa_register 7
  40 0006 0346     		mov	r3, r0
  41 0008 FB71     		strb	r3, [r7, #7]
  42 000a 0B46     		mov	r3, r1
  43 000c BB71     		strb	r3, [r7, #6]
  44 000e 1346     		mov	r3, r2
  45 0010 7B71     		strb	r3, [r7, #5]
  44:utils.c       ****     uint8 tmp1 = 0u;
  46              		.loc 1 44 0
  47 0012 0023     		movs	r3, #0
  48 0014 FB73     		strb	r3, [r7, #15]
  45:utils.c       ****     uint8 tmp10 = 0u;
  49              		.loc 1 45 0
  50 0016 0023     		movs	r3, #0
  51 0018 BB73     		strb	r3, [r7, #14]
  46:utils.c       ****     LCD_Position(row, col + 1u);
  52              		.loc 1 46 0
  53 001a 7B79     		ldrb	r3, [r7, #5]
  54 001c 0133     		adds	r3, r3, #1
  55 001e DAB2     		uxtb	r2, r3
  56 0020 BB79     		ldrb	r3, [r7, #6]	@ zero_extendqisi2
  57 0022 1146     		mov	r1, r2
  58 0024 1846     		mov	r0, r3
  59 0026 FFF7FEFF 		bl	LCD_Position
  47:utils.c       **** 
  48:utils.c       ****     tmp1 = num % 10u;
  60              		.loc 1 48 0
  61 002a FA79     		ldrb	r2, [r7, #7]	@ zero_extendqisi2
  62 002c 124B     		ldr	r3, .L2
  63 002e A3FB0213 		umull	r1, r3, r3, r2
  64 0032 D908     		lsrs	r1, r3, #3
  65 0034 0B46     		mov	r3, r1
  66 0036 9B00     		lsls	r3, r3, #2
ARM GAS  C:\Users\Admin\AppData\Local\Temp\cc1uvXO4.s 			page 3


  67 0038 0B44     		add	r3, r3, r1
  68 003a 5B00     		lsls	r3, r3, #1
  69 003c D31A     		subs	r3, r2, r3
  70 003e FB73     		strb	r3, [r7, #15]
  49:utils.c       ****     LCD_PutChar(tmp1 + 0x30u);
  71              		.loc 1 49 0
  72 0040 FB7B     		ldrb	r3, [r7, #15]
  73 0042 3033     		adds	r3, r3, #48
  74 0044 DBB2     		uxtb	r3, r3
  75 0046 1846     		mov	r0, r3
  76 0048 FFF7FEFF 		bl	LCD_PutChar
  50:utils.c       **** 
  51:utils.c       ****     tmp10 = num / 10u;
  77              		.loc 1 51 0
  78 004c FB79     		ldrb	r3, [r7, #7]	@ zero_extendqisi2
  79 004e 0A4A     		ldr	r2, .L2
  80 0050 A2FB0323 		umull	r2, r3, r2, r3
  81 0054 DB08     		lsrs	r3, r3, #3
  82 0056 BB73     		strb	r3, [r7, #14]
  52:utils.c       **** 
  53:utils.c       ****     LCD_Position(row, col);
  83              		.loc 1 53 0
  84 0058 7A79     		ldrb	r2, [r7, #5]	@ zero_extendqisi2
  85 005a BB79     		ldrb	r3, [r7, #6]	@ zero_extendqisi2
  86 005c 1146     		mov	r1, r2
  87 005e 1846     		mov	r0, r3
  88 0060 FFF7FEFF 		bl	LCD_Position
  54:utils.c       ****     LCD_PutChar(tmp10 + 0x30u);
  89              		.loc 1 54 0
  90 0064 BB7B     		ldrb	r3, [r7, #14]
  91 0066 3033     		adds	r3, r3, #48
  92 0068 DBB2     		uxtb	r3, r3
  93 006a 1846     		mov	r0, r3
  94 006c FFF7FEFF 		bl	LCD_PutChar
  55:utils.c       **** }
  95              		.loc 1 55 0
  96 0070 00BF     		nop
  97 0072 1037     		adds	r7, r7, #16
  98              		.cfi_def_cfa_offset 8
  99 0074 BD46     		mov	sp, r7
 100              		.cfi_def_cfa_register 13
 101              		@ sp needed
 102 0076 80BD     		pop	{r7, pc}
 103              	.L3:
 104              		.align	2
 105              	.L2:
 106 0078 CDCCCCCC 		.word	-858993459
 107              		.cfi_endproc
 108              	.LFE63:
 109              		.size	PrintDecNumber, .-PrintDecNumber
 110              		.text
 111              	.Letext0:
 112              		.file 2 "c:\\program files (x86)\\cypress\\psoc creator\\4.3\\psoc creator\\import\\gnu\\arm\\5.4.
 113              		.file 3 "c:\\program files (x86)\\cypress\\psoc creator\\4.3\\psoc creator\\import\\gnu\\arm\\5.4.
 114              		.file 4 "Generated_Source\\PSoC5/cytypes.h"
 115              		.file 5 "Generated_Source\\PSoC5/core_cm3.h"