ARM GAS  C:\Users\slavi\AppData\Local\Temp\ccP0amqC.s 			page 1


   1              		.syntax unified
   2              		.cpu cortex-m3
   3              		.fpu softvfp
   4              		.eabi_attribute 20, 1
   5              		.eabi_attribute 21, 1
   6              		.eabi_attribute 23, 3
   7              		.eabi_attribute 24, 1
   8              		.eabi_attribute 25, 1
   9              		.eabi_attribute 26, 1
  10              		.eabi_attribute 30, 1
  11              		.eabi_attribute 34, 1
  12              		.eabi_attribute 18, 4
  13              		.thumb
  14              		.syntax unified
  15              		.file	"tty_utils.c"
  16              		.text
  17              	.Ltext0:
  18              		.cfi_sections	.debug_frame
  19              		.section	.text.tty_rx_isr,"ax",%progbits
  20              		.align	2
  21              		.global	tty_rx_isr
  22              		.thumb
  23              		.thumb_func
  24              		.type	tty_rx_isr, %function
  25              	tty_rx_isr:
  26              	.LFB67:
  27              		.file 1 "tty_utils.c"
   1:tty_utils.c   **** #include "project.h"
   2:tty_utils.c   **** #include "stdio.h"
   3:tty_utils.c   **** #include "tty_utils.h"
   4:tty_utils.c   **** 
   5:tty_utils.c   **** #define TAB   '\t'
   6:tty_utils.c   **** #define SPACE ' ' 
   7:tty_utils.c   **** #define CR    '\r'
   8:tty_utils.c   **** #define LF    '\n'
   9:tty_utils.c   **** 
  10:tty_utils.c   **** #define RX_BUF_LEN  128
  11:tty_utils.c   **** #define STR_BUF_LEN  64
  12:tty_utils.c   **** 
  13:tty_utils.c   **** volatile char rx_buf[RX_BUF_LEN] ;
  14:tty_utils.c   **** volatile int  rx_write_index = 0 ;
  15:tty_utils.c   **** int           rx_read_index  = 0 ;
  16:tty_utils.c   **** int           str_buf_index  = 0 ;
  17:tty_utils.c   **** char          str[STR_BUF_LEN + 1] ;
  18:tty_utils.c   **** 
  19:tty_utils.c   **** static inline int is_delimiter(char c)
  20:tty_utils.c   **** {
  21:tty_utils.c   ****     return((c == TAB)||(c == SPACE)||(c == CR)||(c == LF)) ;
  22:tty_utils.c   **** }
  23:tty_utils.c   **** 
  24:tty_utils.c   **** static inline int is_eol(char c)
  25:tty_utils.c   **** {
  26:tty_utils.c   ****     return((c == CR) || (c == LF)) ;
  27:tty_utils.c   **** }
  28:tty_utils.c   **** 
  29:tty_utils.c   **** void print(char *str)
  30:tty_utils.c   **** {
ARM GAS  C:\Users\slavi\AppData\Local\Temp\ccP0amqC.s 			page 2


  31:tty_utils.c   ****     UART_PutString(str) ; /* for PSoC 4 */
  32:tty_utils.c   **** }
  33:tty_utils.c   **** 
  34:tty_utils.c   **** CY_ISR(tty_rx_isr)
  35:tty_utils.c   **** {
  28              		.loc 1 35 0
  29              		.cfi_startproc
  30              		@ args = 0, pretend = 0, frame = 0
  31              		@ frame_needed = 0, uses_anonymous_args = 0
  32 0000 38B5     		push	{r3, r4, r5, lr}
  33              		.cfi_def_cfa_offset 16
  34              		.cfi_offset 3, -16
  35              		.cfi_offset 4, -12
  36              		.cfi_offset 5, -8
  37              		.cfi_offset 14, -4
  36:tty_utils.c   ****     if (UART_GetRxBufferSize()) {
  38              		.loc 1 36 0
  39 0002 FFF7FEFF 		bl	UART_GetRxBufferSize
  40              	.LVL0:
  41 0006 90B1     		cbz	r0, .L2
  37:tty_utils.c   ****         rx_buf[rx_write_index] = UART_GetByte() ;
  42              		.loc 1 37 0
  43 0008 0A4C     		ldr	r4, .L5
  44 000a 2568     		ldr	r5, [r4]
  45 000c FFF7FEFF 		bl	UART_GetByte
  46              	.LVL1:
  47 0010 C0B2     		uxtb	r0, r0
  48 0012 094B     		ldr	r3, .L5+4
  49 0014 5855     		strb	r0, [r3, r5]
  38:tty_utils.c   ****         rx_write_index = (rx_write_index + 1) % RX_BUF_LEN ;
  50              		.loc 1 38 0
  51 0016 2268     		ldr	r2, [r4]
  52 0018 0132     		adds	r2, r2, #1
  53 001a 084B     		ldr	r3, .L5+8
  54 001c 1340     		ands	r3, r3, r2
  55 001e 002B     		cmp	r3, #0
  56 0020 03DA     		bge	.L3
  57 0022 013B     		subs	r3, r3, #1
  58 0024 63F07F03 		orn	r3, r3, #127
  59 0028 0133     		adds	r3, r3, #1
  60              	.L3:
  61 002a 024A     		ldr	r2, .L5
  62 002c 1360     		str	r3, [r2]
  63              	.L2:
  39:tty_utils.c   ****     }
  40:tty_utils.c   ****     tty_rx_int_ClearPending() ;
  64              		.loc 1 40 0
  65 002e FFF7FEFF 		bl	tty_rx_int_ClearPending
  66              	.LVL2:
  67 0032 38BD     		pop	{r3, r4, r5, pc}
  68              	.L6:
  69              		.align	2
  70              	.L5:
  71 0034 00000000 		.word	.LANCHOR0
  72 0038 00000000 		.word	rx_buf
  73 003c 7F000080 		.word	-2147483521
  74              		.cfi_endproc
ARM GAS  C:\Users\slavi\AppData\Local\Temp\ccP0amqC.s 			page 3


  75              	.LFE67:
  76              		.size	tty_rx_isr, .-tty_rx_isr
  77              		.section	.text.print,"ax",%progbits
  78              		.align	2
  79              		.global	print
  80              		.thumb
  81              		.thumb_func
  82              		.type	print, %function
  83              	print:
  84              	.LFB66:
  30:tty_utils.c   ****     UART_PutString(str) ; /* for PSoC 4 */
  85              		.loc 1 30 0
  86              		.cfi_startproc
  87              		@ args = 0, pretend = 0, frame = 0
  88              		@ frame_needed = 0, uses_anonymous_args = 0
  89              	.LVL3:
  90 0000 08B5     		push	{r3, lr}
  91              		.cfi_def_cfa_offset 8
  92              		.cfi_offset 3, -8
  93              		.cfi_offset 14, -4
  31:tty_utils.c   **** }
  94              		.loc 1 31 0
  95 0002 FFF7FEFF 		bl	UART_PutString
  96              	.LVL4:
  97 0006 08BD     		pop	{r3, pc}
  98              		.cfi_endproc
  99              	.LFE66:
 100              		.size	print, .-print
 101              		.section	.text.splash,"ax",%progbits
 102              		.align	2
 103              		.global	splash
 104              		.thumb
 105              		.thumb_func
 106              		.type	splash, %function
 107              	splash:
 108              	.LFB68:
  41:tty_utils.c   **** }
  42:tty_utils.c   **** 
  43:tty_utils.c   **** void splash(char *prog_name) 
  44:tty_utils.c   **** {
 109              		.loc 1 44 0
 110              		.cfi_startproc
 111              		@ args = 0, pretend = 0, frame = 0
 112              		@ frame_needed = 0, uses_anonymous_args = 0
 113              	.LVL5:
 114 0000 08B5     		push	{r3, lr}
 115              		.cfi_def_cfa_offset 8
 116              		.cfi_offset 3, -8
 117              		.cfi_offset 14, -4
  45:tty_utils.c   ****     if (prog_name && *prog_name) {
 118              		.loc 1 45 0
 119 0002 18B1     		cbz	r0, .L10
 120              		.loc 1 45 0 is_stmt 0 discriminator 1
 121 0004 0278     		ldrb	r2, [r0]	@ zero_extendqisi2
 122 0006 0AB1     		cbz	r2, .L10
  46:tty_utils.c   ****         print(prog_name) ;
 123              		.loc 1 46 0 is_stmt 1
ARM GAS  C:\Users\slavi\AppData\Local\Temp\ccP0amqC.s 			page 4


 124 0008 FFF7FEFF 		bl	print
 125              	.LVL6:
 126              	.L10:
  47:tty_utils.c   ****     } 
  48:tty_utils.c   ****     print(" (") ;
 127              		.loc 1 48 0
 128 000c 0748     		ldr	r0, .L12
 129 000e FFF7FEFF 		bl	print
 130              	.LVL7:
  49:tty_utils.c   ****     print(__DATE__) ;
 131              		.loc 1 49 0
 132 0012 0748     		ldr	r0, .L12+4
 133 0014 FFF7FEFF 		bl	print
 134              	.LVL8:
  50:tty_utils.c   ****     print(" ") ;
 135              		.loc 1 50 0
 136 0018 0648     		ldr	r0, .L12+8
 137 001a FFF7FEFF 		bl	print
 138              	.LVL9:
  51:tty_utils.c   ****     print(__TIME__) ;
 139              		.loc 1 51 0
 140 001e 0648     		ldr	r0, .L12+12
 141 0020 FFF7FEFF 		bl	print
 142              	.LVL10:
  52:tty_utils.c   ****     print(")\n") ;
 143              		.loc 1 52 0
 144 0024 0548     		ldr	r0, .L12+16
 145 0026 FFF7FEFF 		bl	print
 146              	.LVL11:
 147 002a 08BD     		pop	{r3, pc}
 148              	.L13:
 149              		.align	2
 150              	.L12:
 151 002c 00000000 		.word	.LC0
 152 0030 04000000 		.word	.LC1
 153 0034 10000000 		.word	.LC2
 154 0038 14000000 		.word	.LC3
 155 003c 20000000 		.word	.LC4
 156              		.cfi_endproc
 157              	.LFE68:
 158              		.size	splash, .-splash
 159              		.section	.text.prompt,"ax",%progbits
 160              		.align	2
 161              		.global	prompt
 162              		.thumb
 163              		.thumb_func
 164              		.type	prompt, %function
 165              	prompt:
 166              	.LFB69:
  53:tty_utils.c   **** }
  54:tty_utils.c   **** 
  55:tty_utils.c   **** void prompt(void)
  56:tty_utils.c   **** {
 167              		.loc 1 56 0
 168              		.cfi_startproc
 169              		@ args = 0, pretend = 0, frame = 0
 170              		@ frame_needed = 0, uses_anonymous_args = 0
ARM GAS  C:\Users\slavi\AppData\Local\Temp\ccP0amqC.s 			page 5


 171 0000 08B5     		push	{r3, lr}
 172              		.cfi_def_cfa_offset 8
 173              		.cfi_offset 3, -8
 174              		.cfi_offset 14, -4
  57:tty_utils.c   ****     print("> ") ;
 175              		.loc 1 57 0
 176 0002 0248     		ldr	r0, .L16
 177 0004 FFF7FEFF 		bl	print
 178              	.LVL12:
 179 0008 08BD     		pop	{r3, pc}
 180              	.L17:
 181 000a 00BF     		.align	2
 182              	.L16:
 183 000c 24000000 		.word	.LC5
 184              		.cfi_endproc
 185              	.LFE69:
 186              		.size	prompt, .-prompt
 187              		.section	.text.tty_init,"ax",%progbits
 188              		.align	2
 189              		.global	tty_init
 190              		.thumb
 191              		.thumb_func
 192              		.type	tty_init, %function
 193              	tty_init:
 194              	.LFB70:
  58:tty_utils.c   **** }
  59:tty_utils.c   **** 
  60:tty_utils.c   **** void tty_init(void)
  61:tty_utils.c   **** {
 195              		.loc 1 61 0
 196              		.cfi_startproc
 197              		@ args = 0, pretend = 0, frame = 0
 198              		@ frame_needed = 0, uses_anonymous_args = 0
 199 0000 08B5     		push	{r3, lr}
 200              		.cfi_def_cfa_offset 8
 201              		.cfi_offset 3, -8
 202              		.cfi_offset 14, -4
  62:tty_utils.c   ****     tty_rx_int_ClearPending() ;
 203              		.loc 1 62 0
 204 0002 FFF7FEFF 		bl	tty_rx_int_ClearPending
 205              	.LVL13:
  63:tty_utils.c   ****     tty_rx_int_StartEx(tty_rx_isr) ;
 206              		.loc 1 63 0
 207 0006 0348     		ldr	r0, .L20
 208 0008 FFF7FEFF 		bl	tty_rx_int_StartEx
 209              	.LVL14:
  64:tty_utils.c   ****     UART_Start() ;
 210              		.loc 1 64 0
 211 000c FFF7FEFF 		bl	UART_Start
 212              	.LVL15:
 213 0010 08BD     		pop	{r3, pc}
 214              	.L21:
 215 0012 00BF     		.align	2
 216              	.L20:
 217 0014 00000000 		.word	tty_rx_isr
 218              		.cfi_endproc
 219              	.LFE70:
ARM GAS  C:\Users\slavi\AppData\Local\Temp\ccP0amqC.s 			page 6


 220              		.size	tty_init, .-tty_init
 221              		.section	.text.get_string,"ax",%progbits
 222              		.align	2
 223              		.global	get_string
 224              		.thumb
 225              		.thumb_func
 226              		.type	get_string, %function
 227              	get_string:
 228              	.LFB71:
  65:tty_utils.c   **** }
  66:tty_utils.c   **** 
  67:tty_utils.c   **** int get_string(void)
  68:tty_utils.c   **** {
 229              		.loc 1 68 0
 230              		.cfi_startproc
 231              		@ args = 0, pretend = 0, frame = 0
 232              		@ frame_needed = 0, uses_anonymous_args = 0
 233              		@ link register save eliminated.
 234              	.LVL16:
  69:tty_utils.c   ****     int result = 0 ;
  70:tty_utils.c   ****     
  71:tty_utils.c   ****     if (rx_read_index != rx_write_index) {
 235              		.loc 1 71 0
 236 0000 214B     		ldr	r3, .L34
 237 0002 5A68     		ldr	r2, [r3, #4]
 238 0004 1B68     		ldr	r3, [r3]
 239 0006 9A42     		cmp	r2, r3
 240 0008 3CD0     		beq	.L28
  72:tty_utils.c   ****         if (is_delimiter(rx_buf[rx_read_index])) {
 241              		.loc 1 72 0
 242 000a 204B     		ldr	r3, .L34+4
 243 000c 9B5C     		ldrb	r3, [r3, r2]	@ zero_extendqisi2
 244 000e DBB2     		uxtb	r3, r3
 245              	.LVL17:
 246              	.LBB6:
 247              	.LBB7:
  21:tty_utils.c   **** }
 248              		.loc 1 21 0
 249 0010 092B     		cmp	r3, #9
 250 0012 07D0     		beq	.L29
 251 0014 202B     		cmp	r3, #32
 252 0016 07D0     		beq	.L30
 253 0018 0D2B     		cmp	r3, #13
 254 001a 07D0     		beq	.L31
 255 001c 0A2B     		cmp	r3, #10
 256 001e 07D1     		bne	.L32
 257 0020 0123     		movs	r3, #1
 258              	.LVL18:
 259 0022 06E0     		b	.L24
 260              	.LVL19:
 261              	.L29:
 262 0024 0123     		movs	r3, #1
 263              	.LVL20:
 264 0026 04E0     		b	.L24
 265              	.LVL21:
 266              	.L30:
 267 0028 0123     		movs	r3, #1
ARM GAS  C:\Users\slavi\AppData\Local\Temp\ccP0amqC.s 			page 7


 268              	.LVL22:
 269 002a 02E0     		b	.L24
 270              	.LVL23:
 271              	.L31:
 272 002c 0123     		movs	r3, #1
 273              	.LVL24:
 274 002e 00E0     		b	.L24
 275              	.LVL25:
 276              	.L32:
 277 0030 0023     		movs	r3, #0
 278              	.LVL26:
 279              	.L24:
 280              	.LBE7:
 281              	.LBE6:
 282              		.loc 1 72 0
 283 0032 33B1     		cbz	r3, .L25
  73:tty_utils.c   ****             str[str_buf_index] = (char)NULL ;
 284              		.loc 1 73 0
 285 0034 144B     		ldr	r3, .L34
 286 0036 9868     		ldr	r0, [r3, #8]
 287 0038 0022     		movs	r2, #0
 288 003a 1549     		ldr	r1, .L34+8
 289 003c 0A54     		strb	r2, [r1, r0]
 290              	.LVL27:
  74:tty_utils.c   ****             result = str_buf_index ;
  75:tty_utils.c   ****             str_buf_index = 0 ;
 291              		.loc 1 75 0
 292 003e 9A60     		str	r2, [r3, #8]
 293 0040 12E0     		b	.L26
 294              	.LVL28:
 295              	.L25:
  76:tty_utils.c   ****         } else {
  77:tty_utils.c   ****             str[str_buf_index++] = rx_buf[rx_read_index] ;
 296              		.loc 1 77 0
 297 0042 1148     		ldr	r0, .L34
 298 0044 8168     		ldr	r1, [r0, #8]
 299 0046 4B1C     		adds	r3, r1, #1
 300 0048 8360     		str	r3, [r0, #8]
 301 004a 1048     		ldr	r0, .L34+4
 302 004c 805C     		ldrb	r0, [r0, r2]	@ zero_extendqisi2
 303 004e 104A     		ldr	r2, .L34+8
 304 0050 5054     		strb	r0, [r2, r1]
  78:tty_utils.c   ****             if (str_buf_index >= STR_BUF_LEN) {
 305              		.loc 1 78 0
 306 0052 3F2B     		cmp	r3, #63
 307 0054 07DD     		ble	.L33
  79:tty_utils.c   ****                 str[STR_BUF_LEN] = (char)NULL ;
 308              		.loc 1 79 0
 309 0056 0023     		movs	r3, #0
 310 0058 82F84030 		strb	r3, [r2, #64]
  80:tty_utils.c   ****                 str_buf_index = 0 ;
 311              		.loc 1 80 0
 312 005c 0A4A     		ldr	r2, .L34
 313 005e 9360     		str	r3, [r2, #8]
 314              	.LVL29:
  81:tty_utils.c   ****                 result = -1 ; /* str buf overflow */
 315              		.loc 1 81 0
ARM GAS  C:\Users\slavi\AppData\Local\Temp\ccP0amqC.s 			page 8


 316 0060 4FF0FF30 		mov	r0, #-1
 317 0064 00E0     		b	.L26
 318              	.LVL30:
 319              	.L33:
  69:tty_utils.c   ****     
 320              		.loc 1 69 0
 321 0066 0020     		movs	r0, #0
 322              	.LVL31:
 323              	.L26:
  82:tty_utils.c   ****             }
  83:tty_utils.c   ****         }
  84:tty_utils.c   ****         rx_read_index = (rx_read_index + 1) % RX_BUF_LEN ;
 324              		.loc 1 84 0
 325 0068 074B     		ldr	r3, .L34
 326 006a 5A68     		ldr	r2, [r3, #4]
 327 006c 0132     		adds	r2, r2, #1
 328 006e 094B     		ldr	r3, .L34+12
 329 0070 1340     		ands	r3, r3, r2
 330 0072 002B     		cmp	r3, #0
 331 0074 03DA     		bge	.L27
 332 0076 013B     		subs	r3, r3, #1
 333 0078 63F07F03 		orn	r3, r3, #127
 334 007c 0133     		adds	r3, r3, #1
 335              	.L27:
 336 007e 024A     		ldr	r2, .L34
 337 0080 5360     		str	r3, [r2, #4]
 338 0082 7047     		bx	lr
 339              	.LVL32:
 340              	.L28:
  69:tty_utils.c   ****     
 341              		.loc 1 69 0
 342 0084 0020     		movs	r0, #0
 343              	.LVL33:
  85:tty_utils.c   ****     }
  86:tty_utils.c   ****     return( result ) ;
  87:tty_utils.c   **** }
 344              		.loc 1 87 0
 345 0086 7047     		bx	lr
 346              	.L35:
 347              		.align	2
 348              	.L34:
 349 0088 00000000 		.word	.LANCHOR0
 350 008c 00000000 		.word	rx_buf
 351 0090 00000000 		.word	str
 352 0094 7F000080 		.word	-2147483521
 353              		.cfi_endproc
 354              	.LFE71:
 355              		.size	get_string, .-get_string
 356              		.section	.text.get_line,"ax",%progbits
 357              		.align	2
 358              		.global	get_line
 359              		.thumb
 360              		.thumb_func
 361              		.type	get_line, %function
 362              	get_line:
 363              	.LFB72:
  88:tty_utils.c   **** 
ARM GAS  C:\Users\slavi\AppData\Local\Temp\ccP0amqC.s 			page 9


  89:tty_utils.c   **** int get_line(void)
  90:tty_utils.c   **** {
 364              		.loc 1 90 0
 365              		.cfi_startproc
 366              		@ args = 0, pretend = 0, frame = 0
 367              		@ frame_needed = 0, uses_anonymous_args = 0
 368              		@ link register save eliminated.
 369              	.LVL34:
  91:tty_utils.c   ****     int result = 0 ;
  92:tty_utils.c   ****     
  93:tty_utils.c   ****     if (rx_read_index != rx_write_index) {
 370              		.loc 1 93 0
 371 0000 1D4B     		ldr	r3, .L46
 372 0002 5A68     		ldr	r2, [r3, #4]
 373 0004 1B68     		ldr	r3, [r3]
 374 0006 9A42     		cmp	r2, r3
 375 0008 34D0     		beq	.L42
  94:tty_utils.c   ****         if (is_eol(rx_buf[rx_read_index])) {
 376              		.loc 1 94 0
 377 000a 1C4B     		ldr	r3, .L46+4
 378 000c 9B5C     		ldrb	r3, [r3, r2]	@ zero_extendqisi2
 379 000e DBB2     		uxtb	r3, r3
 380              	.LVL35:
 381              	.LBB8:
 382              	.LBB9:
  26:tty_utils.c   **** }
 383              		.loc 1 26 0
 384 0010 0D2B     		cmp	r3, #13
 385 0012 03D0     		beq	.L43
 386 0014 0A2B     		cmp	r3, #10
 387 0016 03D1     		bne	.L44
 388 0018 0123     		movs	r3, #1
 389              	.LVL36:
 390 001a 02E0     		b	.L38
 391              	.LVL37:
 392              	.L43:
 393 001c 0123     		movs	r3, #1
 394              	.LVL38:
 395 001e 00E0     		b	.L38
 396              	.LVL39:
 397              	.L44:
 398 0020 0023     		movs	r3, #0
 399              	.LVL40:
 400              	.L38:
 401              	.LBE9:
 402              	.LBE8:
 403              		.loc 1 94 0
 404 0022 33B1     		cbz	r3, .L39
  95:tty_utils.c   ****             str[str_buf_index] = (char)NULL ;
 405              		.loc 1 95 0
 406 0024 144B     		ldr	r3, .L46
 407 0026 9868     		ldr	r0, [r3, #8]
 408 0028 0022     		movs	r2, #0
 409 002a 1549     		ldr	r1, .L46+8
 410 002c 0A54     		strb	r2, [r1, r0]
 411              	.LVL41:
  96:tty_utils.c   ****             result = str_buf_index ;
ARM GAS  C:\Users\slavi\AppData\Local\Temp\ccP0amqC.s 			page 10


  97:tty_utils.c   ****             str_buf_index = 0 ;
 412              		.loc 1 97 0
 413 002e 9A60     		str	r2, [r3, #8]
 414 0030 12E0     		b	.L40
 415              	.LVL42:
 416              	.L39:
  98:tty_utils.c   ****         } else {
  99:tty_utils.c   ****             str[str_buf_index++] = rx_buf[rx_read_index] ;
 417              		.loc 1 99 0
 418 0032 1148     		ldr	r0, .L46
 419 0034 8168     		ldr	r1, [r0, #8]
 420 0036 4B1C     		adds	r3, r1, #1
 421 0038 8360     		str	r3, [r0, #8]
 422 003a 1048     		ldr	r0, .L46+4
 423 003c 805C     		ldrb	r0, [r0, r2]	@ zero_extendqisi2
 424 003e 104A     		ldr	r2, .L46+8
 425 0040 5054     		strb	r0, [r2, r1]
 100:tty_utils.c   ****             if (str_buf_index >= STR_BUF_LEN) {
 426              		.loc 1 100 0
 427 0042 3F2B     		cmp	r3, #63
 428 0044 07DD     		ble	.L45
 101:tty_utils.c   ****                 str[STR_BUF_LEN] = (char)NULL ;
 429              		.loc 1 101 0
 430 0046 0023     		movs	r3, #0
 431 0048 82F84030 		strb	r3, [r2, #64]
 102:tty_utils.c   ****                 str_buf_index = 0 ;
 432              		.loc 1 102 0
 433 004c 0A4A     		ldr	r2, .L46
 434 004e 9360     		str	r3, [r2, #8]
 435              	.LVL43:
 103:tty_utils.c   ****                 result = -1 ; /* str buf overflow */
 436              		.loc 1 103 0
 437 0050 4FF0FF30 		mov	r0, #-1
 438 0054 00E0     		b	.L40
 439              	.LVL44:
 440              	.L45:
  91:tty_utils.c   ****     
 441              		.loc 1 91 0
 442 0056 0020     		movs	r0, #0
 443              	.LVL45:
 444              	.L40:
 104:tty_utils.c   ****             }
 105:tty_utils.c   ****         }
 106:tty_utils.c   ****         rx_read_index = (rx_read_index + 1) % RX_BUF_LEN ;
 445              		.loc 1 106 0
 446 0058 074B     		ldr	r3, .L46
 447 005a 5A68     		ldr	r2, [r3, #4]
 448 005c 0132     		adds	r2, r2, #1
 449 005e 094B     		ldr	r3, .L46+12
 450 0060 1340     		ands	r3, r3, r2
 451 0062 002B     		cmp	r3, #0
 452 0064 03DA     		bge	.L41
 453 0066 013B     		subs	r3, r3, #1
 454 0068 63F07F03 		orn	r3, r3, #127
 455 006c 0133     		adds	r3, r3, #1
 456              	.L41:
 457 006e 024A     		ldr	r2, .L46
ARM GAS  C:\Users\slavi\AppData\Local\Temp\ccP0amqC.s 			page 11


 458 0070 5360     		str	r3, [r2, #4]
 459 0072 7047     		bx	lr
 460              	.LVL46:
 461              	.L42:
  91:tty_utils.c   ****     
 462              		.loc 1 91 0
 463 0074 0020     		movs	r0, #0
 464              	.LVL47:
 107:tty_utils.c   ****     }
 108:tty_utils.c   ****     return( result ) ;
 109:tty_utils.c   **** }
 465              		.loc 1 109 0
 466 0076 7047     		bx	lr
 467              	.L47:
 468              		.align	2
 469              	.L46:
 470 0078 00000000 		.word	.LANCHOR0
 471 007c 00000000 		.word	rx_buf
 472 0080 00000000 		.word	str
 473 0084 7F000080 		.word	-2147483521
 474              		.cfi_endproc
 475              	.LFE72:
 476              		.size	get_line, .-get_line
 477              		.comm	str,65,4
 478              		.global	str_buf_index
 479              		.global	rx_read_index
 480              		.global	rx_write_index
 481              		.comm	rx_buf,128,4
 482              		.section	.rodata.str1.4,"aMS",%progbits,1
 483              		.align	2
 484              	.LC0:
 485 0000 202800   		.ascii	" (\000"
 486 0003 00       		.space	1
 487              	.LC1:
 488 0004 44656320 		.ascii	"Dec 30 2021\000"
 488      33302032 
 488      30323100 
 489              	.LC2:
 490 0010 2000     		.ascii	" \000"
 491 0012 0000     		.space	2
 492              	.LC3:
 493 0014 30343A32 		.ascii	"04:21:57\000"
 493      313A3537 
 493      00
 494 001d 000000   		.space	3
 495              	.LC4:
 496 0020 290A00   		.ascii	")\012\000"
 497 0023 00       		.space	1
 498              	.LC5:
 499 0024 3E2000   		.ascii	"> \000"
 500              		.bss
 501              		.align	2
 502              		.set	.LANCHOR0,. + 0
 503              		.type	rx_write_index, %object
 504              		.size	rx_write_index, 4
 505              	rx_write_index:
 506 0000 00000000 		.space	4
ARM GAS  C:\Users\slavi\AppData\Local\Temp\ccP0amqC.s 			page 12


 507              		.type	rx_read_index, %object
 508              		.size	rx_read_index, 4
 509              	rx_read_index:
 510 0004 00000000 		.space	4
 511              		.type	str_buf_index, %object
 512              		.size	str_buf_index, 4
 513              	str_buf_index:
 514 0008 00000000 		.space	4
 515              		.text
 516              	.Letext0:
 517              		.file 2 "c:\\program files (x86)\\cypress\\psoc creator\\4.4\\psoc creator\\import\\gnu\\arm\\5.4.
 518              		.file 3 "c:\\program files (x86)\\cypress\\psoc creator\\4.4\\psoc creator\\import\\gnu\\arm\\5.4.
 519              		.file 4 "Generated_Source\\PSoC5/core_cm3.h"
 520              		.file 5 "Generated_Source\\PSoC5/UART.h"